
Microinverter_V2.0_DCAC.elf:     file format elf32-littlearm

Sections:
Idx Name          Size      VMA       LMA       File off  Algn
  0 .isr_vector   000001d8  08000000  08000000  00010000  2**0
                  CONTENTS, ALLOC, LOAD, READONLY, DATA
  1 .text         00008670  080001d8  080001d8  000101d8  2**3
                  CONTENTS, ALLOC, LOAD, READONLY, CODE
  2 .rodata       00000010  08008848  08008848  00018848  2**2
                  CONTENTS, ALLOC, LOAD, READONLY, DATA
  3 .ARM.extab    00000000  08008858  08008858  00020014  2**0
                  CONTENTS
  4 .ARM          00000000  08008858  08008858  00020014  2**0
                  CONTENTS
  5 .preinit_array 00000000  08008858  08008858  00020014  2**0
                  CONTENTS, ALLOC, LOAD, DATA
  6 .init_array   00000004  08008858  08008858  00018858  2**2
                  CONTENTS, ALLOC, LOAD, DATA
  7 .fini_array   00000004  0800885c  0800885c  0001885c  2**2
                  CONTENTS, ALLOC, LOAD, DATA
  8 .data         00000014  20000000  08008860  00020000  2**2
                  CONTENTS, ALLOC, LOAD, DATA
  9 .bss          00000370  20000014  08008874  00020014  2**2
                  ALLOC
 10 ._user_heap_stack 00000604  20000384  08008874  00020384  2**0
                  ALLOC
 11 .ARM.attributes 00000030  00000000  00000000  00020014  2**0
                  CONTENTS, READONLY
 12 .comment      00000050  00000000  00000000  00020044  2**0
                  CONTENTS, READONLY
 13 .debug_frame  0000014c  00000000  00000000  00020094  2**2
                  CONTENTS, READONLY, DEBUGGING, OCTETS

Disassembly of section .text:

080001d8 <__do_global_dtors_aux>:
 80001d8:	b510      	push	{r4, lr}
 80001da:	4c05      	ldr	r4, [pc, #20]	; (80001f0 <__do_global_dtors_aux+0x18>)
 80001dc:	7823      	ldrb	r3, [r4, #0]
 80001de:	b933      	cbnz	r3, 80001ee <__do_global_dtors_aux+0x16>
 80001e0:	4b04      	ldr	r3, [pc, #16]	; (80001f4 <__do_global_dtors_aux+0x1c>)
 80001e2:	b113      	cbz	r3, 80001ea <__do_global_dtors_aux+0x12>
 80001e4:	4804      	ldr	r0, [pc, #16]	; (80001f8 <__do_global_dtors_aux+0x20>)
 80001e6:	f3af 8000 	nop.w
 80001ea:	2301      	movs	r3, #1
 80001ec:	7023      	strb	r3, [r4, #0]
 80001ee:	bd10      	pop	{r4, pc}
 80001f0:	20000014 	.word	0x20000014
 80001f4:	00000000 	.word	0x00000000
 80001f8:	08008830 	.word	0x08008830

080001fc <frame_dummy>:
 80001fc:	b508      	push	{r3, lr}
 80001fe:	4b03      	ldr	r3, [pc, #12]	; (800020c <frame_dummy+0x10>)
 8000200:	b11b      	cbz	r3, 800020a <frame_dummy+0xe>
 8000202:	4903      	ldr	r1, [pc, #12]	; (8000210 <frame_dummy+0x14>)
 8000204:	4803      	ldr	r0, [pc, #12]	; (8000214 <frame_dummy+0x18>)
 8000206:	f3af 8000 	nop.w
 800020a:	bd08      	pop	{r3, pc}
 800020c:	00000000 	.word	0x00000000
 8000210:	20000018 	.word	0x20000018
 8000214:	08008830 	.word	0x08008830

08000218 <__aeabi_dmul>:
 8000218:	b570      	push	{r4, r5, r6, lr}
 800021a:	f04f 0cff 	mov.w	ip, #255	; 0xff
 800021e:	f44c 6ce0 	orr.w	ip, ip, #1792	; 0x700
 8000222:	ea1c 5411 	ands.w	r4, ip, r1, lsr #20
 8000226:	bf1d      	ittte	ne
 8000228:	ea1c 5513 	andsne.w	r5, ip, r3, lsr #20
 800022c:	ea94 0f0c 	teqne	r4, ip
 8000230:	ea95 0f0c 	teqne	r5, ip
 8000234:	f000 f8de 	bleq	80003f4 <__aeabi_dmul+0x1dc>
 8000238:	442c      	add	r4, r5
 800023a:	ea81 0603 	eor.w	r6, r1, r3
 800023e:	ea21 514c 	bic.w	r1, r1, ip, lsl #21
 8000242:	ea23 534c 	bic.w	r3, r3, ip, lsl #21
 8000246:	ea50 3501 	orrs.w	r5, r0, r1, lsl #12
 800024a:	bf18      	it	ne
 800024c:	ea52 3503 	orrsne.w	r5, r2, r3, lsl #12
 8000250:	f441 1180 	orr.w	r1, r1, #1048576	; 0x100000
 8000254:	f443 1380 	orr.w	r3, r3, #1048576	; 0x100000
 8000258:	d038      	beq.n	80002cc <__aeabi_dmul+0xb4>
 800025a:	fba0 ce02 	umull	ip, lr, r0, r2
 800025e:	f04f 0500 	mov.w	r5, #0
 8000262:	fbe1 e502 	umlal	lr, r5, r1, r2
 8000266:	f006 4200 	and.w	r2, r6, #2147483648	; 0x80000000
 800026a:	fbe0 e503 	umlal	lr, r5, r0, r3
 800026e:	f04f 0600 	mov.w	r6, #0
 8000272:	fbe1 5603 	umlal	r5, r6, r1, r3
 8000276:	f09c 0f00 	teq	ip, #0
 800027a:	bf18      	it	ne
 800027c:	f04e 0e01 	orrne.w	lr, lr, #1
 8000280:	f1a4 04ff 	sub.w	r4, r4, #255	; 0xff
 8000284:	f5b6 7f00 	cmp.w	r6, #512	; 0x200
 8000288:	f564 7440 	sbc.w	r4, r4, #768	; 0x300
 800028c:	d204      	bcs.n	8000298 <__aeabi_dmul+0x80>
 800028e:	ea5f 0e4e 	movs.w	lr, lr, lsl #1
 8000292:	416d      	adcs	r5, r5
 8000294:	eb46 0606 	adc.w	r6, r6, r6
 8000298:	ea42 21c6 	orr.w	r1, r2, r6, lsl #11
 800029c:	ea41 5155 	orr.w	r1, r1, r5, lsr #21
 80002a0:	ea4f 20c5 	mov.w	r0, r5, lsl #11
 80002a4:	ea40 505e 	orr.w	r0, r0, lr, lsr #21
 80002a8:	ea4f 2ece 	mov.w	lr, lr, lsl #11
 80002ac:	f1b4 0cfd 	subs.w	ip, r4, #253	; 0xfd
 80002b0:	bf88      	it	hi
 80002b2:	f5bc 6fe0 	cmphi.w	ip, #1792	; 0x700
 80002b6:	d81e      	bhi.n	80002f6 <__aeabi_dmul+0xde>
 80002b8:	f1be 4f00 	cmp.w	lr, #2147483648	; 0x80000000
 80002bc:	bf08      	it	eq
 80002be:	ea5f 0e50 	movseq.w	lr, r0, lsr #1
 80002c2:	f150 0000 	adcs.w	r0, r0, #0
 80002c6:	eb41 5104 	adc.w	r1, r1, r4, lsl #20
 80002ca:	bd70      	pop	{r4, r5, r6, pc}
 80002cc:	f006 4600 	and.w	r6, r6, #2147483648	; 0x80000000
 80002d0:	ea46 0101 	orr.w	r1, r6, r1
 80002d4:	ea40 0002 	orr.w	r0, r0, r2
 80002d8:	ea81 0103 	eor.w	r1, r1, r3
 80002dc:	ebb4 045c 	subs.w	r4, r4, ip, lsr #1
 80002e0:	bfc2      	ittt	gt
 80002e2:	ebd4 050c 	rsbsgt	r5, r4, ip
 80002e6:	ea41 5104 	orrgt.w	r1, r1, r4, lsl #20
 80002ea:	bd70      	popgt	{r4, r5, r6, pc}
 80002ec:	f441 1180 	orr.w	r1, r1, #1048576	; 0x100000
 80002f0:	f04f 0e00 	mov.w	lr, #0
 80002f4:	3c01      	subs	r4, #1
 80002f6:	f300 80ab 	bgt.w	8000450 <__aeabi_dmul+0x238>
 80002fa:	f114 0f36 	cmn.w	r4, #54	; 0x36
 80002fe:	bfde      	ittt	le
 8000300:	2000      	movle	r0, #0
 8000302:	f001 4100 	andle.w	r1, r1, #2147483648	; 0x80000000
 8000306:	bd70      	pople	{r4, r5, r6, pc}
 8000308:	f1c4 0400 	rsb	r4, r4, #0
 800030c:	3c20      	subs	r4, #32
 800030e:	da35      	bge.n	800037c <__aeabi_dmul+0x164>
 8000310:	340c      	adds	r4, #12
 8000312:	dc1b      	bgt.n	800034c <__aeabi_dmul+0x134>
 8000314:	f104 0414 	add.w	r4, r4, #20
 8000318:	f1c4 0520 	rsb	r5, r4, #32
 800031c:	fa00 f305 	lsl.w	r3, r0, r5
 8000320:	fa20 f004 	lsr.w	r0, r0, r4
 8000324:	fa01 f205 	lsl.w	r2, r1, r5
 8000328:	ea40 0002 	orr.w	r0, r0, r2
 800032c:	f001 4200 	and.w	r2, r1, #2147483648	; 0x80000000
 8000330:	f021 4100 	bic.w	r1, r1, #2147483648	; 0x80000000
 8000334:	eb10 70d3 	adds.w	r0, r0, r3, lsr #31
 8000338:	fa21 f604 	lsr.w	r6, r1, r4
 800033c:	eb42 0106 	adc.w	r1, r2, r6
 8000340:	ea5e 0e43 	orrs.w	lr, lr, r3, lsl #1
 8000344:	bf08      	it	eq
 8000346:	ea20 70d3 	biceq.w	r0, r0, r3, lsr #31
 800034a:	bd70      	pop	{r4, r5, r6, pc}
 800034c:	f1c4 040c 	rsb	r4, r4, #12
 8000350:	f1c4 0520 	rsb	r5, r4, #32
 8000354:	fa00 f304 	lsl.w	r3, r0, r4
 8000358:	fa20 f005 	lsr.w	r0, r0, r5
 800035c:	fa01 f204 	lsl.w	r2, r1, r4
 8000360:	ea40 0002 	orr.w	r0, r0, r2
 8000364:	f001 4100 	and.w	r1, r1, #2147483648	; 0x80000000
 8000368:	eb10 70d3 	adds.w	r0, r0, r3, lsr #31
 800036c:	f141 0100 	adc.w	r1, r1, #0
 8000370:	ea5e 0e43 	orrs.w	lr, lr, r3, lsl #1
 8000374:	bf08      	it	eq
 8000376:	ea20 70d3 	biceq.w	r0, r0, r3, lsr #31
 800037a:	bd70      	pop	{r4, r5, r6, pc}
 800037c:	f1c4 0520 	rsb	r5, r4, #32
 8000380:	fa00 f205 	lsl.w	r2, r0, r5
 8000384:	ea4e 0e02 	orr.w	lr, lr, r2
 8000388:	fa20 f304 	lsr.w	r3, r0, r4
 800038c:	fa01 f205 	lsl.w	r2, r1, r5
 8000390:	ea43 0302 	orr.w	r3, r3, r2
 8000394:	fa21 f004 	lsr.w	r0, r1, r4
 8000398:	f001 4100 	and.w	r1, r1, #2147483648	; 0x80000000
 800039c:	fa21 f204 	lsr.w	r2, r1, r4
 80003a0:	ea20 0002 	bic.w	r0, r0, r2
 80003a4:	eb00 70d3 	add.w	r0, r0, r3, lsr #31
 80003a8:	ea5e 0e43 	orrs.w	lr, lr, r3, lsl #1
 80003ac:	bf08      	it	eq
 80003ae:	ea20 70d3 	biceq.w	r0, r0, r3, lsr #31
 80003b2:	bd70      	pop	{r4, r5, r6, pc}
 80003b4:	f094 0f00 	teq	r4, #0
 80003b8:	d10f      	bne.n	80003da <__aeabi_dmul+0x1c2>
 80003ba:	f001 4600 	and.w	r6, r1, #2147483648	; 0x80000000
 80003be:	0040      	lsls	r0, r0, #1
 80003c0:	eb41 0101 	adc.w	r1, r1, r1
 80003c4:	f411 1f80 	tst.w	r1, #1048576	; 0x100000
 80003c8:	bf08      	it	eq
 80003ca:	3c01      	subeq	r4, #1
 80003cc:	d0f7      	beq.n	80003be <__aeabi_dmul+0x1a6>
 80003ce:	ea41 0106 	orr.w	r1, r1, r6
 80003d2:	f095 0f00 	teq	r5, #0
 80003d6:	bf18      	it	ne
 80003d8:	4770      	bxne	lr
 80003da:	f003 4600 	and.w	r6, r3, #2147483648	; 0x80000000
 80003de:	0052      	lsls	r2, r2, #1
 80003e0:	eb43 0303 	adc.w	r3, r3, r3
 80003e4:	f413 1f80 	tst.w	r3, #1048576	; 0x100000
 80003e8:	bf08      	it	eq
 80003ea:	3d01      	subeq	r5, #1
 80003ec:	d0f7      	beq.n	80003de <__aeabi_dmul+0x1c6>
 80003ee:	ea43 0306 	orr.w	r3, r3, r6
 80003f2:	4770      	bx	lr
 80003f4:	ea94 0f0c 	teq	r4, ip
 80003f8:	ea0c 5513 	and.w	r5, ip, r3, lsr #20
 80003fc:	bf18      	it	ne
 80003fe:	ea95 0f0c 	teqne	r5, ip
 8000402:	d00c      	beq.n	800041e <__aeabi_dmul+0x206>
 8000404:	ea50 0641 	orrs.w	r6, r0, r1, lsl #1
 8000408:	bf18      	it	ne
 800040a:	ea52 0643 	orrsne.w	r6, r2, r3, lsl #1
 800040e:	d1d1      	bne.n	80003b4 <__aeabi_dmul+0x19c>
 8000410:	ea81 0103 	eor.w	r1, r1, r3
 8000414:	f001 4100 	and.w	r1, r1, #2147483648	; 0x80000000
 8000418:	f04f 0000 	mov.w	r0, #0
 800041c:	bd70      	pop	{r4, r5, r6, pc}
 800041e:	ea50 0641 	orrs.w	r6, r0, r1, lsl #1
 8000422:	bf06      	itte	eq
 8000424:	4610      	moveq	r0, r2
 8000426:	4619      	moveq	r1, r3
 8000428:	ea52 0643 	orrsne.w	r6, r2, r3, lsl #1
 800042c:	d019      	beq.n	8000462 <__aeabi_dmul+0x24a>
 800042e:	ea94 0f0c 	teq	r4, ip
 8000432:	d102      	bne.n	800043a <__aeabi_dmul+0x222>
 8000434:	ea50 3601 	orrs.w	r6, r0, r1, lsl #12
 8000438:	d113      	bne.n	8000462 <__aeabi_dmul+0x24a>
 800043a:	ea95 0f0c 	teq	r5, ip
 800043e:	d105      	bne.n	800044c <__aeabi_dmul+0x234>
 8000440:	ea52 3603 	orrs.w	r6, r2, r3, lsl #12
 8000444:	bf1c      	itt	ne
 8000446:	4610      	movne	r0, r2
 8000448:	4619      	movne	r1, r3
 800044a:	d10a      	bne.n	8000462 <__aeabi_dmul+0x24a>
 800044c:	ea81 0103 	eor.w	r1, r1, r3
 8000450:	f001 4100 	and.w	r1, r1, #2147483648	; 0x80000000
 8000454:	f041 41fe 	orr.w	r1, r1, #2130706432	; 0x7f000000
 8000458:	f441 0170 	orr.w	r1, r1, #15728640	; 0xf00000
 800045c:	f04f 0000 	mov.w	r0, #0
 8000460:	bd70      	pop	{r4, r5, r6, pc}
 8000462:	f041 41fe 	orr.w	r1, r1, #2130706432	; 0x7f000000
 8000466:	f441 0178 	orr.w	r1, r1, #16252928	; 0xf80000
 800046a:	bd70      	pop	{r4, r5, r6, pc}

0800046c <__aeabi_drsub>:
 800046c:	f081 4100 	eor.w	r1, r1, #2147483648	; 0x80000000
 8000470:	e002      	b.n	8000478 <__adddf3>
 8000472:	bf00      	nop

08000474 <__aeabi_dsub>:
 8000474:	f083 4300 	eor.w	r3, r3, #2147483648	; 0x80000000

08000478 <__adddf3>:
 8000478:	b530      	push	{r4, r5, lr}
 800047a:	ea4f 0441 	mov.w	r4, r1, lsl #1
 800047e:	ea4f 0543 	mov.w	r5, r3, lsl #1
 8000482:	ea94 0f05 	teq	r4, r5
 8000486:	bf08      	it	eq
 8000488:	ea90 0f02 	teqeq	r0, r2
 800048c:	bf1f      	itttt	ne
 800048e:	ea54 0c00 	orrsne.w	ip, r4, r0
 8000492:	ea55 0c02 	orrsne.w	ip, r5, r2
 8000496:	ea7f 5c64 	mvnsne.w	ip, r4, asr #21
 800049a:	ea7f 5c65 	mvnsne.w	ip, r5, asr #21
 800049e:	f000 80e2 	beq.w	8000666 <__adddf3+0x1ee>
 80004a2:	ea4f 5454 	mov.w	r4, r4, lsr #21
 80004a6:	ebd4 5555 	rsbs	r5, r4, r5, lsr #21
 80004aa:	bfb8      	it	lt
 80004ac:	426d      	neglt	r5, r5
 80004ae:	dd0c      	ble.n	80004ca <__adddf3+0x52>
 80004b0:	442c      	add	r4, r5
 80004b2:	ea80 0202 	eor.w	r2, r0, r2
 80004b6:	ea81 0303 	eor.w	r3, r1, r3
 80004ba:	ea82 0000 	eor.w	r0, r2, r0
 80004be:	ea83 0101 	eor.w	r1, r3, r1
 80004c2:	ea80 0202 	eor.w	r2, r0, r2
 80004c6:	ea81 0303 	eor.w	r3, r1, r3
 80004ca:	2d36      	cmp	r5, #54	; 0x36
 80004cc:	bf88      	it	hi
 80004ce:	bd30      	pophi	{r4, r5, pc}
 80004d0:	f011 4f00 	tst.w	r1, #2147483648	; 0x80000000
 80004d4:	ea4f 3101 	mov.w	r1, r1, lsl #12
 80004d8:	f44f 1c80 	mov.w	ip, #1048576	; 0x100000
 80004dc:	ea4c 3111 	orr.w	r1, ip, r1, lsr #12
 80004e0:	d002      	beq.n	80004e8 <__adddf3+0x70>
 80004e2:	4240      	negs	r0, r0
 80004e4:	eb61 0141 	sbc.w	r1, r1, r1, lsl #1
 80004e8:	f013 4f00 	tst.w	r3, #2147483648	; 0x80000000
 80004ec:	ea4f 3303 	mov.w	r3, r3, lsl #12
 80004f0:	ea4c 3313 	orr.w	r3, ip, r3, lsr #12
 80004f4:	d002      	beq.n	80004fc <__adddf3+0x84>
 80004f6:	4252      	negs	r2, r2
 80004f8:	eb63 0343 	sbc.w	r3, r3, r3, lsl #1
 80004fc:	ea94 0f05 	teq	r4, r5
 8000500:	f000 80a7 	beq.w	8000652 <__adddf3+0x1da>
 8000504:	f1a4 0401 	sub.w	r4, r4, #1
 8000508:	f1d5 0e20 	rsbs	lr, r5, #32
 800050c:	db0d      	blt.n	800052a <__adddf3+0xb2>
 800050e:	fa02 fc0e 	lsl.w	ip, r2, lr
 8000512:	fa22 f205 	lsr.w	r2, r2, r5
 8000516:	1880      	adds	r0, r0, r2
 8000518:	f141 0100 	adc.w	r1, r1, #0
 800051c:	fa03 f20e 	lsl.w	r2, r3, lr
 8000520:	1880      	adds	r0, r0, r2
 8000522:	fa43 f305 	asr.w	r3, r3, r5
 8000526:	4159      	adcs	r1, r3
 8000528:	e00e      	b.n	8000548 <__adddf3+0xd0>
 800052a:	f1a5 0520 	sub.w	r5, r5, #32
 800052e:	f10e 0e20 	add.w	lr, lr, #32
 8000532:	2a01      	cmp	r2, #1
 8000534:	fa03 fc0e 	lsl.w	ip, r3, lr
 8000538:	bf28      	it	cs
 800053a:	f04c 0c02 	orrcs.w	ip, ip, #2
 800053e:	fa43 f305 	asr.w	r3, r3, r5
 8000542:	18c0      	adds	r0, r0, r3
 8000544:	eb51 71e3 	adcs.w	r1, r1, r3, asr #31
 8000548:	f001 4500 	and.w	r5, r1, #2147483648	; 0x80000000
 800054c:	d507      	bpl.n	800055e <__adddf3+0xe6>
 800054e:	f04f 0e00 	mov.w	lr, #0
 8000552:	f1dc 0c00 	rsbs	ip, ip, #0
 8000556:	eb7e 0000 	sbcs.w	r0, lr, r0
 800055a:	eb6e 0101 	sbc.w	r1, lr, r1
 800055e:	f5b1 1f80 	cmp.w	r1, #1048576	; 0x100000
 8000562:	d31b      	bcc.n	800059c <__adddf3+0x124>
 8000564:	f5b1 1f00 	cmp.w	r1, #2097152	; 0x200000
 8000568:	d30c      	bcc.n	8000584 <__adddf3+0x10c>
 800056a:	0849      	lsrs	r1, r1, #1
 800056c:	ea5f 0030 	movs.w	r0, r0, rrx
 8000570:	ea4f 0c3c 	mov.w	ip, ip, rrx
 8000574:	f104 0401 	add.w	r4, r4, #1
 8000578:	ea4f 5244 	mov.w	r2, r4, lsl #21
 800057c:	f512 0f80 	cmn.w	r2, #4194304	; 0x400000
 8000580:	f080 809a 	bcs.w	80006b8 <__adddf3+0x240>
 8000584:	f1bc 4f00 	cmp.w	ip, #2147483648	; 0x80000000
 8000588:	bf08      	it	eq
 800058a:	ea5f 0c50 	movseq.w	ip, r0, lsr #1
 800058e:	f150 0000 	adcs.w	r0, r0, #0
 8000592:	eb41 5104 	adc.w	r1, r1, r4, lsl #20
 8000596:	ea41 0105 	orr.w	r1, r1, r5
 800059a:	bd30      	pop	{r4, r5, pc}
 800059c:	ea5f 0c4c 	movs.w	ip, ip, lsl #1
 80005a0:	4140      	adcs	r0, r0
 80005a2:	eb41 0101 	adc.w	r1, r1, r1
 80005a6:	3c01      	subs	r4, #1
 80005a8:	bf28      	it	cs
 80005aa:	f5b1 1f80 	cmpcs.w	r1, #1048576	; 0x100000
 80005ae:	d2e9      	bcs.n	8000584 <__adddf3+0x10c>
 80005b0:	f091 0f00 	teq	r1, #0
 80005b4:	bf04      	itt	eq
 80005b6:	4601      	moveq	r1, r0
 80005b8:	2000      	moveq	r0, #0
 80005ba:	fab1 f381 	clz	r3, r1
 80005be:	bf08      	it	eq
 80005c0:	3320      	addeq	r3, #32
 80005c2:	f1a3 030b 	sub.w	r3, r3, #11
 80005c6:	f1b3 0220 	subs.w	r2, r3, #32
 80005ca:	da0c      	bge.n	80005e6 <__adddf3+0x16e>
 80005cc:	320c      	adds	r2, #12
 80005ce:	dd08      	ble.n	80005e2 <__adddf3+0x16a>
 80005d0:	f102 0c14 	add.w	ip, r2, #20
 80005d4:	f1c2 020c 	rsb	r2, r2, #12
 80005d8:	fa01 f00c 	lsl.w	r0, r1, ip
 80005dc:	fa21 f102 	lsr.w	r1, r1, r2
 80005e0:	e00c      	b.n	80005fc <__adddf3+0x184>
 80005e2:	f102 0214 	add.w	r2, r2, #20
 80005e6:	bfd8      	it	le
 80005e8:	f1c2 0c20 	rsble	ip, r2, #32
 80005ec:	fa01 f102 	lsl.w	r1, r1, r2
 80005f0:	fa20 fc0c 	lsr.w	ip, r0, ip
 80005f4:	bfdc      	itt	le
 80005f6:	ea41 010c 	orrle.w	r1, r1, ip
 80005fa:	4090      	lslle	r0, r2
 80005fc:	1ae4      	subs	r4, r4, r3
 80005fe:	bfa2      	ittt	ge
 8000600:	eb01 5104 	addge.w	r1, r1, r4, lsl #20
 8000604:	4329      	orrge	r1, r5
 8000606:	bd30      	popge	{r4, r5, pc}
 8000608:	ea6f 0404 	mvn.w	r4, r4
 800060c:	3c1f      	subs	r4, #31
 800060e:	da1c      	bge.n	800064a <__adddf3+0x1d2>
 8000610:	340c      	adds	r4, #12
 8000612:	dc0e      	bgt.n	8000632 <__adddf3+0x1ba>
 8000614:	f104 0414 	add.w	r4, r4, #20
 8000618:	f1c4 0220 	rsb	r2, r4, #32
 800061c:	fa20 f004 	lsr.w	r0, r0, r4
 8000620:	fa01 f302 	lsl.w	r3, r1, r2
 8000624:	ea40 0003 	orr.w	r0, r0, r3
 8000628:	fa21 f304 	lsr.w	r3, r1, r4
 800062c:	ea45 0103 	orr.w	r1, r5, r3
 8000630:	bd30      	pop	{r4, r5, pc}
 8000632:	f1c4 040c 	rsb	r4, r4, #12
 8000636:	f1c4 0220 	rsb	r2, r4, #32
 800063a:	fa20 f002 	lsr.w	r0, r0, r2
 800063e:	fa01 f304 	lsl.w	r3, r1, r4
 8000642:	ea40 0003 	orr.w	r0, r0, r3
 8000646:	4629      	mov	r1, r5
 8000648:	bd30      	pop	{r4, r5, pc}
 800064a:	fa21 f004 	lsr.w	r0, r1, r4
 800064e:	4629      	mov	r1, r5
 8000650:	bd30      	pop	{r4, r5, pc}
 8000652:	f094 0f00 	teq	r4, #0
 8000656:	f483 1380 	eor.w	r3, r3, #1048576	; 0x100000
 800065a:	bf06      	itte	eq
 800065c:	f481 1180 	eoreq.w	r1, r1, #1048576	; 0x100000
 8000660:	3401      	addeq	r4, #1
 8000662:	3d01      	subne	r5, #1
 8000664:	e74e      	b.n	8000504 <__adddf3+0x8c>
 8000666:	ea7f 5c64 	mvns.w	ip, r4, asr #21
 800066a:	bf18      	it	ne
 800066c:	ea7f 5c65 	mvnsne.w	ip, r5, asr #21
 8000670:	d029      	beq.n	80006c6 <__adddf3+0x24e>
 8000672:	ea94 0f05 	teq	r4, r5
 8000676:	bf08      	it	eq
 8000678:	ea90 0f02 	teqeq	r0, r2
 800067c:	d005      	beq.n	800068a <__adddf3+0x212>
 800067e:	ea54 0c00 	orrs.w	ip, r4, r0
 8000682:	bf04      	itt	eq
 8000684:	4619      	moveq	r1, r3
 8000686:	4610      	moveq	r0, r2
 8000688:	bd30      	pop	{r4, r5, pc}
 800068a:	ea91 0f03 	teq	r1, r3
 800068e:	bf1e      	ittt	ne
 8000690:	2100      	movne	r1, #0
 8000692:	2000      	movne	r0, #0
 8000694:	bd30      	popne	{r4, r5, pc}
 8000696:	ea5f 5c54 	movs.w	ip, r4, lsr #21
 800069a:	d105      	bne.n	80006a8 <__adddf3+0x230>
 800069c:	0040      	lsls	r0, r0, #1
 800069e:	4149      	adcs	r1, r1
 80006a0:	bf28      	it	cs
 80006a2:	f041 4100 	orrcs.w	r1, r1, #2147483648	; 0x80000000
 80006a6:	bd30      	pop	{r4, r5, pc}
 80006a8:	f514 0480 	adds.w	r4, r4, #4194304	; 0x400000
 80006ac:	bf3c      	itt	cc
 80006ae:	f501 1180 	addcc.w	r1, r1, #1048576	; 0x100000
 80006b2:	bd30      	popcc	{r4, r5, pc}
 80006b4:	f001 4500 	and.w	r5, r1, #2147483648	; 0x80000000
 80006b8:	f045 41fe 	orr.w	r1, r5, #2130706432	; 0x7f000000
 80006bc:	f441 0170 	orr.w	r1, r1, #15728640	; 0xf00000
 80006c0:	f04f 0000 	mov.w	r0, #0
 80006c4:	bd30      	pop	{r4, r5, pc}
 80006c6:	ea7f 5c64 	mvns.w	ip, r4, asr #21
 80006ca:	bf1a      	itte	ne
 80006cc:	4619      	movne	r1, r3
 80006ce:	4610      	movne	r0, r2
 80006d0:	ea7f 5c65 	mvnseq.w	ip, r5, asr #21
 80006d4:	bf1c      	itt	ne
 80006d6:	460b      	movne	r3, r1
 80006d8:	4602      	movne	r2, r0
 80006da:	ea50 3401 	orrs.w	r4, r0, r1, lsl #12
 80006de:	bf06      	itte	eq
 80006e0:	ea52 3503 	orrseq.w	r5, r2, r3, lsl #12
 80006e4:	ea91 0f03 	teqeq	r1, r3
 80006e8:	f441 2100 	orrne.w	r1, r1, #524288	; 0x80000
 80006ec:	bd30      	pop	{r4, r5, pc}
 80006ee:	bf00      	nop

080006f0 <__aeabi_ui2d>:
 80006f0:	f090 0f00 	teq	r0, #0
 80006f4:	bf04      	itt	eq
 80006f6:	2100      	moveq	r1, #0
 80006f8:	4770      	bxeq	lr
 80006fa:	b530      	push	{r4, r5, lr}
 80006fc:	f44f 6480 	mov.w	r4, #1024	; 0x400
 8000700:	f104 0432 	add.w	r4, r4, #50	; 0x32
 8000704:	f04f 0500 	mov.w	r5, #0
 8000708:	f04f 0100 	mov.w	r1, #0
 800070c:	e750      	b.n	80005b0 <__adddf3+0x138>
 800070e:	bf00      	nop

08000710 <__aeabi_i2d>:
 8000710:	f090 0f00 	teq	r0, #0
 8000714:	bf04      	itt	eq
 8000716:	2100      	moveq	r1, #0
 8000718:	4770      	bxeq	lr
 800071a:	b530      	push	{r4, r5, lr}
 800071c:	f44f 6480 	mov.w	r4, #1024	; 0x400
 8000720:	f104 0432 	add.w	r4, r4, #50	; 0x32
 8000724:	f010 4500 	ands.w	r5, r0, #2147483648	; 0x80000000
 8000728:	bf48      	it	mi
 800072a:	4240      	negmi	r0, r0
 800072c:	f04f 0100 	mov.w	r1, #0
 8000730:	e73e      	b.n	80005b0 <__adddf3+0x138>
 8000732:	bf00      	nop

08000734 <__aeabi_f2d>:
 8000734:	0042      	lsls	r2, r0, #1
 8000736:	ea4f 01e2 	mov.w	r1, r2, asr #3
 800073a:	ea4f 0131 	mov.w	r1, r1, rrx
 800073e:	ea4f 7002 	mov.w	r0, r2, lsl #28
 8000742:	bf1f      	itttt	ne
 8000744:	f012 437f 	andsne.w	r3, r2, #4278190080	; 0xff000000
 8000748:	f093 4f7f 	teqne	r3, #4278190080	; 0xff000000
 800074c:	f081 5160 	eorne.w	r1, r1, #939524096	; 0x38000000
 8000750:	4770      	bxne	lr
 8000752:	f032 427f 	bics.w	r2, r2, #4278190080	; 0xff000000
 8000756:	bf08      	it	eq
 8000758:	4770      	bxeq	lr
 800075a:	f093 4f7f 	teq	r3, #4278190080	; 0xff000000
 800075e:	bf04      	itt	eq
 8000760:	f441 2100 	orreq.w	r1, r1, #524288	; 0x80000
 8000764:	4770      	bxeq	lr
 8000766:	b530      	push	{r4, r5, lr}
 8000768:	f44f 7460 	mov.w	r4, #896	; 0x380
 800076c:	f001 4500 	and.w	r5, r1, #2147483648	; 0x80000000
 8000770:	f021 4100 	bic.w	r1, r1, #2147483648	; 0x80000000
 8000774:	e71c      	b.n	80005b0 <__adddf3+0x138>
 8000776:	bf00      	nop

08000778 <__aeabi_ul2d>:
 8000778:	ea50 0201 	orrs.w	r2, r0, r1
 800077c:	bf08      	it	eq
 800077e:	4770      	bxeq	lr
 8000780:	b530      	push	{r4, r5, lr}
 8000782:	f04f 0500 	mov.w	r5, #0
 8000786:	e00a      	b.n	800079e <__aeabi_l2d+0x16>

08000788 <__aeabi_l2d>:
 8000788:	ea50 0201 	orrs.w	r2, r0, r1
 800078c:	bf08      	it	eq
 800078e:	4770      	bxeq	lr
 8000790:	b530      	push	{r4, r5, lr}
 8000792:	f011 4500 	ands.w	r5, r1, #2147483648	; 0x80000000
 8000796:	d502      	bpl.n	800079e <__aeabi_l2d+0x16>
 8000798:	4240      	negs	r0, r0
 800079a:	eb61 0141 	sbc.w	r1, r1, r1, lsl #1
 800079e:	f44f 6480 	mov.w	r4, #1024	; 0x400
 80007a2:	f104 0432 	add.w	r4, r4, #50	; 0x32
 80007a6:	ea5f 5c91 	movs.w	ip, r1, lsr #22
 80007aa:	f43f aed8 	beq.w	800055e <__adddf3+0xe6>
 80007ae:	f04f 0203 	mov.w	r2, #3
 80007b2:	ea5f 0cdc 	movs.w	ip, ip, lsr #3
 80007b6:	bf18      	it	ne
 80007b8:	3203      	addne	r2, #3
 80007ba:	ea5f 0cdc 	movs.w	ip, ip, lsr #3
 80007be:	bf18      	it	ne
 80007c0:	3203      	addne	r2, #3
 80007c2:	eb02 02dc 	add.w	r2, r2, ip, lsr #3
 80007c6:	f1c2 0320 	rsb	r3, r2, #32
 80007ca:	fa00 fc03 	lsl.w	ip, r0, r3
 80007ce:	fa20 f002 	lsr.w	r0, r0, r2
 80007d2:	fa01 fe03 	lsl.w	lr, r1, r3
 80007d6:	ea40 000e 	orr.w	r0, r0, lr
 80007da:	fa21 f102 	lsr.w	r1, r1, r2
 80007de:	4414      	add	r4, r2
 80007e0:	e6bd      	b.n	800055e <__adddf3+0xe6>
 80007e2:	bf00      	nop

080007e4 <__aeabi_d2uiz>:
 80007e4:	004a      	lsls	r2, r1, #1
 80007e6:	d211      	bcs.n	800080c <__aeabi_d2uiz+0x28>
 80007e8:	f512 1200 	adds.w	r2, r2, #2097152	; 0x200000
 80007ec:	d211      	bcs.n	8000812 <__aeabi_d2uiz+0x2e>
 80007ee:	d50d      	bpl.n	800080c <__aeabi_d2uiz+0x28>
 80007f0:	f46f 7378 	mvn.w	r3, #992	; 0x3e0
 80007f4:	ebb3 5262 	subs.w	r2, r3, r2, asr #21
 80007f8:	d40e      	bmi.n	8000818 <__aeabi_d2uiz+0x34>
 80007fa:	ea4f 23c1 	mov.w	r3, r1, lsl #11
 80007fe:	f043 4300 	orr.w	r3, r3, #2147483648	; 0x80000000
 8000802:	ea43 5350 	orr.w	r3, r3, r0, lsr #21
 8000806:	fa23 f002 	lsr.w	r0, r3, r2
 800080a:	4770      	bx	lr
 800080c:	f04f 0000 	mov.w	r0, #0
 8000810:	4770      	bx	lr
 8000812:	ea50 3001 	orrs.w	r0, r0, r1, lsl #12
 8000816:	d102      	bne.n	800081e <__aeabi_d2uiz+0x3a>
 8000818:	f04f 30ff 	mov.w	r0, #4294967295
 800081c:	4770      	bx	lr
 800081e:	f04f 0000 	mov.w	r0, #0
 8000822:	4770      	bx	lr

08000824 <LL_SPI_SetStandard>:
 8000824:	b480      	push	{r7}
 8000826:	b083      	sub	sp, #12
 8000828:	af00      	add	r7, sp, #0
 800082a:	6078      	str	r0, [r7, #4]
 800082c:	6039      	str	r1, [r7, #0]
 800082e:	687b      	ldr	r3, [r7, #4]
 8000830:	685b      	ldr	r3, [r3, #4]
 8000832:	f023 0210 	bic.w	r2, r3, #16
 8000836:	683b      	ldr	r3, [r7, #0]
 8000838:	431a      	orrs	r2, r3
 800083a:	687b      	ldr	r3, [r7, #4]
 800083c:	605a      	str	r2, [r3, #4]
 800083e:	bf00      	nop
 8000840:	370c      	adds	r7, #12
 8000842:	46bd      	mov	sp, r7
 8000844:	f85d 7b04 	ldr.w	r7, [sp], #4
 8000848:	4770      	bx	lr

0800084a <LL_SPI_DisableNSSPulseMgt>:
 800084a:	b480      	push	{r7}
 800084c:	b083      	sub	sp, #12
 800084e:	af00      	add	r7, sp, #0
 8000850:	6078      	str	r0, [r7, #4]
 8000852:	687b      	ldr	r3, [r7, #4]
 8000854:	685b      	ldr	r3, [r3, #4]
 8000856:	f023 0208 	bic.w	r2, r3, #8
 800085a:	687b      	ldr	r3, [r7, #4]
 800085c:	605a      	str	r2, [r3, #4]
 800085e:	bf00      	nop
 8000860:	370c      	adds	r7, #12
 8000862:	46bd      	mov	sp, r7
 8000864:	f85d 7b04 	ldr.w	r7, [sp], #4
 8000868:	4770      	bx	lr
	...

0800086c <LL_AHB1_GRP1_EnableClock>:
 800086c:	b480      	push	{r7}
 800086e:	b085      	sub	sp, #20
 8000870:	af00      	add	r7, sp, #0
 8000872:	6078      	str	r0, [r7, #4]
 8000874:	4b08      	ldr	r3, [pc, #32]	; (8000898 <LL_AHB1_GRP1_EnableClock+0x2c>)
 8000876:	6c9a      	ldr	r2, [r3, #72]	; 0x48
 8000878:	4907      	ldr	r1, [pc, #28]	; (8000898 <LL_AHB1_GRP1_EnableClock+0x2c>)
 800087a:	687b      	ldr	r3, [r7, #4]
 800087c:	4313      	orrs	r3, r2
 800087e:	648b      	str	r3, [r1, #72]	; 0x48
 8000880:	4b05      	ldr	r3, [pc, #20]	; (8000898 <LL_AHB1_GRP1_EnableClock+0x2c>)
 8000882:	6c9a      	ldr	r2, [r3, #72]	; 0x48
 8000884:	687b      	ldr	r3, [r7, #4]
 8000886:	4013      	ands	r3, r2
 8000888:	60fb      	str	r3, [r7, #12]
 800088a:	68fb      	ldr	r3, [r7, #12]
 800088c:	bf00      	nop
 800088e:	3714      	adds	r7, #20
 8000890:	46bd      	mov	sp, r7
 8000892:	f85d 7b04 	ldr.w	r7, [sp], #4
 8000896:	4770      	bx	lr
 8000898:	40021000 	.word	0x40021000

0800089c <LL_AHB2_GRP1_EnableClock>:
 800089c:	b480      	push	{r7}
 800089e:	b085      	sub	sp, #20
 80008a0:	af00      	add	r7, sp, #0
 80008a2:	6078      	str	r0, [r7, #4]
 80008a4:	4b08      	ldr	r3, [pc, #32]	; (80008c8 <LL_AHB2_GRP1_EnableClock+0x2c>)
 80008a6:	6cda      	ldr	r2, [r3, #76]	; 0x4c
 80008a8:	4907      	ldr	r1, [pc, #28]	; (80008c8 <LL_AHB2_GRP1_EnableClock+0x2c>)
 80008aa:	687b      	ldr	r3, [r7, #4]
 80008ac:	4313      	orrs	r3, r2
 80008ae:	64cb      	str	r3, [r1, #76]	; 0x4c
 80008b0:	4b05      	ldr	r3, [pc, #20]	; (80008c8 <LL_AHB2_GRP1_EnableClock+0x2c>)
 80008b2:	6cda      	ldr	r2, [r3, #76]	; 0x4c
 80008b4:	687b      	ldr	r3, [r7, #4]
 80008b6:	4013      	ands	r3, r2
 80008b8:	60fb      	str	r3, [r7, #12]
 80008ba:	68fb      	ldr	r3, [r7, #12]
 80008bc:	bf00      	nop
 80008be:	3714      	adds	r7, #20
 80008c0:	46bd      	mov	sp, r7
 80008c2:	f85d 7b04 	ldr.w	r7, [sp], #4
 80008c6:	4770      	bx	lr
 80008c8:	40021000 	.word	0x40021000

080008cc <LL_APB1_GRP1_EnableClock>:
 80008cc:	b480      	push	{r7}
 80008ce:	b085      	sub	sp, #20
 80008d0:	af00      	add	r7, sp, #0
 80008d2:	6078      	str	r0, [r7, #4]
 80008d4:	4b08      	ldr	r3, [pc, #32]	; (80008f8 <LL_APB1_GRP1_EnableClock+0x2c>)
 80008d6:	6d9a      	ldr	r2, [r3, #88]	; 0x58
 80008d8:	4907      	ldr	r1, [pc, #28]	; (80008f8 <LL_APB1_GRP1_EnableClock+0x2c>)
 80008da:	687b      	ldr	r3, [r7, #4]
 80008dc:	4313      	orrs	r3, r2
 80008de:	658b      	str	r3, [r1, #88]	; 0x58
 80008e0:	4b05      	ldr	r3, [pc, #20]	; (80008f8 <LL_APB1_GRP1_EnableClock+0x2c>)
 80008e2:	6d9a      	ldr	r2, [r3, #88]	; 0x58
 80008e4:	687b      	ldr	r3, [r7, #4]
 80008e6:	4013      	ands	r3, r2
 80008e8:	60fb      	str	r3, [r7, #12]
 80008ea:	68fb      	ldr	r3, [r7, #12]
 80008ec:	bf00      	nop
 80008ee:	3714      	adds	r7, #20
 80008f0:	46bd      	mov	sp, r7
 80008f2:	f85d 7b04 	ldr.w	r7, [sp], #4
 80008f6:	4770      	bx	lr
 80008f8:	40021000 	.word	0x40021000
 80008fc:	00000000 	.word	0x00000000

08000900 <main>:
 8000900:	b580      	push	{r7, lr}
 8000902:	af00      	add	r7, sp, #0
 8000904:	f001 fab5 	bl	8001e72 <HAL_Init>
 8000908:	f000 f9be 	bl	8000c88 <SystemClock_Config>
 800090c:	f000 fe6c 	bl	80015e8 <MX_GPIO_Init>
 8000910:	f000 fe58 	bl	80015c4 <MX_DMA_Init>
 8000914:	f000 fa04 	bl	8000d20 <MX_ADC1_Init>
 8000918:	f000 fac2 	bl	8000ea0 <MX_ADC2_Init>
 800091c:	f000 fb5e 	bl	8000fdc <MX_COMP1_Init>
 8000920:	f000 fb82 	bl	8001028 <MX_COMP3_Init>
 8000924:	f000 fba6 	bl	8001074 <MX_COMP4_Init>
 8000928:	f000 fbca 	bl	80010c0 <MX_DAC3_Init>
 800092c:	f000 fc0c 	bl	8001148 <MX_OPAMP1_Init>
 8000930:	f000 fc32 	bl	8001198 <MX_OPAMP2_Init>
 8000934:	f000 fc56 	bl	80011e4 <MX_SPI3_Init>
 8000938:	f000 fccc 	bl	80012d4 <MX_TIM1_Init>
 800093c:	f000 fe1c 	bl	8001578 <MX_TIM16_Init>
 8000940:	f000 fdcc 	bl	80014dc <MX_TIM2_Init>
 8000944:	48ac      	ldr	r0, [pc, #688]	; (8000bf8 <main+0x2f8>)
 8000946:	f004 ff3f 	bl	80057c8 <HAL_OPAMP_Start>
 800094a:	48ac      	ldr	r0, [pc, #688]	; (8000bfc <main+0x2fc>)
 800094c:	f004 ff3c 	bl	80057c8 <HAL_OPAMP_Start>
 8000950:	4bab      	ldr	r3, [pc, #684]	; (8000c00 <main+0x300>)
 8000952:	881a      	ldrh	r2, [r3, #0]
 8000954:	4bab      	ldr	r3, [pc, #684]	; (8000c04 <main+0x304>)
 8000956:	609a      	str	r2, [r3, #8]
 8000958:	4baa      	ldr	r3, [pc, #680]	; (8000c04 <main+0x304>)
 800095a:	681b      	ldr	r3, [r3, #0]
 800095c:	4aa9      	ldr	r2, [pc, #676]	; (8000c04 <main+0x304>)
 800095e:	f043 0301 	orr.w	r3, r3, #1
 8000962:	6013      	str	r3, [r2, #0]
 8000964:	bf00      	nop
 8000966:	4ba7      	ldr	r3, [pc, #668]	; (8000c04 <main+0x304>)
 8000968:	6b5b      	ldr	r3, [r3, #52]	; 0x34
 800096a:	f403 6300 	and.w	r3, r3, #2048	; 0x800
 800096e:	2b00      	cmp	r3, #0
 8000970:	d0f9      	beq.n	8000966 <main+0x66>
 8000972:	4ba4      	ldr	r3, [pc, #656]	; (8000c04 <main+0x304>)
 8000974:	685b      	ldr	r3, [r3, #4]
 8000976:	4aa3      	ldr	r2, [pc, #652]	; (8000c04 <main+0x304>)
 8000978:	f043 0301 	orr.w	r3, r3, #1
 800097c:	6053      	str	r3, [r2, #4]
 800097e:	4ba2      	ldr	r3, [pc, #648]	; (8000c08 <main+0x308>)
 8000980:	881a      	ldrh	r2, [r3, #0]
 8000982:	4ba0      	ldr	r3, [pc, #640]	; (8000c04 <main+0x304>)
 8000984:	615a      	str	r2, [r3, #20]
 8000986:	4b9f      	ldr	r3, [pc, #636]	; (8000c04 <main+0x304>)
 8000988:	681b      	ldr	r3, [r3, #0]
 800098a:	4a9e      	ldr	r2, [pc, #632]	; (8000c04 <main+0x304>)
 800098c:	f443 3380 	orr.w	r3, r3, #65536	; 0x10000
 8000990:	6013      	str	r3, [r2, #0]
 8000992:	bf00      	nop
 8000994:	4b9b      	ldr	r3, [pc, #620]	; (8000c04 <main+0x304>)
 8000996:	6b5b      	ldr	r3, [r3, #52]	; 0x34
 8000998:	f003 6300 	and.w	r3, r3, #134217728	; 0x8000000
 800099c:	2b00      	cmp	r3, #0
 800099e:	d0f9      	beq.n	8000994 <main+0x94>
 80009a0:	4b98      	ldr	r3, [pc, #608]	; (8000c04 <main+0x304>)
 80009a2:	685b      	ldr	r3, [r3, #4]
 80009a4:	4a97      	ldr	r2, [pc, #604]	; (8000c04 <main+0x304>)
 80009a6:	f043 0302 	orr.w	r3, r3, #2
 80009aa:	6053      	str	r3, [r2, #4]
 80009ac:	217f      	movs	r1, #127	; 0x7f
 80009ae:	4897      	ldr	r0, [pc, #604]	; (8000c0c <main+0x30c>)
 80009b0:	f002 fde8 	bl	8003584 <HAL_ADCEx_Calibration_Start>
 80009b4:	217f      	movs	r1, #127	; 0x7f
 80009b6:	4896      	ldr	r0, [pc, #600]	; (8000c10 <main+0x310>)
 80009b8:	f002 fde4 	bl	8003584 <HAL_ADCEx_Calibration_Start>
 80009bc:	4b95      	ldr	r3, [pc, #596]	; (8000c14 <main+0x314>)
 80009be:	4a96      	ldr	r2, [pc, #600]	; (8000c18 <main+0x318>)
 80009c0:	601a      	str	r2, [r3, #0]
 80009c2:	4b96      	ldr	r3, [pc, #600]	; (8000c1c <main+0x31c>)
 80009c4:	4a96      	ldr	r2, [pc, #600]	; (8000c20 <main+0x320>)
 80009c6:	601a      	str	r2, [r3, #0]
 80009c8:	4b96      	ldr	r3, [pc, #600]	; (8000c24 <main+0x324>)
 80009ca:	4a97      	ldr	r2, [pc, #604]	; (8000c28 <main+0x328>)
 80009cc:	601a      	str	r2, [r3, #0]
 80009ce:	4897      	ldr	r0, [pc, #604]	; (8000c2c <main+0x32c>)
 80009d0:	f003 ff90 	bl	80048f4 <HAL_COMP_Start>
 80009d4:	4896      	ldr	r0, [pc, #600]	; (8000c30 <main+0x330>)
 80009d6:	f003 ff8d 	bl	80048f4 <HAL_COMP_Start>
 80009da:	4896      	ldr	r0, [pc, #600]	; (8000c34 <main+0x334>)
 80009dc:	f003 ff8a 	bl	80048f4 <HAL_COMP_Start>
 80009e0:	2201      	movs	r2, #1
 80009e2:	4995      	ldr	r1, [pc, #596]	; (8000c38 <main+0x338>)
 80009e4:	4889      	ldr	r0, [pc, #548]	; (8000c0c <main+0x30c>)
 80009e6:	f002 ffa3 	bl	8003930 <HAL_ADCEx_MultiModeStart_DMA>
 80009ea:	4603      	mov	r3, r0
 80009ec:	2b00      	cmp	r3, #0
 80009ee:	d001      	beq.n	80009f4 <main+0xf4>
 80009f0:	f000 fee2 	bl	80017b8 <Error_Handler>
 80009f4:	4b91      	ldr	r3, [pc, #580]	; (8000c3c <main+0x33c>)
 80009f6:	681b      	ldr	r3, [r3, #0]
 80009f8:	4a90      	ldr	r2, [pc, #576]	; (8000c3c <main+0x33c>)
 80009fa:	f043 0340 	orr.w	r3, r3, #64	; 0x40
 80009fe:	6013      	str	r3, [r2, #0]
 8000a00:	2200      	movs	r2, #0
 8000a02:	2180      	movs	r1, #128	; 0x80
 8000a04:	488e      	ldr	r0, [pc, #568]	; (8000c40 <main+0x340>)
 8000a06:	f004 fddd 	bl	80055c4 <HAL_GPIO_WritePin>
 8000a0a:	4b82      	ldr	r3, [pc, #520]	; (8000c14 <main+0x314>)
 8000a0c:	681b      	ldr	r3, [r3, #0]
 8000a0e:	781b      	ldrb	r3, [r3, #0]
 8000a10:	2b01      	cmp	r3, #1
 8000a12:	d1fa      	bne.n	8000a0a <main+0x10a>
 8000a14:	4b8b      	ldr	r3, [pc, #556]	; (8000c44 <main+0x344>)
 8000a16:	781b      	ldrb	r3, [r3, #0]
 8000a18:	2b00      	cmp	r3, #0
 8000a1a:	d10a      	bne.n	8000a32 <main+0x132>
 8000a1c:	2104      	movs	r1, #4
 8000a1e:	488a      	ldr	r0, [pc, #552]	; (8000c48 <main+0x348>)
 8000a20:	f005 ff68 	bl	80068f4 <HAL_TIM_PWM_Start_IT>
 8000a24:	2104      	movs	r1, #4
 8000a26:	4888      	ldr	r0, [pc, #544]	; (8000c48 <main+0x348>)
 8000a28:	f007 f912 	bl	8007c50 <HAL_TIMEx_PWMN_Start_IT>
 8000a2c:	4b85      	ldr	r3, [pc, #532]	; (8000c44 <main+0x344>)
 8000a2e:	2201      	movs	r2, #1
 8000a30:	701a      	strb	r2, [r3, #0]
 8000a32:	f44f 7180 	mov.w	r1, #256	; 0x100
 8000a36:	4882      	ldr	r0, [pc, #520]	; (8000c40 <main+0x340>)
 8000a38:	f004 fddc 	bl	80055f4 <HAL_GPIO_TogglePin>
 8000a3c:	4b83      	ldr	r3, [pc, #524]	; (8000c4c <main+0x34c>)
 8000a3e:	781b      	ldrb	r3, [r3, #0]
 8000a40:	2b01      	cmp	r3, #1
 8000a42:	d156      	bne.n	8000af2 <main+0x1f2>
 8000a44:	4b7c      	ldr	r3, [pc, #496]	; (8000c38 <main+0x338>)
 8000a46:	681b      	ldr	r3, [r3, #0]
 8000a48:	4618      	mov	r0, r3
 8000a4a:	f000 fe6b 	bl	8001724 <GetMSB>
 8000a4e:	4603      	mov	r3, r0
 8000a50:	461a      	mov	r2, r3
 8000a52:	f640 43da 	movw	r3, #3290	; 0xcda
 8000a56:	fb02 f303 	mul.w	r3, r2, r3
 8000a5a:	4a7d      	ldr	r2, [pc, #500]	; (8000c50 <main+0x350>)
 8000a5c:	fb82 1203 	smull	r1, r2, r2, r3
 8000a60:	441a      	add	r2, r3
 8000a62:	12d2      	asrs	r2, r2, #11
 8000a64:	17db      	asrs	r3, r3, #31
 8000a66:	1ad3      	subs	r3, r2, r3
 8000a68:	b29a      	uxth	r2, r3
 8000a6a:	4b7a      	ldr	r3, [pc, #488]	; (8000c54 <main+0x354>)
 8000a6c:	801a      	strh	r2, [r3, #0]
 8000a6e:	4b72      	ldr	r3, [pc, #456]	; (8000c38 <main+0x338>)
 8000a70:	681b      	ldr	r3, [r3, #0]
 8000a72:	4618      	mov	r0, r3
 8000a74:	f000 fe4a 	bl	800170c <GetLSB>
 8000a78:	4603      	mov	r3, r0
 8000a7a:	461a      	mov	r2, r3
 8000a7c:	f640 43da 	movw	r3, #3290	; 0xcda
 8000a80:	fb02 f303 	mul.w	r3, r2, r3
 8000a84:	4a72      	ldr	r2, [pc, #456]	; (8000c50 <main+0x350>)
 8000a86:	fb82 1203 	smull	r1, r2, r2, r3
 8000a8a:	441a      	add	r2, r3
 8000a8c:	12d2      	asrs	r2, r2, #11
 8000a8e:	17db      	asrs	r3, r3, #31
 8000a90:	1ad3      	subs	r3, r2, r3
 8000a92:	b29a      	uxth	r2, r3
 8000a94:	4b70      	ldr	r3, [pc, #448]	; (8000c58 <main+0x358>)
 8000a96:	801a      	strh	r2, [r3, #0]
 8000a98:	4b63      	ldr	r3, [pc, #396]	; (8000c28 <main+0x328>)
 8000a9a:	881a      	ldrh	r2, [r3, #0]
 8000a9c:	4b60      	ldr	r3, [pc, #384]	; (8000c20 <main+0x320>)
 8000a9e:	801a      	strh	r2, [r3, #0]
 8000aa0:	4b61      	ldr	r3, [pc, #388]	; (8000c28 <main+0x328>)
 8000aa2:	885a      	ldrh	r2, [r3, #2]
 8000aa4:	4b5e      	ldr	r3, [pc, #376]	; (8000c20 <main+0x320>)
 8000aa6:	805a      	strh	r2, [r3, #2]
 8000aa8:	4b5f      	ldr	r3, [pc, #380]	; (8000c28 <main+0x328>)
 8000aaa:	889a      	ldrh	r2, [r3, #4]
 8000aac:	4b5c      	ldr	r3, [pc, #368]	; (8000c20 <main+0x320>)
 8000aae:	809a      	strh	r2, [r3, #4]
 8000ab0:	4b5a      	ldr	r3, [pc, #360]	; (8000c1c <main+0x31c>)
 8000ab2:	6819      	ldr	r1, [r3, #0]
 8000ab4:	4b5b      	ldr	r3, [pc, #364]	; (8000c24 <main+0x324>)
 8000ab6:	681a      	ldr	r2, [r3, #0]
 8000ab8:	2303      	movs	r3, #3
 8000aba:	4860      	ldr	r0, [pc, #384]	; (8000c3c <main+0x33c>)
 8000abc:	f000 fe3f 	bl	800173e <SPIx_Transfer2>
 8000ac0:	4853      	ldr	r0, [pc, #332]	; (8000c10 <main+0x310>)
 8000ac2:	f002 fdc1 	bl	8003648 <HAL_ADCEx_InjectedStart>
 8000ac6:	4851      	ldr	r0, [pc, #324]	; (8000c0c <main+0x30c>)
 8000ac8:	f002 fdbe 	bl	8003648 <HAL_ADCEx_InjectedStart>
 8000acc:	4b56      	ldr	r3, [pc, #344]	; (8000c28 <main+0x328>)
 8000ace:	881a      	ldrh	r2, [r3, #0]
 8000ad0:	4b62      	ldr	r3, [pc, #392]	; (8000c5c <main+0x35c>)
 8000ad2:	801a      	strh	r2, [r3, #0]
 8000ad4:	4b54      	ldr	r3, [pc, #336]	; (8000c28 <main+0x328>)
 8000ad6:	885a      	ldrh	r2, [r3, #2]
 8000ad8:	4b61      	ldr	r3, [pc, #388]	; (8000c60 <main+0x360>)
 8000ada:	801a      	strh	r2, [r3, #0]
 8000adc:	4b52      	ldr	r3, [pc, #328]	; (8000c28 <main+0x328>)
 8000ade:	889a      	ldrh	r2, [r3, #4]
 8000ae0:	4b60      	ldr	r3, [pc, #384]	; (8000c64 <main+0x364>)
 8000ae2:	801a      	strh	r2, [r3, #0]
 8000ae4:	4b59      	ldr	r3, [pc, #356]	; (8000c4c <main+0x34c>)
 8000ae6:	781b      	ldrb	r3, [r3, #0]
 8000ae8:	3301      	adds	r3, #1
 8000aea:	b2da      	uxtb	r2, r3
 8000aec:	4b57      	ldr	r3, [pc, #348]	; (8000c4c <main+0x34c>)
 8000aee:	701a      	strb	r2, [r3, #0]
 8000af0:	e079      	b.n	8000be6 <main+0x2e6>
 8000af2:	4b56      	ldr	r3, [pc, #344]	; (8000c4c <main+0x34c>)
 8000af4:	2201      	movs	r2, #1
 8000af6:	701a      	strb	r2, [r3, #0]
 8000af8:	2101      	movs	r1, #1
 8000afa:	4845      	ldr	r0, [pc, #276]	; (8000c10 <main+0x310>)
 8000afc:	f002 fe54 	bl	80037a8 <HAL_ADCEx_InjectedPollForConversion>
 8000b00:	2101      	movs	r1, #1
 8000b02:	4842      	ldr	r0, [pc, #264]	; (8000c0c <main+0x30c>)
 8000b04:	f002 fe50 	bl	80037a8 <HAL_ADCEx_InjectedPollForConversion>
 8000b08:	2109      	movs	r1, #9
 8000b0a:	4840      	ldr	r0, [pc, #256]	; (8000c0c <main+0x30c>)
 8000b0c:	f002 ffb2 	bl	8003a74 <HAL_ADCEx_InjectedGetValue>
 8000b10:	4603      	mov	r3, r0
 8000b12:	f640 42da 	movw	r2, #3290	; 0xcda
 8000b16:	fb02 f303 	mul.w	r3, r2, r3
 8000b1a:	4a53      	ldr	r2, [pc, #332]	; (8000c68 <main+0x368>)
 8000b1c:	fba2 2303 	umull	r2, r3, r2, r3
 8000b20:	099b      	lsrs	r3, r3, #6
 8000b22:	461a      	mov	r2, r3
 8000b24:	4b51      	ldr	r3, [pc, #324]	; (8000c6c <main+0x36c>)
 8000b26:	881b      	ldrh	r3, [r3, #0]
 8000b28:	1ad3      	subs	r3, r2, r3
 8000b2a:	2264      	movs	r2, #100	; 0x64
 8000b2c:	fb03 f202 	mul.w	r2, r3, r2
 8000b30:	4b4f      	ldr	r3, [pc, #316]	; (8000c70 <main+0x370>)
 8000b32:	881b      	ldrh	r3, [r3, #0]
 8000b34:	4619      	mov	r1, r3
 8000b36:	4b4d      	ldr	r3, [pc, #308]	; (8000c6c <main+0x36c>)
 8000b38:	881b      	ldrh	r3, [r3, #0]
 8000b3a:	1acb      	subs	r3, r1, r3
 8000b3c:	fb92 f3f3 	sdiv	r3, r2, r3
 8000b40:	b29b      	uxth	r3, r3
 8000b42:	331e      	adds	r3, #30
 8000b44:	b29a      	uxth	r2, r3
 8000b46:	4b4b      	ldr	r3, [pc, #300]	; (8000c74 <main+0x374>)
 8000b48:	801a      	strh	r2, [r3, #0]
 8000b4a:	f240 110f 	movw	r1, #271	; 0x10f
 8000b4e:	4830      	ldr	r0, [pc, #192]	; (8000c10 <main+0x310>)
 8000b50:	f002 ff90 	bl	8003a74 <HAL_ADCEx_InjectedGetValue>
 8000b54:	4603      	mov	r3, r0
 8000b56:	f640 42da 	movw	r2, #3290	; 0xcda
 8000b5a:	fb03 f202 	mul.w	r2, r3, r2
 8000b5e:	4b46      	ldr	r3, [pc, #280]	; (8000c78 <main+0x378>)
 8000b60:	fba3 1302 	umull	r1, r3, r3, r2
 8000b64:	1ad2      	subs	r2, r2, r3
 8000b66:	0852      	lsrs	r2, r2, #1
 8000b68:	4413      	add	r3, r2
 8000b6a:	0adb      	lsrs	r3, r3, #11
 8000b6c:	4618      	mov	r0, r3
 8000b6e:	f7ff fdbf 	bl	80006f0 <__aeabi_ui2d>
 8000b72:	a31f      	add	r3, pc, #124	; (adr r3, 8000bf0 <main+0x2f0>)
 8000b74:	e9d3 2300 	ldrd	r2, r3, [r3]
 8000b78:	f7ff fb4e 	bl	8000218 <__aeabi_dmul>
 8000b7c:	4602      	mov	r2, r0
 8000b7e:	460b      	mov	r3, r1
 8000b80:	4610      	mov	r0, r2
 8000b82:	4619      	mov	r1, r3
 8000b84:	f7ff fe2e 	bl	80007e4 <__aeabi_d2uiz>
 8000b88:	4603      	mov	r3, r0
 8000b8a:	b29a      	uxth	r2, r3
 8000b8c:	4b3b      	ldr	r3, [pc, #236]	; (8000c7c <main+0x37c>)
 8000b8e:	801a      	strh	r2, [r3, #0]
 8000b90:	f240 110f 	movw	r1, #271	; 0x10f
 8000b94:	481d      	ldr	r0, [pc, #116]	; (8000c0c <main+0x30c>)
 8000b96:	f002 ff6d 	bl	8003a74 <HAL_ADCEx_InjectedGetValue>
 8000b9a:	4603      	mov	r3, r0
 8000b9c:	f640 42da 	movw	r2, #3290	; 0xcda
 8000ba0:	fb03 f202 	mul.w	r2, r3, r2
 8000ba4:	4b34      	ldr	r3, [pc, #208]	; (8000c78 <main+0x378>)
 8000ba6:	fba3 1302 	umull	r1, r3, r3, r2
 8000baa:	1ad2      	subs	r2, r2, r3
 8000bac:	0852      	lsrs	r2, r2, #1
 8000bae:	4413      	add	r3, r2
 8000bb0:	0adb      	lsrs	r3, r3, #11
 8000bb2:	b29b      	uxth	r3, r3
 8000bb4:	461a      	mov	r2, r3
 8000bb6:	0052      	lsls	r2, r2, #1
 8000bb8:	4413      	add	r3, r2
 8000bba:	b29a      	uxth	r2, r3
 8000bbc:	4b30      	ldr	r3, [pc, #192]	; (8000c80 <main+0x380>)
 8000bbe:	801a      	strh	r2, [r3, #0]
 8000bc0:	2109      	movs	r1, #9
 8000bc2:	4813      	ldr	r0, [pc, #76]	; (8000c10 <main+0x310>)
 8000bc4:	f002 ff56 	bl	8003a74 <HAL_ADCEx_InjectedGetValue>
 8000bc8:	4603      	mov	r3, r0
 8000bca:	f640 42da 	movw	r2, #3290	; 0xcda
 8000bce:	fb03 f202 	mul.w	r2, r3, r2
 8000bd2:	4b29      	ldr	r3, [pc, #164]	; (8000c78 <main+0x378>)
 8000bd4:	fba3 1302 	umull	r1, r3, r3, r2
 8000bd8:	1ad2      	subs	r2, r2, r3
 8000bda:	0852      	lsrs	r2, r2, #1
 8000bdc:	4413      	add	r3, r2
 8000bde:	0adb      	lsrs	r3, r3, #11
 8000be0:	b29a      	uxth	r2, r3
 8000be2:	4b28      	ldr	r3, [pc, #160]	; (8000c84 <main+0x384>)
 8000be4:	801a      	strh	r2, [r3, #0]
 8000be6:	4b0b      	ldr	r3, [pc, #44]	; (8000c14 <main+0x314>)
 8000be8:	681b      	ldr	r3, [r3, #0]
 8000bea:	2200      	movs	r2, #0
 8000bec:	701a      	strb	r2, [r3, #0]
 8000bee:	e70c      	b.n	8000a0a <main+0x10a>
 8000bf0:	0a3d70a4 	.word	0x0a3d70a4
 8000bf4:	4006a3d7 	.word	0x4006a3d7
 8000bf8:	200001e8 	.word	0x200001e8
 8000bfc:	20000224 	.word	0x20000224
 8000c00:	20000000 	.word	0x20000000
 8000c04:	50001000 	.word	0x50001000
 8000c08:	20000002 	.word	0x20000002
 8000c0c:	20000030 	.word	0x20000030
 8000c10:	2000009c 	.word	0x2000009c
 8000c14:	20000358 	.word	0x20000358
 8000c18:	20000354 	.word	0x20000354
 8000c1c:	2000036c 	.word	0x2000036c
 8000c20:	2000035c 	.word	0x2000035c
 8000c24:	20000370 	.word	0x20000370
 8000c28:	20000364 	.word	0x20000364
 8000c2c:	20000168 	.word	0x20000168
 8000c30:	2000018c 	.word	0x2000018c
 8000c34:	200001b0 	.word	0x200001b0
 8000c38:	20000344 	.word	0x20000344
 8000c3c:	40003c00 	.word	0x40003c00
 8000c40:	48000400 	.word	0x48000400
 8000c44:	20000374 	.word	0x20000374
 8000c48:	20000260 	.word	0x20000260
 8000c4c:	20000004 	.word	0x20000004
 8000c50:	80080081 	.word	0x80080081
 8000c54:	20000348 	.word	0x20000348
 8000c58:	2000034a 	.word	0x2000034a
 8000c5c:	20000376 	.word	0x20000376
 8000c60:	20000378 	.word	0x20000378
 8000c64:	2000037a 	.word	0x2000037a
 8000c68:	057619f1 	.word	0x057619f1
 8000c6c:	1fff75a8 	.word	0x1fff75a8
 8000c70:	1fff75ca 	.word	0x1fff75ca
 8000c74:	20000352 	.word	0x20000352
 8000c78:	00100101 	.word	0x00100101
 8000c7c:	2000034c 	.word	0x2000034c
 8000c80:	2000034e 	.word	0x2000034e
 8000c84:	20000350 	.word	0x20000350

08000c88 <SystemClock_Config>:
 8000c88:	b580      	push	{r7, lr}
 8000c8a:	b094      	sub	sp, #80	; 0x50
 8000c8c:	af00      	add	r7, sp, #0
 8000c8e:	f107 0318 	add.w	r3, r7, #24
 8000c92:	2238      	movs	r2, #56	; 0x38
 8000c94:	2100      	movs	r1, #0
 8000c96:	4618      	mov	r0, r3
 8000c98:	f007 fdc2 	bl	8008820 <memset>
 8000c9c:	1d3b      	adds	r3, r7, #4
 8000c9e:	2200      	movs	r2, #0
 8000ca0:	601a      	str	r2, [r3, #0]
 8000ca2:	605a      	str	r2, [r3, #4]
 8000ca4:	609a      	str	r2, [r3, #8]
 8000ca6:	60da      	str	r2, [r3, #12]
 8000ca8:	611a      	str	r2, [r3, #16]
 8000caa:	2000      	movs	r0, #0
 8000cac:	f004 fdbe 	bl	800582c <HAL_PWREx_ControlVoltageScaling>
 8000cb0:	2302      	movs	r3, #2
 8000cb2:	61bb      	str	r3, [r7, #24]
 8000cb4:	f44f 7380 	mov.w	r3, #256	; 0x100
 8000cb8:	627b      	str	r3, [r7, #36]	; 0x24
 8000cba:	2340      	movs	r3, #64	; 0x40
 8000cbc:	62bb      	str	r3, [r7, #40]	; 0x28
 8000cbe:	2302      	movs	r3, #2
 8000cc0:	637b      	str	r3, [r7, #52]	; 0x34
 8000cc2:	2302      	movs	r3, #2
 8000cc4:	63bb      	str	r3, [r7, #56]	; 0x38
 8000cc6:	2304      	movs	r3, #4
 8000cc8:	63fb      	str	r3, [r7, #60]	; 0x3c
 8000cca:	2355      	movs	r3, #85	; 0x55
 8000ccc:	643b      	str	r3, [r7, #64]	; 0x40
 8000cce:	2306      	movs	r3, #6
 8000cd0:	647b      	str	r3, [r7, #68]	; 0x44
 8000cd2:	2302      	movs	r3, #2
 8000cd4:	64bb      	str	r3, [r7, #72]	; 0x48
 8000cd6:	2302      	movs	r3, #2
 8000cd8:	64fb      	str	r3, [r7, #76]	; 0x4c
 8000cda:	f107 0318 	add.w	r3, r7, #24
 8000cde:	4618      	mov	r0, r3
 8000ce0:	f004 fe58 	bl	8005994 <HAL_RCC_OscConfig>
 8000ce4:	4603      	mov	r3, r0
 8000ce6:	2b00      	cmp	r3, #0
 8000ce8:	d001      	beq.n	8000cee <SystemClock_Config+0x66>
 8000cea:	f000 fd65 	bl	80017b8 <Error_Handler>
 8000cee:	230f      	movs	r3, #15
 8000cf0:	607b      	str	r3, [r7, #4]
 8000cf2:	2303      	movs	r3, #3
 8000cf4:	60bb      	str	r3, [r7, #8]
 8000cf6:	2300      	movs	r3, #0
 8000cf8:	60fb      	str	r3, [r7, #12]
 8000cfa:	2300      	movs	r3, #0
 8000cfc:	613b      	str	r3, [r7, #16]
 8000cfe:	2300      	movs	r3, #0
 8000d00:	617b      	str	r3, [r7, #20]
 8000d02:	1d3b      	adds	r3, r7, #4
 8000d04:	2104      	movs	r1, #4
 8000d06:	4618      	mov	r0, r3
 8000d08:	f005 f95c 	bl	8005fc4 <HAL_RCC_ClockConfig>
 8000d0c:	4603      	mov	r3, r0
 8000d0e:	2b00      	cmp	r3, #0
 8000d10:	d001      	beq.n	8000d16 <SystemClock_Config+0x8e>
 8000d12:	f000 fd51 	bl	80017b8 <Error_Handler>
 8000d16:	bf00      	nop
 8000d18:	3750      	adds	r7, #80	; 0x50
 8000d1a:	46bd      	mov	sp, r7
 8000d1c:	bd80      	pop	{r7, pc}
	...

08000d20 <MX_ADC1_Init>:
 8000d20:	b580      	push	{r7, lr}
 8000d22:	b09a      	sub	sp, #104	; 0x68
 8000d24:	af00      	add	r7, sp, #0
 8000d26:	f107 035c 	add.w	r3, r7, #92	; 0x5c
 8000d2a:	2200      	movs	r2, #0
 8000d2c:	601a      	str	r2, [r3, #0]
 8000d2e:	605a      	str	r2, [r3, #4]
 8000d30:	609a      	str	r2, [r3, #8]
 8000d32:	f107 033c 	add.w	r3, r7, #60	; 0x3c
 8000d36:	2220      	movs	r2, #32
 8000d38:	2100      	movs	r1, #0
 8000d3a:	4618      	mov	r0, r3
 8000d3c:	f007 fd70 	bl	8008820 <memset>
 8000d40:	463b      	mov	r3, r7
 8000d42:	223c      	movs	r2, #60	; 0x3c
 8000d44:	2100      	movs	r1, #0
 8000d46:	4618      	mov	r0, r3
 8000d48:	f007 fd6a 	bl	8008820 <memset>
 8000d4c:	4b50      	ldr	r3, [pc, #320]	; (8000e90 <MX_ADC1_Init+0x170>)
 8000d4e:	f04f 42a0 	mov.w	r2, #1342177280	; 0x50000000
 8000d52:	601a      	str	r2, [r3, #0]
 8000d54:	4b4e      	ldr	r3, [pc, #312]	; (8000e90 <MX_ADC1_Init+0x170>)
 8000d56:	2200      	movs	r2, #0
 8000d58:	605a      	str	r2, [r3, #4]
 8000d5a:	4b4d      	ldr	r3, [pc, #308]	; (8000e90 <MX_ADC1_Init+0x170>)
 8000d5c:	2200      	movs	r2, #0
 8000d5e:	609a      	str	r2, [r3, #8]
 8000d60:	4b4b      	ldr	r3, [pc, #300]	; (8000e90 <MX_ADC1_Init+0x170>)
 8000d62:	2200      	movs	r2, #0
 8000d64:	60da      	str	r2, [r3, #12]
 8000d66:	4b4a      	ldr	r3, [pc, #296]	; (8000e90 <MX_ADC1_Init+0x170>)
 8000d68:	2200      	movs	r2, #0
 8000d6a:	611a      	str	r2, [r3, #16]
 8000d6c:	4b48      	ldr	r3, [pc, #288]	; (8000e90 <MX_ADC1_Init+0x170>)
 8000d6e:	2201      	movs	r2, #1
 8000d70:	615a      	str	r2, [r3, #20]
 8000d72:	4b47      	ldr	r3, [pc, #284]	; (8000e90 <MX_ADC1_Init+0x170>)
 8000d74:	2208      	movs	r2, #8
 8000d76:	619a      	str	r2, [r3, #24]
 8000d78:	4b45      	ldr	r3, [pc, #276]	; (8000e90 <MX_ADC1_Init+0x170>)
 8000d7a:	2200      	movs	r2, #0
 8000d7c:	771a      	strb	r2, [r3, #28]
 8000d7e:	4b44      	ldr	r3, [pc, #272]	; (8000e90 <MX_ADC1_Init+0x170>)
 8000d80:	2200      	movs	r2, #0
 8000d82:	775a      	strb	r2, [r3, #29]
 8000d84:	4b42      	ldr	r3, [pc, #264]	; (8000e90 <MX_ADC1_Init+0x170>)
 8000d86:	2201      	movs	r2, #1
 8000d88:	621a      	str	r2, [r3, #32]
 8000d8a:	4b41      	ldr	r3, [pc, #260]	; (8000e90 <MX_ADC1_Init+0x170>)
 8000d8c:	2200      	movs	r2, #0
 8000d8e:	f883 2024 	strb.w	r2, [r3, #36]	; 0x24
 8000d92:	4b3f      	ldr	r3, [pc, #252]	; (8000e90 <MX_ADC1_Init+0x170>)
 8000d94:	f44f 6298 	mov.w	r2, #1216	; 0x4c0
 8000d98:	62da      	str	r2, [r3, #44]	; 0x2c
 8000d9a:	4b3d      	ldr	r3, [pc, #244]	; (8000e90 <MX_ADC1_Init+0x170>)
 8000d9c:	f44f 6280 	mov.w	r2, #1024	; 0x400
 8000da0:	631a      	str	r2, [r3, #48]	; 0x30
 8000da2:	4b3b      	ldr	r3, [pc, #236]	; (8000e90 <MX_ADC1_Init+0x170>)
 8000da4:	2201      	movs	r2, #1
 8000da6:	f883 2038 	strb.w	r2, [r3, #56]	; 0x38
 8000daa:	4b39      	ldr	r3, [pc, #228]	; (8000e90 <MX_ADC1_Init+0x170>)
 8000dac:	2200      	movs	r2, #0
 8000dae:	63da      	str	r2, [r3, #60]	; 0x3c
 8000db0:	4b37      	ldr	r3, [pc, #220]	; (8000e90 <MX_ADC1_Init+0x170>)
 8000db2:	2200      	movs	r2, #0
 8000db4:	f883 2040 	strb.w	r2, [r3, #64]	; 0x40
 8000db8:	4835      	ldr	r0, [pc, #212]	; (8000e90 <MX_ADC1_Init+0x170>)
 8000dba:	f001 fb13 	bl	80023e4 <HAL_ADC_Init>
 8000dbe:	4603      	mov	r3, r0
 8000dc0:	2b00      	cmp	r3, #0
 8000dc2:	d001      	beq.n	8000dc8 <MX_ADC1_Init+0xa8>
 8000dc4:	f000 fcf8 	bl	80017b8 <Error_Handler>
 8000dc8:	2303      	movs	r3, #3
 8000dca:	65fb      	str	r3, [r7, #92]	; 0x5c
 8000dcc:	f44f 4300 	mov.w	r3, #32768	; 0x8000
 8000dd0:	663b      	str	r3, [r7, #96]	; 0x60
 8000dd2:	2300      	movs	r3, #0
 8000dd4:	667b      	str	r3, [r7, #100]	; 0x64
 8000dd6:	f107 035c 	add.w	r3, r7, #92	; 0x5c
 8000dda:	4619      	mov	r1, r3
 8000ddc:	482c      	ldr	r0, [pc, #176]	; (8000e90 <MX_ADC1_Init+0x170>)
 8000dde:	f003 fb61 	bl	80044a4 <HAL_ADCEx_MultiModeConfigChannel>
 8000de2:	4603      	mov	r3, r0
 8000de4:	2b00      	cmp	r3, #0
 8000de6:	d001      	beq.n	8000dec <MX_ADC1_Init+0xcc>
 8000de8:	f000 fce6 	bl	80017b8 <Error_Handler>
 8000dec:	4b29      	ldr	r3, [pc, #164]	; (8000e94 <MX_ADC1_Init+0x174>)
 8000dee:	63fb      	str	r3, [r7, #60]	; 0x3c
 8000df0:	2306      	movs	r3, #6
 8000df2:	643b      	str	r3, [r7, #64]	; 0x40
 8000df4:	2302      	movs	r3, #2
 8000df6:	647b      	str	r3, [r7, #68]	; 0x44
 8000df8:	237f      	movs	r3, #127	; 0x7f
 8000dfa:	64bb      	str	r3, [r7, #72]	; 0x48
 8000dfc:	2304      	movs	r3, #4
 8000dfe:	64fb      	str	r3, [r7, #76]	; 0x4c
 8000e00:	2300      	movs	r3, #0
 8000e02:	653b      	str	r3, [r7, #80]	; 0x50
 8000e04:	f107 033c 	add.w	r3, r7, #60	; 0x3c
 8000e08:	4619      	mov	r1, r3
 8000e0a:	4821      	ldr	r0, [pc, #132]	; (8000e90 <MX_ADC1_Init+0x170>)
 8000e0c:	f001 fc92 	bl	8002734 <HAL_ADC_ConfigChannel>
 8000e10:	4603      	mov	r3, r0
 8000e12:	2b00      	cmp	r3, #0
 8000e14:	d001      	beq.n	8000e1a <MX_ADC1_Init+0xfa>
 8000e16:	f000 fccf 	bl	80017b8 <Error_Handler>
 8000e1a:	4b1f      	ldr	r3, [pc, #124]	; (8000e98 <MX_ADC1_Init+0x178>)
 8000e1c:	603b      	str	r3, [r7, #0]
 8000e1e:	2309      	movs	r3, #9
 8000e20:	607b      	str	r3, [r7, #4]
 8000e22:	2306      	movs	r3, #6
 8000e24:	60bb      	str	r3, [r7, #8]
 8000e26:	237f      	movs	r3, #127	; 0x7f
 8000e28:	60fb      	str	r3, [r7, #12]
 8000e2a:	2304      	movs	r3, #4
 8000e2c:	613b      	str	r3, [r7, #16]
 8000e2e:	2300      	movs	r3, #0
 8000e30:	617b      	str	r3, [r7, #20]
 8000e32:	2302      	movs	r3, #2
 8000e34:	623b      	str	r3, [r7, #32]
 8000e36:	2300      	movs	r3, #0
 8000e38:	f887 3024 	strb.w	r3, [r7, #36]	; 0x24
 8000e3c:	2300      	movs	r3, #0
 8000e3e:	f887 3025 	strb.w	r3, [r7, #37]	; 0x25
 8000e42:	2300      	movs	r3, #0
 8000e44:	f887 3026 	strb.w	r3, [r7, #38]	; 0x26
 8000e48:	2300      	movs	r3, #0
 8000e4a:	62bb      	str	r3, [r7, #40]	; 0x28
 8000e4c:	2300      	movs	r3, #0
 8000e4e:	62fb      	str	r3, [r7, #44]	; 0x2c
 8000e50:	2300      	movs	r3, #0
 8000e52:	f887 3030 	strb.w	r3, [r7, #48]	; 0x30
 8000e56:	463b      	mov	r3, r7
 8000e58:	4619      	mov	r1, r3
 8000e5a:	480d      	ldr	r0, [pc, #52]	; (8000e90 <MX_ADC1_Init+0x170>)
 8000e5c:	f002 fe42 	bl	8003ae4 <HAL_ADCEx_InjectedConfigChannel>
 8000e60:	4603      	mov	r3, r0
 8000e62:	2b00      	cmp	r3, #0
 8000e64:	d001      	beq.n	8000e6a <MX_ADC1_Init+0x14a>
 8000e66:	f000 fca7 	bl	80017b8 <Error_Handler>
 8000e6a:	4b0c      	ldr	r3, [pc, #48]	; (8000e9c <MX_ADC1_Init+0x17c>)
 8000e6c:	603b      	str	r3, [r7, #0]
 8000e6e:	f240 130f 	movw	r3, #271	; 0x10f
 8000e72:	607b      	str	r3, [r7, #4]
 8000e74:	463b      	mov	r3, r7
 8000e76:	4619      	mov	r1, r3
 8000e78:	4805      	ldr	r0, [pc, #20]	; (8000e90 <MX_ADC1_Init+0x170>)
 8000e7a:	f002 fe33 	bl	8003ae4 <HAL_ADCEx_InjectedConfigChannel>
 8000e7e:	4603      	mov	r3, r0
 8000e80:	2b00      	cmp	r3, #0
 8000e82:	d001      	beq.n	8000e88 <MX_ADC1_Init+0x168>
 8000e84:	f000 fc98 	bl	80017b8 <Error_Handler>
 8000e88:	bf00      	nop
 8000e8a:	3768      	adds	r7, #104	; 0x68
 8000e8c:	46bd      	mov	sp, r7
 8000e8e:	bd80      	pop	{r7, pc}
 8000e90:	20000030 	.word	0x20000030
 8000e94:	2a000400 	.word	0x2a000400
 8000e98:	c3210000 	.word	0xc3210000
 8000e9c:	c7520000 	.word	0xc7520000

08000ea0 <MX_ADC2_Init>:
 8000ea0:	b580      	push	{r7, lr}
 8000ea2:	b098      	sub	sp, #96	; 0x60
 8000ea4:	af00      	add	r7, sp, #0
 8000ea6:	f107 0340 	add.w	r3, r7, #64	; 0x40
 8000eaa:	2220      	movs	r2, #32
 8000eac:	2100      	movs	r1, #0
 8000eae:	4618      	mov	r0, r3
 8000eb0:	f007 fcb6 	bl	8008820 <memset>
 8000eb4:	1d3b      	adds	r3, r7, #4
 8000eb6:	223c      	movs	r2, #60	; 0x3c
 8000eb8:	2100      	movs	r1, #0
 8000eba:	4618      	mov	r0, r3
 8000ebc:	f007 fcb0 	bl	8008820 <memset>
 8000ec0:	4b41      	ldr	r3, [pc, #260]	; (8000fc8 <MX_ADC2_Init+0x128>)
 8000ec2:	4a42      	ldr	r2, [pc, #264]	; (8000fcc <MX_ADC2_Init+0x12c>)
 8000ec4:	601a      	str	r2, [r3, #0]
 8000ec6:	4b40      	ldr	r3, [pc, #256]	; (8000fc8 <MX_ADC2_Init+0x128>)
 8000ec8:	2200      	movs	r2, #0
 8000eca:	605a      	str	r2, [r3, #4]
 8000ecc:	4b3e      	ldr	r3, [pc, #248]	; (8000fc8 <MX_ADC2_Init+0x128>)
 8000ece:	2200      	movs	r2, #0
 8000ed0:	609a      	str	r2, [r3, #8]
 8000ed2:	4b3d      	ldr	r3, [pc, #244]	; (8000fc8 <MX_ADC2_Init+0x128>)
 8000ed4:	2200      	movs	r2, #0
 8000ed6:	60da      	str	r2, [r3, #12]
 8000ed8:	4b3b      	ldr	r3, [pc, #236]	; (8000fc8 <MX_ADC2_Init+0x128>)
 8000eda:	2200      	movs	r2, #0
 8000edc:	611a      	str	r2, [r3, #16]
 8000ede:	4b3a      	ldr	r3, [pc, #232]	; (8000fc8 <MX_ADC2_Init+0x128>)
 8000ee0:	2201      	movs	r2, #1
 8000ee2:	615a      	str	r2, [r3, #20]
 8000ee4:	4b38      	ldr	r3, [pc, #224]	; (8000fc8 <MX_ADC2_Init+0x128>)
 8000ee6:	2208      	movs	r2, #8
 8000ee8:	619a      	str	r2, [r3, #24]
 8000eea:	4b37      	ldr	r3, [pc, #220]	; (8000fc8 <MX_ADC2_Init+0x128>)
 8000eec:	2200      	movs	r2, #0
 8000eee:	771a      	strb	r2, [r3, #28]
 8000ef0:	4b35      	ldr	r3, [pc, #212]	; (8000fc8 <MX_ADC2_Init+0x128>)
 8000ef2:	2200      	movs	r2, #0
 8000ef4:	775a      	strb	r2, [r3, #29]
 8000ef6:	4b34      	ldr	r3, [pc, #208]	; (8000fc8 <MX_ADC2_Init+0x128>)
 8000ef8:	2201      	movs	r2, #1
 8000efa:	621a      	str	r2, [r3, #32]
 8000efc:	4b32      	ldr	r3, [pc, #200]	; (8000fc8 <MX_ADC2_Init+0x128>)
 8000efe:	2200      	movs	r2, #0
 8000f00:	f883 2024 	strb.w	r2, [r3, #36]	; 0x24
 8000f04:	4b30      	ldr	r3, [pc, #192]	; (8000fc8 <MX_ADC2_Init+0x128>)
 8000f06:	2200      	movs	r2, #0
 8000f08:	f883 2038 	strb.w	r2, [r3, #56]	; 0x38
 8000f0c:	4b2e      	ldr	r3, [pc, #184]	; (8000fc8 <MX_ADC2_Init+0x128>)
 8000f0e:	2200      	movs	r2, #0
 8000f10:	63da      	str	r2, [r3, #60]	; 0x3c
 8000f12:	4b2d      	ldr	r3, [pc, #180]	; (8000fc8 <MX_ADC2_Init+0x128>)
 8000f14:	2200      	movs	r2, #0
 8000f16:	f883 2040 	strb.w	r2, [r3, #64]	; 0x40
 8000f1a:	482b      	ldr	r0, [pc, #172]	; (8000fc8 <MX_ADC2_Init+0x128>)
 8000f1c:	f001 fa62 	bl	80023e4 <HAL_ADC_Init>
 8000f20:	4603      	mov	r3, r0
 8000f22:	2b00      	cmp	r3, #0
 8000f24:	d001      	beq.n	8000f2a <MX_ADC2_Init+0x8a>
 8000f26:	f000 fc47 	bl	80017b8 <Error_Handler>
 8000f2a:	4b29      	ldr	r3, [pc, #164]	; (8000fd0 <MX_ADC2_Init+0x130>)
 8000f2c:	643b      	str	r3, [r7, #64]	; 0x40
 8000f2e:	2306      	movs	r3, #6
 8000f30:	647b      	str	r3, [r7, #68]	; 0x44
 8000f32:	2302      	movs	r3, #2
 8000f34:	64bb      	str	r3, [r7, #72]	; 0x48
 8000f36:	237f      	movs	r3, #127	; 0x7f
 8000f38:	64fb      	str	r3, [r7, #76]	; 0x4c
 8000f3a:	2304      	movs	r3, #4
 8000f3c:	653b      	str	r3, [r7, #80]	; 0x50
 8000f3e:	2300      	movs	r3, #0
 8000f40:	657b      	str	r3, [r7, #84]	; 0x54
 8000f42:	f107 0340 	add.w	r3, r7, #64	; 0x40
 8000f46:	4619      	mov	r1, r3
 8000f48:	481f      	ldr	r0, [pc, #124]	; (8000fc8 <MX_ADC2_Init+0x128>)
 8000f4a:	f001 fbf3 	bl	8002734 <HAL_ADC_ConfigChannel>
 8000f4e:	4603      	mov	r3, r0
 8000f50:	2b00      	cmp	r3, #0
 8000f52:	d001      	beq.n	8000f58 <MX_ADC2_Init+0xb8>
 8000f54:	f000 fc30 	bl	80017b8 <Error_Handler>
 8000f58:	4b1e      	ldr	r3, [pc, #120]	; (8000fd4 <MX_ADC2_Init+0x134>)
 8000f5a:	607b      	str	r3, [r7, #4]
 8000f5c:	2309      	movs	r3, #9
 8000f5e:	60bb      	str	r3, [r7, #8]
 8000f60:	2306      	movs	r3, #6
 8000f62:	60fb      	str	r3, [r7, #12]
 8000f64:	237f      	movs	r3, #127	; 0x7f
 8000f66:	613b      	str	r3, [r7, #16]
 8000f68:	2304      	movs	r3, #4
 8000f6a:	617b      	str	r3, [r7, #20]
 8000f6c:	2300      	movs	r3, #0
 8000f6e:	61bb      	str	r3, [r7, #24]
 8000f70:	2302      	movs	r3, #2
 8000f72:	627b      	str	r3, [r7, #36]	; 0x24
 8000f74:	2300      	movs	r3, #0
 8000f76:	f887 3028 	strb.w	r3, [r7, #40]	; 0x28
 8000f7a:	2300      	movs	r3, #0
 8000f7c:	f887 3029 	strb.w	r3, [r7, #41]	; 0x29
 8000f80:	2300      	movs	r3, #0
 8000f82:	f887 302a 	strb.w	r3, [r7, #42]	; 0x2a
 8000f86:	2300      	movs	r3, #0
 8000f88:	f887 3034 	strb.w	r3, [r7, #52]	; 0x34
 8000f8c:	1d3b      	adds	r3, r7, #4
 8000f8e:	4619      	mov	r1, r3
 8000f90:	480d      	ldr	r0, [pc, #52]	; (8000fc8 <MX_ADC2_Init+0x128>)
 8000f92:	f002 fda7 	bl	8003ae4 <HAL_ADCEx_InjectedConfigChannel>
 8000f96:	4603      	mov	r3, r0
 8000f98:	2b00      	cmp	r3, #0
 8000f9a:	d001      	beq.n	8000fa0 <MX_ADC2_Init+0x100>
 8000f9c:	f000 fc0c 	bl	80017b8 <Error_Handler>
 8000fa0:	4b0d      	ldr	r3, [pc, #52]	; (8000fd8 <MX_ADC2_Init+0x138>)
 8000fa2:	607b      	str	r3, [r7, #4]
 8000fa4:	f240 130f 	movw	r3, #271	; 0x10f
 8000fa8:	60bb      	str	r3, [r7, #8]
 8000faa:	1d3b      	adds	r3, r7, #4
 8000fac:	4619      	mov	r1, r3
 8000fae:	4806      	ldr	r0, [pc, #24]	; (8000fc8 <MX_ADC2_Init+0x128>)
 8000fb0:	f002 fd98 	bl	8003ae4 <HAL_ADCEx_InjectedConfigChannel>
 8000fb4:	4603      	mov	r3, r0
 8000fb6:	2b00      	cmp	r3, #0
 8000fb8:	d001      	beq.n	8000fbe <MX_ADC2_Init+0x11e>
 8000fba:	f000 fbfd 	bl	80017b8 <Error_Handler>
 8000fbe:	bf00      	nop
 8000fc0:	3760      	adds	r7, #96	; 0x60
 8000fc2:	46bd      	mov	sp, r7
 8000fc4:	bd80      	pop	{r7, pc}
 8000fc6:	bf00      	nop
 8000fc8:	2000009c 	.word	0x2000009c
 8000fcc:	50000100 	.word	0x50000100
 8000fd0:	36902000 	.word	0x36902000
 8000fd4:	47520000 	.word	0x47520000
 8000fd8:	2a000400 	.word	0x2a000400

08000fdc <MX_COMP1_Init>:
 8000fdc:	b580      	push	{r7, lr}
 8000fde:	af00      	add	r7, sp, #0
 8000fe0:	4b0f      	ldr	r3, [pc, #60]	; (8001020 <MX_COMP1_Init+0x44>)
 8000fe2:	4a10      	ldr	r2, [pc, #64]	; (8001024 <MX_COMP1_Init+0x48>)
 8000fe4:	601a      	str	r2, [r3, #0]
 8000fe6:	4b0e      	ldr	r3, [pc, #56]	; (8001020 <MX_COMP1_Init+0x44>)
 8000fe8:	2200      	movs	r2, #0
 8000fea:	605a      	str	r2, [r3, #4]
 8000fec:	4b0c      	ldr	r3, [pc, #48]	; (8001020 <MX_COMP1_Init+0x44>)
 8000fee:	2240      	movs	r2, #64	; 0x40
 8000ff0:	609a      	str	r2, [r3, #8]
 8000ff2:	4b0b      	ldr	r3, [pc, #44]	; (8001020 <MX_COMP1_Init+0x44>)
 8000ff4:	2200      	movs	r2, #0
 8000ff6:	611a      	str	r2, [r3, #16]
 8000ff8:	4b09      	ldr	r3, [pc, #36]	; (8001020 <MX_COMP1_Init+0x44>)
 8000ffa:	f44f 3240 	mov.w	r2, #196608	; 0x30000
 8000ffe:	60da      	str	r2, [r3, #12]
 8001000:	4b07      	ldr	r3, [pc, #28]	; (8001020 <MX_COMP1_Init+0x44>)
 8001002:	2200      	movs	r2, #0
 8001004:	615a      	str	r2, [r3, #20]
 8001006:	4b06      	ldr	r3, [pc, #24]	; (8001020 <MX_COMP1_Init+0x44>)
 8001008:	2200      	movs	r2, #0
 800100a:	619a      	str	r2, [r3, #24]
 800100c:	4804      	ldr	r0, [pc, #16]	; (8001020 <MX_COMP1_Init+0x44>)
 800100e:	f003 fb95 	bl	800473c <HAL_COMP_Init>
 8001012:	4603      	mov	r3, r0
 8001014:	2b00      	cmp	r3, #0
 8001016:	d001      	beq.n	800101c <MX_COMP1_Init+0x40>
 8001018:	f000 fbce 	bl	80017b8 <Error_Handler>
 800101c:	bf00      	nop
 800101e:	bd80      	pop	{r7, pc}
 8001020:	20000168 	.word	0x20000168
 8001024:	40010200 	.word	0x40010200

08001028 <MX_COMP3_Init>:
 8001028:	b580      	push	{r7, lr}
 800102a:	af00      	add	r7, sp, #0
 800102c:	4b0f      	ldr	r3, [pc, #60]	; (800106c <MX_COMP3_Init+0x44>)
 800102e:	4a10      	ldr	r2, [pc, #64]	; (8001070 <MX_COMP3_Init+0x48>)
 8001030:	601a      	str	r2, [r3, #0]
 8001032:	4b0e      	ldr	r3, [pc, #56]	; (800106c <MX_COMP3_Init+0x44>)
 8001034:	2200      	movs	r2, #0
 8001036:	605a      	str	r2, [r3, #4]
 8001038:	4b0c      	ldr	r3, [pc, #48]	; (800106c <MX_COMP3_Init+0x44>)
 800103a:	2240      	movs	r2, #64	; 0x40
 800103c:	609a      	str	r2, [r3, #8]
 800103e:	4b0b      	ldr	r3, [pc, #44]	; (800106c <MX_COMP3_Init+0x44>)
 8001040:	2200      	movs	r2, #0
 8001042:	611a      	str	r2, [r3, #16]
 8001044:	4b09      	ldr	r3, [pc, #36]	; (800106c <MX_COMP3_Init+0x44>)
 8001046:	f44f 3240 	mov.w	r2, #196608	; 0x30000
 800104a:	60da      	str	r2, [r3, #12]
 800104c:	4b07      	ldr	r3, [pc, #28]	; (800106c <MX_COMP3_Init+0x44>)
 800104e:	2200      	movs	r2, #0
 8001050:	615a      	str	r2, [r3, #20]
 8001052:	4b06      	ldr	r3, [pc, #24]	; (800106c <MX_COMP3_Init+0x44>)
 8001054:	2200      	movs	r2, #0
 8001056:	619a      	str	r2, [r3, #24]
 8001058:	4804      	ldr	r0, [pc, #16]	; (800106c <MX_COMP3_Init+0x44>)
 800105a:	f003 fb6f 	bl	800473c <HAL_COMP_Init>
 800105e:	4603      	mov	r3, r0
 8001060:	2b00      	cmp	r3, #0
 8001062:	d001      	beq.n	8001068 <MX_COMP3_Init+0x40>
 8001064:	f000 fba8 	bl	80017b8 <Error_Handler>
 8001068:	bf00      	nop
 800106a:	bd80      	pop	{r7, pc}
 800106c:	2000018c 	.word	0x2000018c
 8001070:	40010208 	.word	0x40010208

08001074 <MX_COMP4_Init>:
 8001074:	b580      	push	{r7, lr}
 8001076:	af00      	add	r7, sp, #0
 8001078:	4b0f      	ldr	r3, [pc, #60]	; (80010b8 <MX_COMP4_Init+0x44>)
 800107a:	4a10      	ldr	r2, [pc, #64]	; (80010bc <MX_COMP4_Init+0x48>)
 800107c:	601a      	str	r2, [r3, #0]
 800107e:	4b0e      	ldr	r3, [pc, #56]	; (80010b8 <MX_COMP4_Init+0x44>)
 8001080:	2200      	movs	r2, #0
 8001082:	605a      	str	r2, [r3, #4]
 8001084:	4b0c      	ldr	r3, [pc, #48]	; (80010b8 <MX_COMP4_Init+0x44>)
 8001086:	2240      	movs	r2, #64	; 0x40
 8001088:	609a      	str	r2, [r3, #8]
 800108a:	4b0b      	ldr	r3, [pc, #44]	; (80010b8 <MX_COMP4_Init+0x44>)
 800108c:	2200      	movs	r2, #0
 800108e:	611a      	str	r2, [r3, #16]
 8001090:	4b09      	ldr	r3, [pc, #36]	; (80010b8 <MX_COMP4_Init+0x44>)
 8001092:	f44f 3240 	mov.w	r2, #196608	; 0x30000
 8001096:	60da      	str	r2, [r3, #12]
 8001098:	4b07      	ldr	r3, [pc, #28]	; (80010b8 <MX_COMP4_Init+0x44>)
 800109a:	2200      	movs	r2, #0
 800109c:	615a      	str	r2, [r3, #20]
 800109e:	4b06      	ldr	r3, [pc, #24]	; (80010b8 <MX_COMP4_Init+0x44>)
 80010a0:	2200      	movs	r2, #0
 80010a2:	619a      	str	r2, [r3, #24]
 80010a4:	4804      	ldr	r0, [pc, #16]	; (80010b8 <MX_COMP4_Init+0x44>)
 80010a6:	f003 fb49 	bl	800473c <HAL_COMP_Init>
 80010aa:	4603      	mov	r3, r0
 80010ac:	2b00      	cmp	r3, #0
 80010ae:	d001      	beq.n	80010b4 <MX_COMP4_Init+0x40>
 80010b0:	f000 fb82 	bl	80017b8 <Error_Handler>
 80010b4:	bf00      	nop
 80010b6:	bd80      	pop	{r7, pc}
 80010b8:	200001b0 	.word	0x200001b0
 80010bc:	4001020c 	.word	0x4001020c

080010c0 <MX_DAC3_Init>:
 80010c0:	b580      	push	{r7, lr}
 80010c2:	b08c      	sub	sp, #48	; 0x30
 80010c4:	af00      	add	r7, sp, #0
 80010c6:	463b      	mov	r3, r7
 80010c8:	2230      	movs	r2, #48	; 0x30
 80010ca:	2100      	movs	r1, #0
 80010cc:	4618      	mov	r0, r3
 80010ce:	f007 fba7 	bl	8008820 <memset>
 80010d2:	4b1b      	ldr	r3, [pc, #108]	; (8001140 <MX_DAC3_Init+0x80>)
 80010d4:	4a1b      	ldr	r2, [pc, #108]	; (8001144 <MX_DAC3_Init+0x84>)
 80010d6:	601a      	str	r2, [r3, #0]
 80010d8:	4819      	ldr	r0, [pc, #100]	; (8001140 <MX_DAC3_Init+0x80>)
 80010da:	f003 fd62 	bl	8004ba2 <HAL_DAC_Init>
 80010de:	4603      	mov	r3, r0
 80010e0:	2b00      	cmp	r3, #0
 80010e2:	d001      	beq.n	80010e8 <MX_DAC3_Init+0x28>
 80010e4:	f000 fb68 	bl	80017b8 <Error_Handler>
 80010e8:	2302      	movs	r3, #2
 80010ea:	603b      	str	r3, [r7, #0]
 80010ec:	2300      	movs	r3, #0
 80010ee:	713b      	strb	r3, [r7, #4]
 80010f0:	2300      	movs	r3, #0
 80010f2:	717b      	strb	r3, [r7, #5]
 80010f4:	2300      	movs	r3, #0
 80010f6:	60bb      	str	r3, [r7, #8]
 80010f8:	2300      	movs	r3, #0
 80010fa:	60fb      	str	r3, [r7, #12]
 80010fc:	2300      	movs	r3, #0
 80010fe:	613b      	str	r3, [r7, #16]
 8001100:	2302      	movs	r3, #2
 8001102:	617b      	str	r3, [r7, #20]
 8001104:	2302      	movs	r3, #2
 8001106:	61bb      	str	r3, [r7, #24]
 8001108:	2300      	movs	r3, #0
 800110a:	61fb      	str	r3, [r7, #28]
 800110c:	463b      	mov	r3, r7
 800110e:	2200      	movs	r2, #0
 8001110:	4619      	mov	r1, r3
 8001112:	480b      	ldr	r0, [pc, #44]	; (8001140 <MX_DAC3_Init+0x80>)
 8001114:	f003 fd68 	bl	8004be8 <HAL_DAC_ConfigChannel>
 8001118:	4603      	mov	r3, r0
 800111a:	2b00      	cmp	r3, #0
 800111c:	d001      	beq.n	8001122 <MX_DAC3_Init+0x62>
 800111e:	f000 fb4b 	bl	80017b8 <Error_Handler>
 8001122:	463b      	mov	r3, r7
 8001124:	2210      	movs	r2, #16
 8001126:	4619      	mov	r1, r3
 8001128:	4805      	ldr	r0, [pc, #20]	; (8001140 <MX_DAC3_Init+0x80>)
 800112a:	f003 fd5d 	bl	8004be8 <HAL_DAC_ConfigChannel>
 800112e:	4603      	mov	r3, r0
 8001130:	2b00      	cmp	r3, #0
 8001132:	d001      	beq.n	8001138 <MX_DAC3_Init+0x78>
 8001134:	f000 fb40 	bl	80017b8 <Error_Handler>
 8001138:	bf00      	nop
 800113a:	3730      	adds	r7, #48	; 0x30
 800113c:	46bd      	mov	sp, r7
 800113e:	bd80      	pop	{r7, pc}
 8001140:	200001d4 	.word	0x200001d4
 8001144:	50001000 	.word	0x50001000

08001148 <MX_OPAMP1_Init>:
 8001148:	b580      	push	{r7, lr}
 800114a:	af00      	add	r7, sp, #0
 800114c:	4b10      	ldr	r3, [pc, #64]	; (8001190 <MX_OPAMP1_Init+0x48>)
 800114e:	4a11      	ldr	r2, [pc, #68]	; (8001194 <MX_OPAMP1_Init+0x4c>)
 8001150:	601a      	str	r2, [r3, #0]
 8001152:	4b0f      	ldr	r3, [pc, #60]	; (8001190 <MX_OPAMP1_Init+0x48>)
 8001154:	2280      	movs	r2, #128	; 0x80
 8001156:	605a      	str	r2, [r3, #4]
 8001158:	4b0d      	ldr	r3, [pc, #52]	; (8001190 <MX_OPAMP1_Init+0x48>)
 800115a:	2200      	movs	r2, #0
 800115c:	609a      	str	r2, [r3, #8]
 800115e:	4b0c      	ldr	r3, [pc, #48]	; (8001190 <MX_OPAMP1_Init+0x48>)
 8001160:	2200      	movs	r2, #0
 8001162:	60da      	str	r2, [r3, #12]
 8001164:	4b0a      	ldr	r3, [pc, #40]	; (8001190 <MX_OPAMP1_Init+0x48>)
 8001166:	2208      	movs	r2, #8
 8001168:	611a      	str	r2, [r3, #16]
 800116a:	4b09      	ldr	r3, [pc, #36]	; (8001190 <MX_OPAMP1_Init+0x48>)
 800116c:	2200      	movs	r2, #0
 800116e:	751a      	strb	r2, [r3, #20]
 8001170:	4b07      	ldr	r3, [pc, #28]	; (8001190 <MX_OPAMP1_Init+0x48>)
 8001172:	2200      	movs	r2, #0
 8001174:	619a      	str	r2, [r3, #24]
 8001176:	4b06      	ldr	r3, [pc, #24]	; (8001190 <MX_OPAMP1_Init+0x48>)
 8001178:	2200      	movs	r2, #0
 800117a:	62da      	str	r2, [r3, #44]	; 0x2c
 800117c:	4804      	ldr	r0, [pc, #16]	; (8001190 <MX_OPAMP1_Init+0x48>)
 800117e:	f004 fa53 	bl	8005628 <HAL_OPAMP_Init>
 8001182:	4603      	mov	r3, r0
 8001184:	2b00      	cmp	r3, #0
 8001186:	d001      	beq.n	800118c <MX_OPAMP1_Init+0x44>
 8001188:	f000 fb16 	bl	80017b8 <Error_Handler>
 800118c:	bf00      	nop
 800118e:	bd80      	pop	{r7, pc}
 8001190:	200001e8 	.word	0x200001e8
 8001194:	40010300 	.word	0x40010300

08001198 <MX_OPAMP2_Init>:
 8001198:	b580      	push	{r7, lr}
 800119a:	af00      	add	r7, sp, #0
 800119c:	4b0f      	ldr	r3, [pc, #60]	; (80011dc <MX_OPAMP2_Init+0x44>)
 800119e:	4a10      	ldr	r2, [pc, #64]	; (80011e0 <MX_OPAMP2_Init+0x48>)
 80011a0:	601a      	str	r2, [r3, #0]
 80011a2:	4b0e      	ldr	r3, [pc, #56]	; (80011dc <MX_OPAMP2_Init+0x44>)
 80011a4:	2280      	movs	r2, #128	; 0x80
 80011a6:	605a      	str	r2, [r3, #4]
 80011a8:	4b0c      	ldr	r3, [pc, #48]	; (80011dc <MX_OPAMP2_Init+0x44>)
 80011aa:	2260      	movs	r2, #96	; 0x60
 80011ac:	609a      	str	r2, [r3, #8]
 80011ae:	4b0b      	ldr	r3, [pc, #44]	; (80011dc <MX_OPAMP2_Init+0x44>)
 80011b0:	2208      	movs	r2, #8
 80011b2:	611a      	str	r2, [r3, #16]
 80011b4:	4b09      	ldr	r3, [pc, #36]	; (80011dc <MX_OPAMP2_Init+0x44>)
 80011b6:	2200      	movs	r2, #0
 80011b8:	751a      	strb	r2, [r3, #20]
 80011ba:	4b08      	ldr	r3, [pc, #32]	; (80011dc <MX_OPAMP2_Init+0x44>)
 80011bc:	2200      	movs	r2, #0
 80011be:	619a      	str	r2, [r3, #24]
 80011c0:	4b06      	ldr	r3, [pc, #24]	; (80011dc <MX_OPAMP2_Init+0x44>)
 80011c2:	2200      	movs	r2, #0
 80011c4:	62da      	str	r2, [r3, #44]	; 0x2c
 80011c6:	4805      	ldr	r0, [pc, #20]	; (80011dc <MX_OPAMP2_Init+0x44>)
 80011c8:	f004 fa2e 	bl	8005628 <HAL_OPAMP_Init>
 80011cc:	4603      	mov	r3, r0
 80011ce:	2b00      	cmp	r3, #0
 80011d0:	d001      	beq.n	80011d6 <MX_OPAMP2_Init+0x3e>
 80011d2:	f000 faf1 	bl	80017b8 <Error_Handler>
 80011d6:	bf00      	nop
 80011d8:	bd80      	pop	{r7, pc}
 80011da:	bf00      	nop
 80011dc:	20000224 	.word	0x20000224
 80011e0:	40010304 	.word	0x40010304

080011e4 <MX_SPI3_Init>:
 80011e4:	b580      	push	{r7, lr}
 80011e6:	b090      	sub	sp, #64	; 0x40
 80011e8:	af00      	add	r7, sp, #0
 80011ea:	f107 0318 	add.w	r3, r7, #24
 80011ee:	2228      	movs	r2, #40	; 0x28
 80011f0:	2100      	movs	r1, #0
 80011f2:	4618      	mov	r0, r3
 80011f4:	f007 fb14 	bl	8008820 <memset>
 80011f8:	463b      	mov	r3, r7
 80011fa:	2200      	movs	r2, #0
 80011fc:	601a      	str	r2, [r3, #0]
 80011fe:	605a      	str	r2, [r3, #4]
 8001200:	609a      	str	r2, [r3, #8]
 8001202:	60da      	str	r2, [r3, #12]
 8001204:	611a      	str	r2, [r3, #16]
 8001206:	615a      	str	r2, [r3, #20]
 8001208:	f44f 4000 	mov.w	r0, #32768	; 0x8000
 800120c:	f7ff fb5e 	bl	80008cc <LL_APB1_GRP1_EnableClock>
 8001210:	2002      	movs	r0, #2
 8001212:	f7ff fb43 	bl	800089c <LL_AHB2_GRP1_EnableClock>
 8001216:	2308      	movs	r3, #8
 8001218:	603b      	str	r3, [r7, #0]
 800121a:	2302      	movs	r3, #2
 800121c:	607b      	str	r3, [r7, #4]
 800121e:	2300      	movs	r3, #0
 8001220:	60bb      	str	r3, [r7, #8]
 8001222:	2300      	movs	r3, #0
 8001224:	60fb      	str	r3, [r7, #12]
 8001226:	2300      	movs	r3, #0
 8001228:	613b      	str	r3, [r7, #16]
 800122a:	2306      	movs	r3, #6
 800122c:	617b      	str	r3, [r7, #20]
 800122e:	463b      	mov	r3, r7
 8001230:	4619      	mov	r1, r3
 8001232:	4826      	ldr	r0, [pc, #152]	; (80012cc <MX_SPI3_Init+0xe8>)
 8001234:	f007 f9cd 	bl	80085d2 <LL_GPIO_Init>
 8001238:	2310      	movs	r3, #16
 800123a:	603b      	str	r3, [r7, #0]
 800123c:	2302      	movs	r3, #2
 800123e:	607b      	str	r3, [r7, #4]
 8001240:	2300      	movs	r3, #0
 8001242:	60bb      	str	r3, [r7, #8]
 8001244:	2300      	movs	r3, #0
 8001246:	60fb      	str	r3, [r7, #12]
 8001248:	2300      	movs	r3, #0
 800124a:	613b      	str	r3, [r7, #16]
 800124c:	2306      	movs	r3, #6
 800124e:	617b      	str	r3, [r7, #20]
 8001250:	463b      	mov	r3, r7
 8001252:	4619      	mov	r1, r3
 8001254:	481d      	ldr	r0, [pc, #116]	; (80012cc <MX_SPI3_Init+0xe8>)
 8001256:	f007 f9bc 	bl	80085d2 <LL_GPIO_Init>
 800125a:	2320      	movs	r3, #32
 800125c:	603b      	str	r3, [r7, #0]
 800125e:	2302      	movs	r3, #2
 8001260:	607b      	str	r3, [r7, #4]
 8001262:	2300      	movs	r3, #0
 8001264:	60bb      	str	r3, [r7, #8]
 8001266:	2300      	movs	r3, #0
 8001268:	60fb      	str	r3, [r7, #12]
 800126a:	2300      	movs	r3, #0
 800126c:	613b      	str	r3, [r7, #16]
 800126e:	2306      	movs	r3, #6
 8001270:	617b      	str	r3, [r7, #20]
 8001272:	463b      	mov	r3, r7
 8001274:	4619      	mov	r1, r3
 8001276:	4815      	ldr	r0, [pc, #84]	; (80012cc <MX_SPI3_Init+0xe8>)
 8001278:	f007 f9ab 	bl	80085d2 <LL_GPIO_Init>
 800127c:	2300      	movs	r3, #0
 800127e:	61bb      	str	r3, [r7, #24]
 8001280:	f44f 7382 	mov.w	r3, #260	; 0x104
 8001284:	61fb      	str	r3, [r7, #28]
 8001286:	f44f 6370 	mov.w	r3, #3840	; 0xf00
 800128a:	623b      	str	r3, [r7, #32]
 800128c:	2300      	movs	r3, #0
 800128e:	627b      	str	r3, [r7, #36]	; 0x24
 8001290:	2300      	movs	r3, #0
 8001292:	62bb      	str	r3, [r7, #40]	; 0x28
 8001294:	f44f 7300 	mov.w	r3, #512	; 0x200
 8001298:	62fb      	str	r3, [r7, #44]	; 0x2c
 800129a:	2310      	movs	r3, #16
 800129c:	633b      	str	r3, [r7, #48]	; 0x30
 800129e:	2300      	movs	r3, #0
 80012a0:	637b      	str	r3, [r7, #52]	; 0x34
 80012a2:	2300      	movs	r3, #0
 80012a4:	63bb      	str	r3, [r7, #56]	; 0x38
 80012a6:	2307      	movs	r3, #7
 80012a8:	63fb      	str	r3, [r7, #60]	; 0x3c
 80012aa:	f107 0318 	add.w	r3, r7, #24
 80012ae:	4619      	mov	r1, r3
 80012b0:	4807      	ldr	r0, [pc, #28]	; (80012d0 <MX_SPI3_Init+0xec>)
 80012b2:	f007 fa32 	bl	800871a <LL_SPI_Init>
 80012b6:	2100      	movs	r1, #0
 80012b8:	4805      	ldr	r0, [pc, #20]	; (80012d0 <MX_SPI3_Init+0xec>)
 80012ba:	f7ff fab3 	bl	8000824 <LL_SPI_SetStandard>
 80012be:	4804      	ldr	r0, [pc, #16]	; (80012d0 <MX_SPI3_Init+0xec>)
 80012c0:	f7ff fac3 	bl	800084a <LL_SPI_DisableNSSPulseMgt>
 80012c4:	bf00      	nop
 80012c6:	3740      	adds	r7, #64	; 0x40
 80012c8:	46bd      	mov	sp, r7
 80012ca:	bd80      	pop	{r7, pc}
 80012cc:	48000400 	.word	0x48000400
 80012d0:	40003c00 	.word	0x40003c00

080012d4 <MX_TIM1_Init>:
 80012d4:	b580      	push	{r7, lr}
 80012d6:	b09e      	sub	sp, #120	; 0x78
 80012d8:	af00      	add	r7, sp, #0
 80012da:	f107 0368 	add.w	r3, r7, #104	; 0x68
 80012de:	2200      	movs	r2, #0
 80012e0:	601a      	str	r2, [r3, #0]
 80012e2:	605a      	str	r2, [r3, #4]
 80012e4:	609a      	str	r2, [r3, #8]
 80012e6:	60da      	str	r2, [r3, #12]
 80012e8:	f107 035c 	add.w	r3, r7, #92	; 0x5c
 80012ec:	2200      	movs	r2, #0
 80012ee:	601a      	str	r2, [r3, #0]
 80012f0:	605a      	str	r2, [r3, #4]
 80012f2:	609a      	str	r2, [r3, #8]
 80012f4:	f107 0350 	add.w	r3, r7, #80	; 0x50
 80012f8:	2200      	movs	r2, #0
 80012fa:	601a      	str	r2, [r3, #0]
 80012fc:	605a      	str	r2, [r3, #4]
 80012fe:	609a      	str	r2, [r3, #8]
 8001300:	f107 0334 	add.w	r3, r7, #52	; 0x34
 8001304:	2200      	movs	r2, #0
 8001306:	601a      	str	r2, [r3, #0]
 8001308:	605a      	str	r2, [r3, #4]
 800130a:	609a      	str	r2, [r3, #8]
 800130c:	60da      	str	r2, [r3, #12]
 800130e:	611a      	str	r2, [r3, #16]
 8001310:	615a      	str	r2, [r3, #20]
 8001312:	619a      	str	r2, [r3, #24]
 8001314:	463b      	mov	r3, r7
 8001316:	2234      	movs	r2, #52	; 0x34
 8001318:	2100      	movs	r1, #0
 800131a:	4618      	mov	r0, r3
 800131c:	f007 fa80 	bl	8008820 <memset>
 8001320:	4b6c      	ldr	r3, [pc, #432]	; (80014d4 <MX_TIM1_Init+0x200>)
 8001322:	4a6d      	ldr	r2, [pc, #436]	; (80014d8 <MX_TIM1_Init+0x204>)
 8001324:	601a      	str	r2, [r3, #0]
 8001326:	4b6b      	ldr	r3, [pc, #428]	; (80014d4 <MX_TIM1_Init+0x200>)
 8001328:	2200      	movs	r2, #0
 800132a:	605a      	str	r2, [r3, #4]
 800132c:	4b69      	ldr	r3, [pc, #420]	; (80014d4 <MX_TIM1_Init+0x200>)
 800132e:	2200      	movs	r2, #0
 8001330:	609a      	str	r2, [r3, #8]
 8001332:	4b68      	ldr	r3, [pc, #416]	; (80014d4 <MX_TIM1_Init+0x200>)
 8001334:	f64f 52e8 	movw	r2, #65000	; 0xfde8
 8001338:	60da      	str	r2, [r3, #12]
 800133a:	4b66      	ldr	r3, [pc, #408]	; (80014d4 <MX_TIM1_Init+0x200>)
 800133c:	2200      	movs	r2, #0
 800133e:	611a      	str	r2, [r3, #16]
 8001340:	4b64      	ldr	r3, [pc, #400]	; (80014d4 <MX_TIM1_Init+0x200>)
 8001342:	2200      	movs	r2, #0
 8001344:	615a      	str	r2, [r3, #20]
 8001346:	4b63      	ldr	r3, [pc, #396]	; (80014d4 <MX_TIM1_Init+0x200>)
 8001348:	2200      	movs	r2, #0
 800134a:	619a      	str	r2, [r3, #24]
 800134c:	4861      	ldr	r0, [pc, #388]	; (80014d4 <MX_TIM1_Init+0x200>)
 800134e:	f005 fa19 	bl	8006784 <HAL_TIM_Base_Init>
 8001352:	4603      	mov	r3, r0
 8001354:	2b00      	cmp	r3, #0
 8001356:	d001      	beq.n	800135c <MX_TIM1_Init+0x88>
 8001358:	f000 fa2e 	bl	80017b8 <Error_Handler>
 800135c:	f44f 5380 	mov.w	r3, #4096	; 0x1000
 8001360:	66bb      	str	r3, [r7, #104]	; 0x68
 8001362:	f107 0368 	add.w	r3, r7, #104	; 0x68
 8001366:	4619      	mov	r1, r3
 8001368:	485a      	ldr	r0, [pc, #360]	; (80014d4 <MX_TIM1_Init+0x200>)
 800136a:	f005 fefd 	bl	8007168 <HAL_TIM_ConfigClockSource>
 800136e:	4603      	mov	r3, r0
 8001370:	2b00      	cmp	r3, #0
 8001372:	d001      	beq.n	8001378 <MX_TIM1_Init+0xa4>
 8001374:	f000 fa20 	bl	80017b8 <Error_Handler>
 8001378:	4856      	ldr	r0, [pc, #344]	; (80014d4 <MX_TIM1_Init+0x200>)
 800137a:	f005 fa5a 	bl	8006832 <HAL_TIM_PWM_Init>
 800137e:	4603      	mov	r3, r0
 8001380:	2b00      	cmp	r3, #0
 8001382:	d001      	beq.n	8001388 <MX_TIM1_Init+0xb4>
 8001384:	f000 fa18 	bl	80017b8 <Error_Handler>
 8001388:	2108      	movs	r1, #8
 800138a:	4852      	ldr	r0, [pc, #328]	; (80014d4 <MX_TIM1_Init+0x200>)
 800138c:	f005 fbfe 	bl	8006b8c <HAL_TIM_OnePulse_Init>
 8001390:	4603      	mov	r3, r0
 8001392:	2b00      	cmp	r3, #0
 8001394:	d001      	beq.n	800139a <MX_TIM1_Init+0xc6>
 8001396:	f000 fa0f 	bl	80017b8 <Error_Handler>
 800139a:	2300      	movs	r3, #0
 800139c:	65fb      	str	r3, [r7, #92]	; 0x5c
 800139e:	2300      	movs	r3, #0
 80013a0:	663b      	str	r3, [r7, #96]	; 0x60
 80013a2:	2300      	movs	r3, #0
 80013a4:	667b      	str	r3, [r7, #100]	; 0x64
 80013a6:	f107 035c 	add.w	r3, r7, #92	; 0x5c
 80013aa:	4619      	mov	r1, r3
 80013ac:	4849      	ldr	r0, [pc, #292]	; (80014d4 <MX_TIM1_Init+0x200>)
 80013ae:	f006 fd57 	bl	8007e60 <HAL_TIMEx_MasterConfigSynchronization>
 80013b2:	4603      	mov	r3, r0
 80013b4:	2b00      	cmp	r3, #0
 80013b6:	d001      	beq.n	80013bc <MX_TIM1_Init+0xe8>
 80013b8:	f000 f9fe 	bl	80017b8 <Error_Handler>
 80013bc:	2301      	movs	r3, #1
 80013be:	653b      	str	r3, [r7, #80]	; 0x50
 80013c0:	2301      	movs	r3, #1
 80013c2:	657b      	str	r3, [r7, #84]	; 0x54
 80013c4:	2300      	movs	r3, #0
 80013c6:	65bb      	str	r3, [r7, #88]	; 0x58
 80013c8:	f107 0350 	add.w	r3, r7, #80	; 0x50
 80013cc:	461a      	mov	r2, r3
 80013ce:	2101      	movs	r1, #1
 80013d0:	4840      	ldr	r0, [pc, #256]	; (80014d4 <MX_TIM1_Init+0x200>)
 80013d2:	f006 fe67 	bl	80080a4 <HAL_TIMEx_ConfigBreakInput>
 80013d6:	4603      	mov	r3, r0
 80013d8:	2b00      	cmp	r3, #0
 80013da:	d001      	beq.n	80013e0 <MX_TIM1_Init+0x10c>
 80013dc:	f000 f9ec 	bl	80017b8 <Error_Handler>
 80013e0:	2302      	movs	r3, #2
 80013e2:	653b      	str	r3, [r7, #80]	; 0x50
 80013e4:	f107 0350 	add.w	r3, r7, #80	; 0x50
 80013e8:	461a      	mov	r2, r3
 80013ea:	2101      	movs	r1, #1
 80013ec:	4839      	ldr	r0, [pc, #228]	; (80014d4 <MX_TIM1_Init+0x200>)
 80013ee:	f006 fe59 	bl	80080a4 <HAL_TIMEx_ConfigBreakInput>
 80013f2:	4603      	mov	r3, r0
 80013f4:	2b00      	cmp	r3, #0
 80013f6:	d001      	beq.n	80013fc <MX_TIM1_Init+0x128>
 80013f8:	f000 f9de 	bl	80017b8 <Error_Handler>
 80013fc:	2308      	movs	r3, #8
 80013fe:	653b      	str	r3, [r7, #80]	; 0x50
 8001400:	f107 0350 	add.w	r3, r7, #80	; 0x50
 8001404:	461a      	mov	r2, r3
 8001406:	2101      	movs	r1, #1
 8001408:	4832      	ldr	r0, [pc, #200]	; (80014d4 <MX_TIM1_Init+0x200>)
 800140a:	f006 fe4b 	bl	80080a4 <HAL_TIMEx_ConfigBreakInput>
 800140e:	4603      	mov	r3, r0
 8001410:	2b00      	cmp	r3, #0
 8001412:	d001      	beq.n	8001418 <MX_TIM1_Init+0x144>
 8001414:	f000 f9d0 	bl	80017b8 <Error_Handler>
 8001418:	2310      	movs	r3, #16
 800141a:	653b      	str	r3, [r7, #80]	; 0x50
 800141c:	f107 0350 	add.w	r3, r7, #80	; 0x50
 8001420:	461a      	mov	r2, r3
 8001422:	2101      	movs	r1, #1
 8001424:	482b      	ldr	r0, [pc, #172]	; (80014d4 <MX_TIM1_Init+0x200>)
 8001426:	f006 fe3d 	bl	80080a4 <HAL_TIMEx_ConfigBreakInput>
 800142a:	4603      	mov	r3, r0
 800142c:	2b00      	cmp	r3, #0
 800142e:	d001      	beq.n	8001434 <MX_TIM1_Init+0x160>
 8001430:	f000 f9c2 	bl	80017b8 <Error_Handler>
 8001434:	2360      	movs	r3, #96	; 0x60
 8001436:	637b      	str	r3, [r7, #52]	; 0x34
 8001438:	f64f 53e8 	movw	r3, #65000	; 0xfde8
 800143c:	63bb      	str	r3, [r7, #56]	; 0x38
 800143e:	2302      	movs	r3, #2
 8001440:	63fb      	str	r3, [r7, #60]	; 0x3c
 8001442:	2308      	movs	r3, #8
 8001444:	643b      	str	r3, [r7, #64]	; 0x40
 8001446:	2304      	movs	r3, #4
 8001448:	647b      	str	r3, [r7, #68]	; 0x44
 800144a:	f44f 7380 	mov.w	r3, #256	; 0x100
 800144e:	64bb      	str	r3, [r7, #72]	; 0x48
 8001450:	2300      	movs	r3, #0
 8001452:	64fb      	str	r3, [r7, #76]	; 0x4c
 8001454:	f107 0334 	add.w	r3, r7, #52	; 0x34
 8001458:	2204      	movs	r2, #4
 800145a:	4619      	mov	r1, r3
 800145c:	481d      	ldr	r0, [pc, #116]	; (80014d4 <MX_TIM1_Init+0x200>)
 800145e:	f005 fd6f 	bl	8006f40 <HAL_TIM_PWM_ConfigChannel>
 8001462:	4603      	mov	r3, r0
 8001464:	2b00      	cmp	r3, #0
 8001466:	d001      	beq.n	800146c <MX_TIM1_Init+0x198>
 8001468:	f000 f9a6 	bl	80017b8 <Error_Handler>
 800146c:	4819      	ldr	r0, [pc, #100]	; (80014d4 <MX_TIM1_Init+0x200>)
 800146e:	f006 fef1 	bl	8008254 <HAL_TIMEx_EnableDeadTimePreload>
 8001472:	f44f 6300 	mov.w	r3, #2048	; 0x800
 8001476:	603b      	str	r3, [r7, #0]
 8001478:	f44f 6380 	mov.w	r3, #1024	; 0x400
 800147c:	607b      	str	r3, [r7, #4]
 800147e:	2300      	movs	r3, #0
 8001480:	60bb      	str	r3, [r7, #8]
 8001482:	2396      	movs	r3, #150	; 0x96
 8001484:	60fb      	str	r3, [r7, #12]
 8001486:	f44f 5380 	mov.w	r3, #4096	; 0x1000
 800148a:	613b      	str	r3, [r7, #16]
 800148c:	f44f 5300 	mov.w	r3, #8192	; 0x2000
 8001490:	617b      	str	r3, [r7, #20]
 8001492:	2305      	movs	r3, #5
 8001494:	61bb      	str	r3, [r7, #24]
 8001496:	2300      	movs	r3, #0
 8001498:	61fb      	str	r3, [r7, #28]
 800149a:	2300      	movs	r3, #0
 800149c:	623b      	str	r3, [r7, #32]
 800149e:	f04f 7300 	mov.w	r3, #33554432	; 0x2000000
 80014a2:	627b      	str	r3, [r7, #36]	; 0x24
 80014a4:	2300      	movs	r3, #0
 80014a6:	62bb      	str	r3, [r7, #40]	; 0x28
 80014a8:	2300      	movs	r3, #0
 80014aa:	62fb      	str	r3, [r7, #44]	; 0x2c
 80014ac:	2300      	movs	r3, #0
 80014ae:	633b      	str	r3, [r7, #48]	; 0x30
 80014b0:	463b      	mov	r3, r7
 80014b2:	4619      	mov	r1, r3
 80014b4:	4807      	ldr	r0, [pc, #28]	; (80014d4 <MX_TIM1_Init+0x200>)
 80014b6:	f006 fd55 	bl	8007f64 <HAL_TIMEx_ConfigBreakDeadTime>
 80014ba:	4603      	mov	r3, r0
 80014bc:	2b00      	cmp	r3, #0
 80014be:	d001      	beq.n	80014c4 <MX_TIM1_Init+0x1f0>
 80014c0:	f000 f97a 	bl	80017b8 <Error_Handler>
 80014c4:	4803      	ldr	r0, [pc, #12]	; (80014d4 <MX_TIM1_Init+0x200>)
 80014c6:	f000 fc09 	bl	8001cdc <HAL_TIM_MspPostInit>
 80014ca:	bf00      	nop
 80014cc:	3778      	adds	r7, #120	; 0x78
 80014ce:	46bd      	mov	sp, r7
 80014d0:	bd80      	pop	{r7, pc}
 80014d2:	bf00      	nop
 80014d4:	20000260 	.word	0x20000260
 80014d8:	40012c00 	.word	0x40012c00

080014dc <MX_TIM2_Init>:
 80014dc:	b580      	push	{r7, lr}
 80014de:	b088      	sub	sp, #32
 80014e0:	af00      	add	r7, sp, #0
 80014e2:	f107 0310 	add.w	r3, r7, #16
 80014e6:	2200      	movs	r2, #0
 80014e8:	601a      	str	r2, [r3, #0]
 80014ea:	605a      	str	r2, [r3, #4]
 80014ec:	609a      	str	r2, [r3, #8]
 80014ee:	60da      	str	r2, [r3, #12]
 80014f0:	1d3b      	adds	r3, r7, #4
 80014f2:	2200      	movs	r2, #0
 80014f4:	601a      	str	r2, [r3, #0]
 80014f6:	605a      	str	r2, [r3, #4]
 80014f8:	609a      	str	r2, [r3, #8]
 80014fa:	4b1d      	ldr	r3, [pc, #116]	; (8001570 <MX_TIM2_Init+0x94>)
 80014fc:	f04f 4280 	mov.w	r2, #1073741824	; 0x40000000
 8001500:	601a      	str	r2, [r3, #0]
 8001502:	4b1b      	ldr	r3, [pc, #108]	; (8001570 <MX_TIM2_Init+0x94>)
 8001504:	2200      	movs	r2, #0
 8001506:	605a      	str	r2, [r3, #4]
 8001508:	4b19      	ldr	r3, [pc, #100]	; (8001570 <MX_TIM2_Init+0x94>)
 800150a:	2200      	movs	r2, #0
 800150c:	609a      	str	r2, [r3, #8]
 800150e:	4b18      	ldr	r3, [pc, #96]	; (8001570 <MX_TIM2_Init+0x94>)
 8001510:	4a18      	ldr	r2, [pc, #96]	; (8001574 <MX_TIM2_Init+0x98>)
 8001512:	60da      	str	r2, [r3, #12]
 8001514:	4b16      	ldr	r3, [pc, #88]	; (8001570 <MX_TIM2_Init+0x94>)
 8001516:	2200      	movs	r2, #0
 8001518:	611a      	str	r2, [r3, #16]
 800151a:	4b15      	ldr	r3, [pc, #84]	; (8001570 <MX_TIM2_Init+0x94>)
 800151c:	2200      	movs	r2, #0
 800151e:	619a      	str	r2, [r3, #24]
 8001520:	4813      	ldr	r0, [pc, #76]	; (8001570 <MX_TIM2_Init+0x94>)
 8001522:	f005 f92f 	bl	8006784 <HAL_TIM_Base_Init>
 8001526:	4603      	mov	r3, r0
 8001528:	2b00      	cmp	r3, #0
 800152a:	d001      	beq.n	8001530 <MX_TIM2_Init+0x54>
 800152c:	f000 f944 	bl	80017b8 <Error_Handler>
 8001530:	f44f 5380 	mov.w	r3, #4096	; 0x1000
 8001534:	613b      	str	r3, [r7, #16]
 8001536:	f107 0310 	add.w	r3, r7, #16
 800153a:	4619      	mov	r1, r3
 800153c:	480c      	ldr	r0, [pc, #48]	; (8001570 <MX_TIM2_Init+0x94>)
 800153e:	f005 fe13 	bl	8007168 <HAL_TIM_ConfigClockSource>
 8001542:	4603      	mov	r3, r0
 8001544:	2b00      	cmp	r3, #0
 8001546:	d001      	beq.n	800154c <MX_TIM2_Init+0x70>
 8001548:	f000 f936 	bl	80017b8 <Error_Handler>
 800154c:	2300      	movs	r3, #0
 800154e:	607b      	str	r3, [r7, #4]
 8001550:	2300      	movs	r3, #0
 8001552:	60fb      	str	r3, [r7, #12]
 8001554:	1d3b      	adds	r3, r7, #4
 8001556:	4619      	mov	r1, r3
 8001558:	4805      	ldr	r0, [pc, #20]	; (8001570 <MX_TIM2_Init+0x94>)
 800155a:	f006 fc81 	bl	8007e60 <HAL_TIMEx_MasterConfigSynchronization>
 800155e:	4603      	mov	r3, r0
 8001560:	2b00      	cmp	r3, #0
 8001562:	d001      	beq.n	8001568 <MX_TIM2_Init+0x8c>
 8001564:	f000 f928 	bl	80017b8 <Error_Handler>
 8001568:	bf00      	nop
 800156a:	3720      	adds	r7, #32
 800156c:	46bd      	mov	sp, r7
 800156e:	bd80      	pop	{r7, pc}
 8001570:	200002ac 	.word	0x200002ac
 8001574:	0002980f 	.word	0x0002980f

08001578 <MX_TIM16_Init>:
 8001578:	b580      	push	{r7, lr}
 800157a:	af00      	add	r7, sp, #0
 800157c:	4b0f      	ldr	r3, [pc, #60]	; (80015bc <MX_TIM16_Init+0x44>)
 800157e:	4a10      	ldr	r2, [pc, #64]	; (80015c0 <MX_TIM16_Init+0x48>)
 8001580:	601a      	str	r2, [r3, #0]
 8001582:	4b0e      	ldr	r3, [pc, #56]	; (80015bc <MX_TIM16_Init+0x44>)
 8001584:	2200      	movs	r2, #0
 8001586:	605a      	str	r2, [r3, #4]
 8001588:	4b0c      	ldr	r3, [pc, #48]	; (80015bc <MX_TIM16_Init+0x44>)
 800158a:	2200      	movs	r2, #0
 800158c:	609a      	str	r2, [r3, #8]
 800158e:	4b0b      	ldr	r3, [pc, #44]	; (80015bc <MX_TIM16_Init+0x44>)
 8001590:	f641 228f 	movw	r2, #6799	; 0x1a8f
 8001594:	60da      	str	r2, [r3, #12]
 8001596:	4b09      	ldr	r3, [pc, #36]	; (80015bc <MX_TIM16_Init+0x44>)
 8001598:	2200      	movs	r2, #0
 800159a:	611a      	str	r2, [r3, #16]
 800159c:	4b07      	ldr	r3, [pc, #28]	; (80015bc <MX_TIM16_Init+0x44>)
 800159e:	2200      	movs	r2, #0
 80015a0:	615a      	str	r2, [r3, #20]
 80015a2:	4b06      	ldr	r3, [pc, #24]	; (80015bc <MX_TIM16_Init+0x44>)
 80015a4:	2200      	movs	r2, #0
 80015a6:	619a      	str	r2, [r3, #24]
 80015a8:	4804      	ldr	r0, [pc, #16]	; (80015bc <MX_TIM16_Init+0x44>)
 80015aa:	f005 f8eb 	bl	8006784 <HAL_TIM_Base_Init>
 80015ae:	4603      	mov	r3, r0
 80015b0:	2b00      	cmp	r3, #0
 80015b2:	d001      	beq.n	80015b8 <MX_TIM16_Init+0x40>
 80015b4:	f000 f900 	bl	80017b8 <Error_Handler>
 80015b8:	bf00      	nop
 80015ba:	bd80      	pop	{r7, pc}
 80015bc:	200002f8 	.word	0x200002f8
 80015c0:	40014400 	.word	0x40014400

080015c4 <MX_DMA_Init>:
 80015c4:	b580      	push	{r7, lr}
 80015c6:	af00      	add	r7, sp, #0
 80015c8:	2004      	movs	r0, #4
 80015ca:	f7ff f94f 	bl	800086c <LL_AHB1_GRP1_EnableClock>
 80015ce:	2001      	movs	r0, #1
 80015d0:	f7ff f94c 	bl	800086c <LL_AHB1_GRP1_EnableClock>
 80015d4:	2200      	movs	r2, #0
 80015d6:	2100      	movs	r1, #0
 80015d8:	200b      	movs	r0, #11
 80015da:	f003 faae 	bl	8004b3a <HAL_NVIC_SetPriority>
 80015de:	200b      	movs	r0, #11
 80015e0:	f003 fac5 	bl	8004b6e <HAL_NVIC_EnableIRQ>
 80015e4:	bf00      	nop
 80015e6:	bd80      	pop	{r7, pc}

080015e8 <MX_GPIO_Init>:
 80015e8:	b580      	push	{r7, lr}
 80015ea:	b08a      	sub	sp, #40	; 0x28
 80015ec:	af00      	add	r7, sp, #0
 80015ee:	f107 0314 	add.w	r3, r7, #20
 80015f2:	2200      	movs	r2, #0
 80015f4:	601a      	str	r2, [r3, #0]
 80015f6:	605a      	str	r2, [r3, #4]
 80015f8:	609a      	str	r2, [r3, #8]
 80015fa:	60da      	str	r2, [r3, #12]
 80015fc:	611a      	str	r2, [r3, #16]
 80015fe:	4b40      	ldr	r3, [pc, #256]	; (8001700 <MX_GPIO_Init+0x118>)
 8001600:	6cdb      	ldr	r3, [r3, #76]	; 0x4c
 8001602:	4a3f      	ldr	r2, [pc, #252]	; (8001700 <MX_GPIO_Init+0x118>)
 8001604:	f043 0320 	orr.w	r3, r3, #32
 8001608:	64d3      	str	r3, [r2, #76]	; 0x4c
 800160a:	4b3d      	ldr	r3, [pc, #244]	; (8001700 <MX_GPIO_Init+0x118>)
 800160c:	6cdb      	ldr	r3, [r3, #76]	; 0x4c
 800160e:	f003 0320 	and.w	r3, r3, #32
 8001612:	613b      	str	r3, [r7, #16]
 8001614:	693b      	ldr	r3, [r7, #16]
 8001616:	4b3a      	ldr	r3, [pc, #232]	; (8001700 <MX_GPIO_Init+0x118>)
 8001618:	6cdb      	ldr	r3, [r3, #76]	; 0x4c
 800161a:	4a39      	ldr	r2, [pc, #228]	; (8001700 <MX_GPIO_Init+0x118>)
 800161c:	f043 0340 	orr.w	r3, r3, #64	; 0x40
 8001620:	64d3      	str	r3, [r2, #76]	; 0x4c
 8001622:	4b37      	ldr	r3, [pc, #220]	; (8001700 <MX_GPIO_Init+0x118>)
 8001624:	6cdb      	ldr	r3, [r3, #76]	; 0x4c
 8001626:	f003 0340 	and.w	r3, r3, #64	; 0x40
 800162a:	60fb      	str	r3, [r7, #12]
 800162c:	68fb      	ldr	r3, [r7, #12]
 800162e:	4b34      	ldr	r3, [pc, #208]	; (8001700 <MX_GPIO_Init+0x118>)
 8001630:	6cdb      	ldr	r3, [r3, #76]	; 0x4c
 8001632:	4a33      	ldr	r2, [pc, #204]	; (8001700 <MX_GPIO_Init+0x118>)
 8001634:	f043 0301 	orr.w	r3, r3, #1
 8001638:	64d3      	str	r3, [r2, #76]	; 0x4c
 800163a:	4b31      	ldr	r3, [pc, #196]	; (8001700 <MX_GPIO_Init+0x118>)
 800163c:	6cdb      	ldr	r3, [r3, #76]	; 0x4c
 800163e:	f003 0301 	and.w	r3, r3, #1
 8001642:	60bb      	str	r3, [r7, #8]
 8001644:	68bb      	ldr	r3, [r7, #8]
 8001646:	4b2e      	ldr	r3, [pc, #184]	; (8001700 <MX_GPIO_Init+0x118>)
 8001648:	6cdb      	ldr	r3, [r3, #76]	; 0x4c
 800164a:	4a2d      	ldr	r2, [pc, #180]	; (8001700 <MX_GPIO_Init+0x118>)
 800164c:	f043 0302 	orr.w	r3, r3, #2
 8001650:	64d3      	str	r3, [r2, #76]	; 0x4c
 8001652:	4b2b      	ldr	r3, [pc, #172]	; (8001700 <MX_GPIO_Init+0x118>)
 8001654:	6cdb      	ldr	r3, [r3, #76]	; 0x4c
 8001656:	f003 0302 	and.w	r3, r3, #2
 800165a:	607b      	str	r3, [r7, #4]
 800165c:	687b      	ldr	r3, [r7, #4]
 800165e:	2200      	movs	r2, #0
 8001660:	f44f 71e0 	mov.w	r1, #448	; 0x1c0
 8001664:	4827      	ldr	r0, [pc, #156]	; (8001704 <MX_GPIO_Init+0x11c>)
 8001666:	f003 ffad 	bl	80055c4 <HAL_GPIO_WritePin>
 800166a:	f44f 6380 	mov.w	r3, #1024	; 0x400
 800166e:	617b      	str	r3, [r7, #20]
 8001670:	2300      	movs	r3, #0
 8001672:	61bb      	str	r3, [r7, #24]
 8001674:	2300      	movs	r3, #0
 8001676:	61fb      	str	r3, [r7, #28]
 8001678:	f107 0314 	add.w	r3, r7, #20
 800167c:	4619      	mov	r1, r3
 800167e:	4822      	ldr	r0, [pc, #136]	; (8001708 <MX_GPIO_Init+0x120>)
 8001680:	f003 fe1e 	bl	80052c0 <HAL_GPIO_Init>
 8001684:	f44f 63a0 	mov.w	r3, #1280	; 0x500
 8001688:	617b      	str	r3, [r7, #20]
 800168a:	2300      	movs	r3, #0
 800168c:	61bb      	str	r3, [r7, #24]
 800168e:	2300      	movs	r3, #0
 8001690:	61fb      	str	r3, [r7, #28]
 8001692:	f107 0314 	add.w	r3, r7, #20
 8001696:	4619      	mov	r1, r3
 8001698:	f04f 4090 	mov.w	r0, #1207959552	; 0x48000000
 800169c:	f003 fe10 	bl	80052c0 <HAL_GPIO_Init>
 80016a0:	f44f 6300 	mov.w	r3, #2048	; 0x800
 80016a4:	617b      	str	r3, [r7, #20]
 80016a6:	f44f 1388 	mov.w	r3, #1114112	; 0x110000
 80016aa:	61bb      	str	r3, [r7, #24]
 80016ac:	2300      	movs	r3, #0
 80016ae:	61fb      	str	r3, [r7, #28]
 80016b0:	f107 0314 	add.w	r3, r7, #20
 80016b4:	4619      	mov	r1, r3
 80016b6:	f04f 4090 	mov.w	r0, #1207959552	; 0x48000000
 80016ba:	f003 fe01 	bl	80052c0 <HAL_GPIO_Init>
 80016be:	23c0      	movs	r3, #192	; 0xc0
 80016c0:	617b      	str	r3, [r7, #20]
 80016c2:	2301      	movs	r3, #1
 80016c4:	61bb      	str	r3, [r7, #24]
 80016c6:	2300      	movs	r3, #0
 80016c8:	61fb      	str	r3, [r7, #28]
 80016ca:	2300      	movs	r3, #0
 80016cc:	623b      	str	r3, [r7, #32]
 80016ce:	f107 0314 	add.w	r3, r7, #20
 80016d2:	4619      	mov	r1, r3
 80016d4:	480b      	ldr	r0, [pc, #44]	; (8001704 <MX_GPIO_Init+0x11c>)
 80016d6:	f003 fdf3 	bl	80052c0 <HAL_GPIO_Init>
 80016da:	f44f 7380 	mov.w	r3, #256	; 0x100
 80016de:	617b      	str	r3, [r7, #20]
 80016e0:	2301      	movs	r3, #1
 80016e2:	61bb      	str	r3, [r7, #24]
 80016e4:	2302      	movs	r3, #2
 80016e6:	61fb      	str	r3, [r7, #28]
 80016e8:	2300      	movs	r3, #0
 80016ea:	623b      	str	r3, [r7, #32]
 80016ec:	f107 0314 	add.w	r3, r7, #20
 80016f0:	4619      	mov	r1, r3
 80016f2:	4804      	ldr	r0, [pc, #16]	; (8001704 <MX_GPIO_Init+0x11c>)
 80016f4:	f003 fde4 	bl	80052c0 <HAL_GPIO_Init>
 80016f8:	bf00      	nop
 80016fa:	3728      	adds	r7, #40	; 0x28
 80016fc:	46bd      	mov	sp, r7
 80016fe:	bd80      	pop	{r7, pc}
 8001700:	40021000 	.word	0x40021000
 8001704:	48000400 	.word	0x48000400
 8001708:	48001800 	.word	0x48001800

0800170c <GetLSB>:
 800170c:	b480      	push	{r7}
 800170e:	b083      	sub	sp, #12
 8001710:	af00      	add	r7, sp, #0
 8001712:	6078      	str	r0, [r7, #4]
 8001714:	687b      	ldr	r3, [r7, #4]
 8001716:	b29b      	uxth	r3, r3
 8001718:	4618      	mov	r0, r3
 800171a:	370c      	adds	r7, #12
 800171c:	46bd      	mov	sp, r7
 800171e:	f85d 7b04 	ldr.w	r7, [sp], #4
 8001722:	4770      	bx	lr

08001724 <GetMSB>:
 8001724:	b480      	push	{r7}
 8001726:	b083      	sub	sp, #12
 8001728:	af00      	add	r7, sp, #0
 800172a:	6078      	str	r0, [r7, #4]
 800172c:	687b      	ldr	r3, [r7, #4]
 800172e:	0c1b      	lsrs	r3, r3, #16
 8001730:	b29b      	uxth	r3, r3
 8001732:	4618      	mov	r0, r3
 8001734:	370c      	adds	r7, #12
 8001736:	46bd      	mov	sp, r7
 8001738:	f85d 7b04 	ldr.w	r7, [sp], #4
 800173c:	4770      	bx	lr

0800173e <SPIx_Transfer2>:
 800173e:	b480      	push	{r7}
 8001740:	b085      	sub	sp, #20
 8001742:	af00      	add	r7, sp, #0
 8001744:	60f8      	str	r0, [r7, #12]
 8001746:	60b9      	str	r1, [r7, #8]
 8001748:	607a      	str	r2, [r7, #4]
 800174a:	807b      	strh	r3, [r7, #2]
 800174c:	e01d      	b.n	800178a <SPIx_Transfer2+0x4c>
 800174e:	bf00      	nop
 8001750:	68fb      	ldr	r3, [r7, #12]
 8001752:	689b      	ldr	r3, [r3, #8]
 8001754:	f003 0302 	and.w	r3, r3, #2
 8001758:	2b00      	cmp	r3, #0
 800175a:	d0f9      	beq.n	8001750 <SPIx_Transfer2+0x12>
 800175c:	68bb      	ldr	r3, [r7, #8]
 800175e:	1c9a      	adds	r2, r3, #2
 8001760:	60ba      	str	r2, [r7, #8]
 8001762:	68fa      	ldr	r2, [r7, #12]
 8001764:	320c      	adds	r2, #12
 8001766:	881b      	ldrh	r3, [r3, #0]
 8001768:	8013      	strh	r3, [r2, #0]
 800176a:	bf00      	nop
 800176c:	68fb      	ldr	r3, [r7, #12]
 800176e:	689b      	ldr	r3, [r3, #8]
 8001770:	f003 0301 	and.w	r3, r3, #1
 8001774:	2b00      	cmp	r3, #0
 8001776:	d0f9      	beq.n	800176c <SPIx_Transfer2+0x2e>
 8001778:	68fb      	ldr	r3, [r7, #12]
 800177a:	f103 020c 	add.w	r2, r3, #12
 800177e:	687b      	ldr	r3, [r7, #4]
 8001780:	1c99      	adds	r1, r3, #2
 8001782:	6079      	str	r1, [r7, #4]
 8001784:	8812      	ldrh	r2, [r2, #0]
 8001786:	b292      	uxth	r2, r2
 8001788:	801a      	strh	r2, [r3, #0]
 800178a:	887b      	ldrh	r3, [r7, #2]
 800178c:	1e5a      	subs	r2, r3, #1
 800178e:	807a      	strh	r2, [r7, #2]
 8001790:	2b00      	cmp	r3, #0
 8001792:	d1dc      	bne.n	800174e <SPIx_Transfer2+0x10>
 8001794:	bf00      	nop
 8001796:	bf00      	nop
 8001798:	3714      	adds	r7, #20
 800179a:	46bd      	mov	sp, r7
 800179c:	f85d 7b04 	ldr.w	r7, [sp], #4
 80017a0:	4770      	bx	lr

080017a2 <HAL_TIMEx_BreakCallback>:
 80017a2:	b480      	push	{r7}
 80017a4:	b083      	sub	sp, #12
 80017a6:	af00      	add	r7, sp, #0
 80017a8:	6078      	str	r0, [r7, #4]
 80017aa:	bf00      	nop
 80017ac:	370c      	adds	r7, #12
 80017ae:	46bd      	mov	sp, r7
 80017b0:	f85d 7b04 	ldr.w	r7, [sp], #4
 80017b4:	4770      	bx	lr
	...

080017b8 <Error_Handler>:
 80017b8:	b480      	push	{r7}
 80017ba:	af00      	add	r7, sp, #0
 80017bc:	4b02      	ldr	r3, [pc, #8]	; (80017c8 <Error_Handler+0x10>)
 80017be:	2209      	movs	r2, #9
 80017c0:	801a      	strh	r2, [r3, #0]
 80017c2:	b672      	cpsid	i
 80017c4:	bf00      	nop
 80017c6:	e7fe      	b.n	80017c6 <Error_Handler+0xe>
 80017c8:	20000006 	.word	0x20000006

080017cc <HAL_MspInit>:
 80017cc:	b580      	push	{r7, lr}
 80017ce:	b082      	sub	sp, #8
 80017d0:	af00      	add	r7, sp, #0
 80017d2:	4b0f      	ldr	r3, [pc, #60]	; (8001810 <HAL_MspInit+0x44>)
 80017d4:	6e1b      	ldr	r3, [r3, #96]	; 0x60
 80017d6:	4a0e      	ldr	r2, [pc, #56]	; (8001810 <HAL_MspInit+0x44>)
 80017d8:	f043 0301 	orr.w	r3, r3, #1
 80017dc:	6613      	str	r3, [r2, #96]	; 0x60
 80017de:	4b0c      	ldr	r3, [pc, #48]	; (8001810 <HAL_MspInit+0x44>)
 80017e0:	6e1b      	ldr	r3, [r3, #96]	; 0x60
 80017e2:	f003 0301 	and.w	r3, r3, #1
 80017e6:	607b      	str	r3, [r7, #4]
 80017e8:	687b      	ldr	r3, [r7, #4]
 80017ea:	4b09      	ldr	r3, [pc, #36]	; (8001810 <HAL_MspInit+0x44>)
 80017ec:	6d9b      	ldr	r3, [r3, #88]	; 0x58
 80017ee:	4a08      	ldr	r2, [pc, #32]	; (8001810 <HAL_MspInit+0x44>)
 80017f0:	f043 5380 	orr.w	r3, r3, #268435456	; 0x10000000
 80017f4:	6593      	str	r3, [r2, #88]	; 0x58
 80017f6:	4b06      	ldr	r3, [pc, #24]	; (8001810 <HAL_MspInit+0x44>)
 80017f8:	6d9b      	ldr	r3, [r3, #88]	; 0x58
 80017fa:	f003 5380 	and.w	r3, r3, #268435456	; 0x10000000
 80017fe:	603b      	str	r3, [r7, #0]
 8001800:	683b      	ldr	r3, [r7, #0]
 8001802:	f004 f8b7 	bl	8005974 <HAL_PWREx_DisableUCPDDeadBattery>
 8001806:	bf00      	nop
 8001808:	3708      	adds	r7, #8
 800180a:	46bd      	mov	sp, r7
 800180c:	bd80      	pop	{r7, pc}
 800180e:	bf00      	nop
 8001810:	40021000 	.word	0x40021000

08001814 <HAL_ADC_MspInit>:
 8001814:	b580      	push	{r7, lr}
 8001816:	b09e      	sub	sp, #120	; 0x78
 8001818:	af00      	add	r7, sp, #0
 800181a:	6078      	str	r0, [r7, #4]
 800181c:	f107 0364 	add.w	r3, r7, #100	; 0x64
 8001820:	2200      	movs	r2, #0
 8001822:	601a      	str	r2, [r3, #0]
 8001824:	605a      	str	r2, [r3, #4]
 8001826:	609a      	str	r2, [r3, #8]
 8001828:	60da      	str	r2, [r3, #12]
 800182a:	611a      	str	r2, [r3, #16]
 800182c:	f107 0320 	add.w	r3, r7, #32
 8001830:	2244      	movs	r2, #68	; 0x44
 8001832:	2100      	movs	r1, #0
 8001834:	4618      	mov	r0, r3
 8001836:	f006 fff3 	bl	8008820 <memset>
 800183a:	687b      	ldr	r3, [r7, #4]
 800183c:	681b      	ldr	r3, [r3, #0]
 800183e:	f1b3 4fa0 	cmp.w	r3, #1342177280	; 0x50000000
 8001842:	d169      	bne.n	8001918 <HAL_ADC_MspInit+0x104>
 8001844:	f44f 4300 	mov.w	r3, #32768	; 0x8000
 8001848:	623b      	str	r3, [r7, #32]
 800184a:	f04f 5380 	mov.w	r3, #268435456	; 0x10000000
 800184e:	65fb      	str	r3, [r7, #92]	; 0x5c
 8001850:	f107 0320 	add.w	r3, r7, #32
 8001854:	4618      	mov	r0, r3
 8001856:	f004 fda5 	bl	80063a4 <HAL_RCCEx_PeriphCLKConfig>
 800185a:	4603      	mov	r3, r0
 800185c:	2b00      	cmp	r3, #0
 800185e:	d001      	beq.n	8001864 <HAL_ADC_MspInit+0x50>
 8001860:	f7ff ffaa 	bl	80017b8 <Error_Handler>
 8001864:	4b5c      	ldr	r3, [pc, #368]	; (80019d8 <HAL_ADC_MspInit+0x1c4>)
 8001866:	681b      	ldr	r3, [r3, #0]
 8001868:	3301      	adds	r3, #1
 800186a:	4a5b      	ldr	r2, [pc, #364]	; (80019d8 <HAL_ADC_MspInit+0x1c4>)
 800186c:	6013      	str	r3, [r2, #0]
 800186e:	4b5a      	ldr	r3, [pc, #360]	; (80019d8 <HAL_ADC_MspInit+0x1c4>)
 8001870:	681b      	ldr	r3, [r3, #0]
 8001872:	2b01      	cmp	r3, #1
 8001874:	d10b      	bne.n	800188e <HAL_ADC_MspInit+0x7a>
 8001876:	4b59      	ldr	r3, [pc, #356]	; (80019dc <HAL_ADC_MspInit+0x1c8>)
 8001878:	6cdb      	ldr	r3, [r3, #76]	; 0x4c
 800187a:	4a58      	ldr	r2, [pc, #352]	; (80019dc <HAL_ADC_MspInit+0x1c8>)
 800187c:	f443 5300 	orr.w	r3, r3, #8192	; 0x2000
 8001880:	64d3      	str	r3, [r2, #76]	; 0x4c
 8001882:	4b56      	ldr	r3, [pc, #344]	; (80019dc <HAL_ADC_MspInit+0x1c8>)
 8001884:	6cdb      	ldr	r3, [r3, #76]	; 0x4c
 8001886:	f403 5300 	and.w	r3, r3, #8192	; 0x2000
 800188a:	61fb      	str	r3, [r7, #28]
 800188c:	69fb      	ldr	r3, [r7, #28]
 800188e:	4b53      	ldr	r3, [pc, #332]	; (80019dc <HAL_ADC_MspInit+0x1c8>)
 8001890:	6cdb      	ldr	r3, [r3, #76]	; 0x4c
 8001892:	4a52      	ldr	r2, [pc, #328]	; (80019dc <HAL_ADC_MspInit+0x1c8>)
 8001894:	f043 0320 	orr.w	r3, r3, #32
 8001898:	64d3      	str	r3, [r2, #76]	; 0x4c
 800189a:	4b50      	ldr	r3, [pc, #320]	; (80019dc <HAL_ADC_MspInit+0x1c8>)
 800189c:	6cdb      	ldr	r3, [r3, #76]	; 0x4c
 800189e:	f003 0320 	and.w	r3, r3, #32
 80018a2:	61bb      	str	r3, [r7, #24]
 80018a4:	69bb      	ldr	r3, [r7, #24]
 80018a6:	2301      	movs	r3, #1
 80018a8:	667b      	str	r3, [r7, #100]	; 0x64
 80018aa:	2303      	movs	r3, #3
 80018ac:	66bb      	str	r3, [r7, #104]	; 0x68
 80018ae:	2300      	movs	r3, #0
 80018b0:	66fb      	str	r3, [r7, #108]	; 0x6c
 80018b2:	f107 0364 	add.w	r3, r7, #100	; 0x64
 80018b6:	4619      	mov	r1, r3
 80018b8:	4849      	ldr	r0, [pc, #292]	; (80019e0 <HAL_ADC_MspInit+0x1cc>)
 80018ba:	f003 fd01 	bl	80052c0 <HAL_GPIO_Init>
 80018be:	4b49      	ldr	r3, [pc, #292]	; (80019e4 <HAL_ADC_MspInit+0x1d0>)
 80018c0:	4a49      	ldr	r2, [pc, #292]	; (80019e8 <HAL_ADC_MspInit+0x1d4>)
 80018c2:	601a      	str	r2, [r3, #0]
 80018c4:	4b47      	ldr	r3, [pc, #284]	; (80019e4 <HAL_ADC_MspInit+0x1d0>)
 80018c6:	2205      	movs	r2, #5
 80018c8:	605a      	str	r2, [r3, #4]
 80018ca:	4b46      	ldr	r3, [pc, #280]	; (80019e4 <HAL_ADC_MspInit+0x1d0>)
 80018cc:	2200      	movs	r2, #0
 80018ce:	609a      	str	r2, [r3, #8]
 80018d0:	4b44      	ldr	r3, [pc, #272]	; (80019e4 <HAL_ADC_MspInit+0x1d0>)
 80018d2:	2200      	movs	r2, #0
 80018d4:	60da      	str	r2, [r3, #12]
 80018d6:	4b43      	ldr	r3, [pc, #268]	; (80019e4 <HAL_ADC_MspInit+0x1d0>)
 80018d8:	2280      	movs	r2, #128	; 0x80
 80018da:	611a      	str	r2, [r3, #16]
 80018dc:	4b41      	ldr	r3, [pc, #260]	; (80019e4 <HAL_ADC_MspInit+0x1d0>)
 80018de:	f44f 7200 	mov.w	r2, #512	; 0x200
 80018e2:	615a      	str	r2, [r3, #20]
 80018e4:	4b3f      	ldr	r3, [pc, #252]	; (80019e4 <HAL_ADC_MspInit+0x1d0>)
 80018e6:	f44f 6200 	mov.w	r2, #2048	; 0x800
 80018ea:	619a      	str	r2, [r3, #24]
 80018ec:	4b3d      	ldr	r3, [pc, #244]	; (80019e4 <HAL_ADC_MspInit+0x1d0>)
 80018ee:	2220      	movs	r2, #32
 80018f0:	61da      	str	r2, [r3, #28]
 80018f2:	4b3c      	ldr	r3, [pc, #240]	; (80019e4 <HAL_ADC_MspInit+0x1d0>)
 80018f4:	f44f 5200 	mov.w	r2, #8192	; 0x2000
 80018f8:	621a      	str	r2, [r3, #32]
 80018fa:	483a      	ldr	r0, [pc, #232]	; (80019e4 <HAL_ADC_MspInit+0x1d0>)
 80018fc:	f003 fb1c 	bl	8004f38 <HAL_DMA_Init>
 8001900:	4603      	mov	r3, r0
 8001902:	2b00      	cmp	r3, #0
 8001904:	d001      	beq.n	800190a <HAL_ADC_MspInit+0xf6>
 8001906:	f7ff ff57 	bl	80017b8 <Error_Handler>
 800190a:	687b      	ldr	r3, [r7, #4]
 800190c:	4a35      	ldr	r2, [pc, #212]	; (80019e4 <HAL_ADC_MspInit+0x1d0>)
 800190e:	655a      	str	r2, [r3, #84]	; 0x54
 8001910:	4a34      	ldr	r2, [pc, #208]	; (80019e4 <HAL_ADC_MspInit+0x1d0>)
 8001912:	687b      	ldr	r3, [r7, #4]
 8001914:	6293      	str	r3, [r2, #40]	; 0x28
 8001916:	e05a      	b.n	80019ce <HAL_ADC_MspInit+0x1ba>
 8001918:	687b      	ldr	r3, [r7, #4]
 800191a:	681b      	ldr	r3, [r3, #0]
 800191c:	4a33      	ldr	r2, [pc, #204]	; (80019ec <HAL_ADC_MspInit+0x1d8>)
 800191e:	4293      	cmp	r3, r2
 8001920:	d155      	bne.n	80019ce <HAL_ADC_MspInit+0x1ba>
 8001922:	f44f 4300 	mov.w	r3, #32768	; 0x8000
 8001926:	623b      	str	r3, [r7, #32]
 8001928:	f04f 5380 	mov.w	r3, #268435456	; 0x10000000
 800192c:	65fb      	str	r3, [r7, #92]	; 0x5c
 800192e:	f107 0320 	add.w	r3, r7, #32
 8001932:	4618      	mov	r0, r3
 8001934:	f004 fd36 	bl	80063a4 <HAL_RCCEx_PeriphCLKConfig>
 8001938:	4603      	mov	r3, r0
 800193a:	2b00      	cmp	r3, #0
 800193c:	d001      	beq.n	8001942 <HAL_ADC_MspInit+0x12e>
 800193e:	f7ff ff3b 	bl	80017b8 <Error_Handler>
 8001942:	4b25      	ldr	r3, [pc, #148]	; (80019d8 <HAL_ADC_MspInit+0x1c4>)
 8001944:	681b      	ldr	r3, [r3, #0]
 8001946:	3301      	adds	r3, #1
 8001948:	4a23      	ldr	r2, [pc, #140]	; (80019d8 <HAL_ADC_MspInit+0x1c4>)
 800194a:	6013      	str	r3, [r2, #0]
 800194c:	4b22      	ldr	r3, [pc, #136]	; (80019d8 <HAL_ADC_MspInit+0x1c4>)
 800194e:	681b      	ldr	r3, [r3, #0]
 8001950:	2b01      	cmp	r3, #1
 8001952:	d10b      	bne.n	800196c <HAL_ADC_MspInit+0x158>
 8001954:	4b21      	ldr	r3, [pc, #132]	; (80019dc <HAL_ADC_MspInit+0x1c8>)
 8001956:	6cdb      	ldr	r3, [r3, #76]	; 0x4c
 8001958:	4a20      	ldr	r2, [pc, #128]	; (80019dc <HAL_ADC_MspInit+0x1c8>)
 800195a:	f443 5300 	orr.w	r3, r3, #8192	; 0x2000
 800195e:	64d3      	str	r3, [r2, #76]	; 0x4c
 8001960:	4b1e      	ldr	r3, [pc, #120]	; (80019dc <HAL_ADC_MspInit+0x1c8>)
 8001962:	6cdb      	ldr	r3, [r3, #76]	; 0x4c
 8001964:	f403 5300 	and.w	r3, r3, #8192	; 0x2000
 8001968:	617b      	str	r3, [r7, #20]
 800196a:	697b      	ldr	r3, [r7, #20]
 800196c:	4b1b      	ldr	r3, [pc, #108]	; (80019dc <HAL_ADC_MspInit+0x1c8>)
 800196e:	6cdb      	ldr	r3, [r3, #76]	; 0x4c
 8001970:	4a1a      	ldr	r2, [pc, #104]	; (80019dc <HAL_ADC_MspInit+0x1c8>)
 8001972:	f043 0320 	orr.w	r3, r3, #32
 8001976:	64d3      	str	r3, [r2, #76]	; 0x4c
 8001978:	4b18      	ldr	r3, [pc, #96]	; (80019dc <HAL_ADC_MspInit+0x1c8>)
 800197a:	6cdb      	ldr	r3, [r3, #76]	; 0x4c
 800197c:	f003 0320 	and.w	r3, r3, #32
 8001980:	613b      	str	r3, [r7, #16]
 8001982:	693b      	ldr	r3, [r7, #16]
 8001984:	4b15      	ldr	r3, [pc, #84]	; (80019dc <HAL_ADC_MspInit+0x1c8>)
 8001986:	6cdb      	ldr	r3, [r3, #76]	; 0x4c
 8001988:	4a14      	ldr	r2, [pc, #80]	; (80019dc <HAL_ADC_MspInit+0x1c8>)
 800198a:	f043 0301 	orr.w	r3, r3, #1
 800198e:	64d3      	str	r3, [r2, #76]	; 0x4c
 8001990:	4b12      	ldr	r3, [pc, #72]	; (80019dc <HAL_ADC_MspInit+0x1c8>)
 8001992:	6cdb      	ldr	r3, [r3, #76]	; 0x4c
 8001994:	f003 0301 	and.w	r3, r3, #1
 8001998:	60fb      	str	r3, [r7, #12]
 800199a:	68fb      	ldr	r3, [r7, #12]
 800199c:	2302      	movs	r3, #2
 800199e:	667b      	str	r3, [r7, #100]	; 0x64
 80019a0:	2303      	movs	r3, #3
 80019a2:	66bb      	str	r3, [r7, #104]	; 0x68
 80019a4:	2300      	movs	r3, #0
 80019a6:	66fb      	str	r3, [r7, #108]	; 0x6c
 80019a8:	f107 0364 	add.w	r3, r7, #100	; 0x64
 80019ac:	4619      	mov	r1, r3
 80019ae:	480c      	ldr	r0, [pc, #48]	; (80019e0 <HAL_ADC_MspInit+0x1cc>)
 80019b0:	f003 fc86 	bl	80052c0 <HAL_GPIO_Init>
 80019b4:	2330      	movs	r3, #48	; 0x30
 80019b6:	667b      	str	r3, [r7, #100]	; 0x64
 80019b8:	2303      	movs	r3, #3
 80019ba:	66bb      	str	r3, [r7, #104]	; 0x68
 80019bc:	2300      	movs	r3, #0
 80019be:	66fb      	str	r3, [r7, #108]	; 0x6c
 80019c0:	f107 0364 	add.w	r3, r7, #100	; 0x64
 80019c4:	4619      	mov	r1, r3
 80019c6:	f04f 4090 	mov.w	r0, #1207959552	; 0x48000000
 80019ca:	f003 fc79 	bl	80052c0 <HAL_GPIO_Init>
 80019ce:	bf00      	nop
 80019d0:	3778      	adds	r7, #120	; 0x78
 80019d2:	46bd      	mov	sp, r7
 80019d4:	bd80      	pop	{r7, pc}
 80019d6:	bf00      	nop
 80019d8:	2000037c 	.word	0x2000037c
 80019dc:	40021000 	.word	0x40021000
 80019e0:	48001400 	.word	0x48001400
 80019e4:	20000108 	.word	0x20000108
 80019e8:	40020008 	.word	0x40020008
 80019ec:	50000100 	.word	0x50000100

080019f0 <HAL_COMP_MspInit>:
 80019f0:	b580      	push	{r7, lr}
 80019f2:	b08a      	sub	sp, #40	; 0x28
 80019f4:	af00      	add	r7, sp, #0
 80019f6:	6078      	str	r0, [r7, #4]
 80019f8:	f107 0314 	add.w	r3, r7, #20
 80019fc:	2200      	movs	r2, #0
 80019fe:	601a      	str	r2, [r3, #0]
 8001a00:	605a      	str	r2, [r3, #4]
 8001a02:	609a      	str	r2, [r3, #8]
 8001a04:	60da      	str	r2, [r3, #12]
 8001a06:	611a      	str	r2, [r3, #16]
 8001a08:	687b      	ldr	r3, [r7, #4]
 8001a0a:	681b      	ldr	r3, [r3, #0]
 8001a0c:	4a2e      	ldr	r2, [pc, #184]	; (8001ac8 <HAL_COMP_MspInit+0xd8>)
 8001a0e:	4293      	cmp	r3, r2
 8001a10:	d119      	bne.n	8001a46 <HAL_COMP_MspInit+0x56>
 8001a12:	4b2e      	ldr	r3, [pc, #184]	; (8001acc <HAL_COMP_MspInit+0xdc>)
 8001a14:	6cdb      	ldr	r3, [r3, #76]	; 0x4c
 8001a16:	4a2d      	ldr	r2, [pc, #180]	; (8001acc <HAL_COMP_MspInit+0xdc>)
 8001a18:	f043 0301 	orr.w	r3, r3, #1
 8001a1c:	64d3      	str	r3, [r2, #76]	; 0x4c
 8001a1e:	4b2b      	ldr	r3, [pc, #172]	; (8001acc <HAL_COMP_MspInit+0xdc>)
 8001a20:	6cdb      	ldr	r3, [r3, #76]	; 0x4c
 8001a22:	f003 0301 	and.w	r3, r3, #1
 8001a26:	613b      	str	r3, [r7, #16]
 8001a28:	693b      	ldr	r3, [r7, #16]
 8001a2a:	2302      	movs	r3, #2
 8001a2c:	617b      	str	r3, [r7, #20]
 8001a2e:	2303      	movs	r3, #3
 8001a30:	61bb      	str	r3, [r7, #24]
 8001a32:	2300      	movs	r3, #0
 8001a34:	61fb      	str	r3, [r7, #28]
 8001a36:	f107 0314 	add.w	r3, r7, #20
 8001a3a:	4619      	mov	r1, r3
 8001a3c:	f04f 4090 	mov.w	r0, #1207959552	; 0x48000000
 8001a40:	f003 fc3e 	bl	80052c0 <HAL_GPIO_Init>
 8001a44:	e03b      	b.n	8001abe <HAL_COMP_MspInit+0xce>
 8001a46:	687b      	ldr	r3, [r7, #4]
 8001a48:	681b      	ldr	r3, [r3, #0]
 8001a4a:	4a21      	ldr	r2, [pc, #132]	; (8001ad0 <HAL_COMP_MspInit+0xe0>)
 8001a4c:	4293      	cmp	r3, r2
 8001a4e:	d119      	bne.n	8001a84 <HAL_COMP_MspInit+0x94>
 8001a50:	4b1e      	ldr	r3, [pc, #120]	; (8001acc <HAL_COMP_MspInit+0xdc>)
 8001a52:	6cdb      	ldr	r3, [r3, #76]	; 0x4c
 8001a54:	4a1d      	ldr	r2, [pc, #116]	; (8001acc <HAL_COMP_MspInit+0xdc>)
 8001a56:	f043 0301 	orr.w	r3, r3, #1
 8001a5a:	64d3      	str	r3, [r2, #76]	; 0x4c
 8001a5c:	4b1b      	ldr	r3, [pc, #108]	; (8001acc <HAL_COMP_MspInit+0xdc>)
 8001a5e:	6cdb      	ldr	r3, [r3, #76]	; 0x4c
 8001a60:	f003 0301 	and.w	r3, r3, #1
 8001a64:	60fb      	str	r3, [r7, #12]
 8001a66:	68fb      	ldr	r3, [r7, #12]
 8001a68:	2301      	movs	r3, #1
 8001a6a:	617b      	str	r3, [r7, #20]
 8001a6c:	2303      	movs	r3, #3
 8001a6e:	61bb      	str	r3, [r7, #24]
 8001a70:	2300      	movs	r3, #0
 8001a72:	61fb      	str	r3, [r7, #28]
 8001a74:	f107 0314 	add.w	r3, r7, #20
 8001a78:	4619      	mov	r1, r3
 8001a7a:	f04f 4090 	mov.w	r0, #1207959552	; 0x48000000
 8001a7e:	f003 fc1f 	bl	80052c0 <HAL_GPIO_Init>
 8001a82:	e01c      	b.n	8001abe <HAL_COMP_MspInit+0xce>
 8001a84:	687b      	ldr	r3, [r7, #4]
 8001a86:	681b      	ldr	r3, [r3, #0]
 8001a88:	4a12      	ldr	r2, [pc, #72]	; (8001ad4 <HAL_COMP_MspInit+0xe4>)
 8001a8a:	4293      	cmp	r3, r2
 8001a8c:	d117      	bne.n	8001abe <HAL_COMP_MspInit+0xce>
 8001a8e:	4b0f      	ldr	r3, [pc, #60]	; (8001acc <HAL_COMP_MspInit+0xdc>)
 8001a90:	6cdb      	ldr	r3, [r3, #76]	; 0x4c
 8001a92:	4a0e      	ldr	r2, [pc, #56]	; (8001acc <HAL_COMP_MspInit+0xdc>)
 8001a94:	f043 0302 	orr.w	r3, r3, #2
 8001a98:	64d3      	str	r3, [r2, #76]	; 0x4c
 8001a9a:	4b0c      	ldr	r3, [pc, #48]	; (8001acc <HAL_COMP_MspInit+0xdc>)
 8001a9c:	6cdb      	ldr	r3, [r3, #76]	; 0x4c
 8001a9e:	f003 0302 	and.w	r3, r3, #2
 8001aa2:	60bb      	str	r3, [r7, #8]
 8001aa4:	68bb      	ldr	r3, [r7, #8]
 8001aa6:	2301      	movs	r3, #1
 8001aa8:	617b      	str	r3, [r7, #20]
 8001aaa:	2303      	movs	r3, #3
 8001aac:	61bb      	str	r3, [r7, #24]
 8001aae:	2300      	movs	r3, #0
 8001ab0:	61fb      	str	r3, [r7, #28]
 8001ab2:	f107 0314 	add.w	r3, r7, #20
 8001ab6:	4619      	mov	r1, r3
 8001ab8:	4807      	ldr	r0, [pc, #28]	; (8001ad8 <HAL_COMP_MspInit+0xe8>)
 8001aba:	f003 fc01 	bl	80052c0 <HAL_GPIO_Init>
 8001abe:	bf00      	nop
 8001ac0:	3728      	adds	r7, #40	; 0x28
 8001ac2:	46bd      	mov	sp, r7
 8001ac4:	bd80      	pop	{r7, pc}
 8001ac6:	bf00      	nop
 8001ac8:	40010200 	.word	0x40010200
 8001acc:	40021000 	.word	0x40021000
 8001ad0:	40010208 	.word	0x40010208
 8001ad4:	4001020c 	.word	0x4001020c
 8001ad8:	48000400 	.word	0x48000400

08001adc <HAL_DAC_MspInit>:
 8001adc:	b480      	push	{r7}
 8001ade:	b085      	sub	sp, #20
 8001ae0:	af00      	add	r7, sp, #0
 8001ae2:	6078      	str	r0, [r7, #4]
 8001ae4:	687b      	ldr	r3, [r7, #4]
 8001ae6:	681b      	ldr	r3, [r3, #0]
 8001ae8:	4a0a      	ldr	r2, [pc, #40]	; (8001b14 <HAL_DAC_MspInit+0x38>)
 8001aea:	4293      	cmp	r3, r2
 8001aec:	d10b      	bne.n	8001b06 <HAL_DAC_MspInit+0x2a>
 8001aee:	4b0a      	ldr	r3, [pc, #40]	; (8001b18 <HAL_DAC_MspInit+0x3c>)
 8001af0:	6cdb      	ldr	r3, [r3, #76]	; 0x4c
 8001af2:	4a09      	ldr	r2, [pc, #36]	; (8001b18 <HAL_DAC_MspInit+0x3c>)
 8001af4:	f443 2380 	orr.w	r3, r3, #262144	; 0x40000
 8001af8:	64d3      	str	r3, [r2, #76]	; 0x4c
 8001afa:	4b07      	ldr	r3, [pc, #28]	; (8001b18 <HAL_DAC_MspInit+0x3c>)
 8001afc:	6cdb      	ldr	r3, [r3, #76]	; 0x4c
 8001afe:	f403 2380 	and.w	r3, r3, #262144	; 0x40000
 8001b02:	60fb      	str	r3, [r7, #12]
 8001b04:	68fb      	ldr	r3, [r7, #12]
 8001b06:	bf00      	nop
 8001b08:	3714      	adds	r7, #20
 8001b0a:	46bd      	mov	sp, r7
 8001b0c:	f85d 7b04 	ldr.w	r7, [sp], #4
 8001b10:	4770      	bx	lr
 8001b12:	bf00      	nop
 8001b14:	50001000 	.word	0x50001000
 8001b18:	40021000 	.word	0x40021000

08001b1c <HAL_OPAMP_MspInit>:
 8001b1c:	b580      	push	{r7, lr}
 8001b1e:	b08a      	sub	sp, #40	; 0x28
 8001b20:	af00      	add	r7, sp, #0
 8001b22:	6078      	str	r0, [r7, #4]
 8001b24:	f107 0314 	add.w	r3, r7, #20
 8001b28:	2200      	movs	r2, #0
 8001b2a:	601a      	str	r2, [r3, #0]
 8001b2c:	605a      	str	r2, [r3, #4]
 8001b2e:	609a      	str	r2, [r3, #8]
 8001b30:	60da      	str	r2, [r3, #12]
 8001b32:	611a      	str	r2, [r3, #16]
 8001b34:	687b      	ldr	r3, [r7, #4]
 8001b36:	681b      	ldr	r3, [r3, #0]
 8001b38:	4a2b      	ldr	r2, [pc, #172]	; (8001be8 <HAL_OPAMP_MspInit+0xcc>)
 8001b3a:	4293      	cmp	r3, r2
 8001b3c:	d119      	bne.n	8001b72 <HAL_OPAMP_MspInit+0x56>
 8001b3e:	4b2b      	ldr	r3, [pc, #172]	; (8001bec <HAL_OPAMP_MspInit+0xd0>)
 8001b40:	6cdb      	ldr	r3, [r3, #76]	; 0x4c
 8001b42:	4a2a      	ldr	r2, [pc, #168]	; (8001bec <HAL_OPAMP_MspInit+0xd0>)
 8001b44:	f043 0301 	orr.w	r3, r3, #1
 8001b48:	64d3      	str	r3, [r2, #76]	; 0x4c
 8001b4a:	4b28      	ldr	r3, [pc, #160]	; (8001bec <HAL_OPAMP_MspInit+0xd0>)
 8001b4c:	6cdb      	ldr	r3, [r3, #76]	; 0x4c
 8001b4e:	f003 0301 	and.w	r3, r3, #1
 8001b52:	613b      	str	r3, [r7, #16]
 8001b54:	693b      	ldr	r3, [r7, #16]
 8001b56:	238c      	movs	r3, #140	; 0x8c
 8001b58:	617b      	str	r3, [r7, #20]
 8001b5a:	2303      	movs	r3, #3
 8001b5c:	61bb      	str	r3, [r7, #24]
 8001b5e:	2300      	movs	r3, #0
 8001b60:	61fb      	str	r3, [r7, #28]
 8001b62:	f107 0314 	add.w	r3, r7, #20
 8001b66:	4619      	mov	r1, r3
 8001b68:	f04f 4090 	mov.w	r0, #1207959552	; 0x48000000
 8001b6c:	f003 fba8 	bl	80052c0 <HAL_GPIO_Init>
 8001b70:	e035      	b.n	8001bde <HAL_OPAMP_MspInit+0xc2>
 8001b72:	687b      	ldr	r3, [r7, #4]
 8001b74:	681b      	ldr	r3, [r3, #0]
 8001b76:	4a1e      	ldr	r2, [pc, #120]	; (8001bf0 <HAL_OPAMP_MspInit+0xd4>)
 8001b78:	4293      	cmp	r3, r2
 8001b7a:	d130      	bne.n	8001bde <HAL_OPAMP_MspInit+0xc2>
 8001b7c:	4b1b      	ldr	r3, [pc, #108]	; (8001bec <HAL_OPAMP_MspInit+0xd0>)
 8001b7e:	6cdb      	ldr	r3, [r3, #76]	; 0x4c
 8001b80:	4a1a      	ldr	r2, [pc, #104]	; (8001bec <HAL_OPAMP_MspInit+0xd0>)
 8001b82:	f043 0301 	orr.w	r3, r3, #1
 8001b86:	64d3      	str	r3, [r2, #76]	; 0x4c
 8001b88:	4b18      	ldr	r3, [pc, #96]	; (8001bec <HAL_OPAMP_MspInit+0xd0>)
 8001b8a:	6cdb      	ldr	r3, [r3, #76]	; 0x4c
 8001b8c:	f003 0301 	and.w	r3, r3, #1
 8001b90:	60fb      	str	r3, [r7, #12]
 8001b92:	68fb      	ldr	r3, [r7, #12]
 8001b94:	4b15      	ldr	r3, [pc, #84]	; (8001bec <HAL_OPAMP_MspInit+0xd0>)
 8001b96:	6cdb      	ldr	r3, [r3, #76]	; 0x4c
 8001b98:	4a14      	ldr	r2, [pc, #80]	; (8001bec <HAL_OPAMP_MspInit+0xd0>)
 8001b9a:	f043 0302 	orr.w	r3, r3, #2
 8001b9e:	64d3      	str	r3, [r2, #76]	; 0x4c
 8001ba0:	4b12      	ldr	r3, [pc, #72]	; (8001bec <HAL_OPAMP_MspInit+0xd0>)
 8001ba2:	6cdb      	ldr	r3, [r3, #76]	; 0x4c
 8001ba4:	f003 0302 	and.w	r3, r3, #2
 8001ba8:	60bb      	str	r3, [r7, #8]
 8001baa:	68bb      	ldr	r3, [r7, #8]
 8001bac:	2340      	movs	r3, #64	; 0x40
 8001bae:	617b      	str	r3, [r7, #20]
 8001bb0:	2303      	movs	r3, #3
 8001bb2:	61bb      	str	r3, [r7, #24]
 8001bb4:	2300      	movs	r3, #0
 8001bb6:	61fb      	str	r3, [r7, #28]
 8001bb8:	f107 0314 	add.w	r3, r7, #20
 8001bbc:	4619      	mov	r1, r3
 8001bbe:	f04f 4090 	mov.w	r0, #1207959552	; 0x48000000
 8001bc2:	f003 fb7d 	bl	80052c0 <HAL_GPIO_Init>
 8001bc6:	2301      	movs	r3, #1
 8001bc8:	617b      	str	r3, [r7, #20]
 8001bca:	2303      	movs	r3, #3
 8001bcc:	61bb      	str	r3, [r7, #24]
 8001bce:	2300      	movs	r3, #0
 8001bd0:	61fb      	str	r3, [r7, #28]
 8001bd2:	f107 0314 	add.w	r3, r7, #20
 8001bd6:	4619      	mov	r1, r3
 8001bd8:	4806      	ldr	r0, [pc, #24]	; (8001bf4 <HAL_OPAMP_MspInit+0xd8>)
 8001bda:	f003 fb71 	bl	80052c0 <HAL_GPIO_Init>
 8001bde:	bf00      	nop
 8001be0:	3728      	adds	r7, #40	; 0x28
 8001be2:	46bd      	mov	sp, r7
 8001be4:	bd80      	pop	{r7, pc}
 8001be6:	bf00      	nop
 8001be8:	40010300 	.word	0x40010300
 8001bec:	40021000 	.word	0x40021000
 8001bf0:	40010304 	.word	0x40010304
 8001bf4:	48000400 	.word	0x48000400

08001bf8 <HAL_TIM_Base_MspInit>:
 8001bf8:	b580      	push	{r7, lr}
 8001bfa:	b08c      	sub	sp, #48	; 0x30
 8001bfc:	af00      	add	r7, sp, #0
 8001bfe:	6078      	str	r0, [r7, #4]
 8001c00:	f107 031c 	add.w	r3, r7, #28
 8001c04:	2200      	movs	r2, #0
 8001c06:	601a      	str	r2, [r3, #0]
 8001c08:	605a      	str	r2, [r3, #4]
 8001c0a:	609a      	str	r2, [r3, #8]
 8001c0c:	60da      	str	r2, [r3, #12]
 8001c0e:	611a      	str	r2, [r3, #16]
 8001c10:	687b      	ldr	r3, [r7, #4]
 8001c12:	681b      	ldr	r3, [r3, #0]
 8001c14:	4a2e      	ldr	r2, [pc, #184]	; (8001cd0 <HAL_TIM_Base_MspInit+0xd8>)
 8001c16:	4293      	cmp	r3, r2
 8001c18:	d132      	bne.n	8001c80 <HAL_TIM_Base_MspInit+0x88>
 8001c1a:	4b2e      	ldr	r3, [pc, #184]	; (8001cd4 <HAL_TIM_Base_MspInit+0xdc>)
 8001c1c:	6e1b      	ldr	r3, [r3, #96]	; 0x60
 8001c1e:	4a2d      	ldr	r2, [pc, #180]	; (8001cd4 <HAL_TIM_Base_MspInit+0xdc>)
 8001c20:	f443 6300 	orr.w	r3, r3, #2048	; 0x800
 8001c24:	6613      	str	r3, [r2, #96]	; 0x60
 8001c26:	4b2b      	ldr	r3, [pc, #172]	; (8001cd4 <HAL_TIM_Base_MspInit+0xdc>)
 8001c28:	6e1b      	ldr	r3, [r3, #96]	; 0x60
 8001c2a:	f403 6300 	and.w	r3, r3, #2048	; 0x800
 8001c2e:	61bb      	str	r3, [r7, #24]
 8001c30:	69bb      	ldr	r3, [r7, #24]
 8001c32:	4b28      	ldr	r3, [pc, #160]	; (8001cd4 <HAL_TIM_Base_MspInit+0xdc>)
 8001c34:	6cdb      	ldr	r3, [r3, #76]	; 0x4c
 8001c36:	4a27      	ldr	r2, [pc, #156]	; (8001cd4 <HAL_TIM_Base_MspInit+0xdc>)
 8001c38:	f043 0301 	orr.w	r3, r3, #1
 8001c3c:	64d3      	str	r3, [r2, #76]	; 0x4c
 8001c3e:	4b25      	ldr	r3, [pc, #148]	; (8001cd4 <HAL_TIM_Base_MspInit+0xdc>)
 8001c40:	6cdb      	ldr	r3, [r3, #76]	; 0x4c
 8001c42:	f003 0301 	and.w	r3, r3, #1
 8001c46:	617b      	str	r3, [r7, #20]
 8001c48:	697b      	ldr	r3, [r7, #20]
 8001c4a:	f44f 4300 	mov.w	r3, #32768	; 0x8000
 8001c4e:	61fb      	str	r3, [r7, #28]
 8001c50:	2312      	movs	r3, #18
 8001c52:	623b      	str	r3, [r7, #32]
 8001c54:	2302      	movs	r3, #2
 8001c56:	627b      	str	r3, [r7, #36]	; 0x24
 8001c58:	2300      	movs	r3, #0
 8001c5a:	62bb      	str	r3, [r7, #40]	; 0x28
 8001c5c:	2309      	movs	r3, #9
 8001c5e:	62fb      	str	r3, [r7, #44]	; 0x2c
 8001c60:	f107 031c 	add.w	r3, r7, #28
 8001c64:	4619      	mov	r1, r3
 8001c66:	f04f 4090 	mov.w	r0, #1207959552	; 0x48000000
 8001c6a:	f003 fb29 	bl	80052c0 <HAL_GPIO_Init>
 8001c6e:	2200      	movs	r2, #0
 8001c70:	2100      	movs	r1, #0
 8001c72:	2018      	movs	r0, #24
 8001c74:	f002 ff61 	bl	8004b3a <HAL_NVIC_SetPriority>
 8001c78:	2018      	movs	r0, #24
 8001c7a:	f002 ff78 	bl	8004b6e <HAL_NVIC_EnableIRQ>
 8001c7e:	e022      	b.n	8001cc6 <HAL_TIM_Base_MspInit+0xce>
 8001c80:	687b      	ldr	r3, [r7, #4]
 8001c82:	681b      	ldr	r3, [r3, #0]
 8001c84:	f1b3 4f80 	cmp.w	r3, #1073741824	; 0x40000000
 8001c88:	d10c      	bne.n	8001ca4 <HAL_TIM_Base_MspInit+0xac>
 8001c8a:	4b12      	ldr	r3, [pc, #72]	; (8001cd4 <HAL_TIM_Base_MspInit+0xdc>)
 8001c8c:	6d9b      	ldr	r3, [r3, #88]	; 0x58
 8001c8e:	4a11      	ldr	r2, [pc, #68]	; (8001cd4 <HAL_TIM_Base_MspInit+0xdc>)
 8001c90:	f043 0301 	orr.w	r3, r3, #1
 8001c94:	6593      	str	r3, [r2, #88]	; 0x58
 8001c96:	4b0f      	ldr	r3, [pc, #60]	; (8001cd4 <HAL_TIM_Base_MspInit+0xdc>)
 8001c98:	6d9b      	ldr	r3, [r3, #88]	; 0x58
 8001c9a:	f003 0301 	and.w	r3, r3, #1
 8001c9e:	613b      	str	r3, [r7, #16]
 8001ca0:	693b      	ldr	r3, [r7, #16]
 8001ca2:	e010      	b.n	8001cc6 <HAL_TIM_Base_MspInit+0xce>
 8001ca4:	687b      	ldr	r3, [r7, #4]
 8001ca6:	681b      	ldr	r3, [r3, #0]
 8001ca8:	4a0b      	ldr	r2, [pc, #44]	; (8001cd8 <HAL_TIM_Base_MspInit+0xe0>)
 8001caa:	4293      	cmp	r3, r2
 8001cac:	d10b      	bne.n	8001cc6 <HAL_TIM_Base_MspInit+0xce>
 8001cae:	4b09      	ldr	r3, [pc, #36]	; (8001cd4 <HAL_TIM_Base_MspInit+0xdc>)
 8001cb0:	6e1b      	ldr	r3, [r3, #96]	; 0x60
 8001cb2:	4a08      	ldr	r2, [pc, #32]	; (8001cd4 <HAL_TIM_Base_MspInit+0xdc>)
 8001cb4:	f443 3300 	orr.w	r3, r3, #131072	; 0x20000
 8001cb8:	6613      	str	r3, [r2, #96]	; 0x60
 8001cba:	4b06      	ldr	r3, [pc, #24]	; (8001cd4 <HAL_TIM_Base_MspInit+0xdc>)
 8001cbc:	6e1b      	ldr	r3, [r3, #96]	; 0x60
 8001cbe:	f403 3300 	and.w	r3, r3, #131072	; 0x20000
 8001cc2:	60fb      	str	r3, [r7, #12]
 8001cc4:	68fb      	ldr	r3, [r7, #12]
 8001cc6:	bf00      	nop
 8001cc8:	3730      	adds	r7, #48	; 0x30
 8001cca:	46bd      	mov	sp, r7
 8001ccc:	bd80      	pop	{r7, pc}
 8001cce:	bf00      	nop
 8001cd0:	40012c00 	.word	0x40012c00
 8001cd4:	40021000 	.word	0x40021000
 8001cd8:	40014400 	.word	0x40014400

08001cdc <HAL_TIM_MspPostInit>:
 8001cdc:	b580      	push	{r7, lr}
 8001cde:	b088      	sub	sp, #32
 8001ce0:	af00      	add	r7, sp, #0
 8001ce2:	6078      	str	r0, [r7, #4]
 8001ce4:	f107 030c 	add.w	r3, r7, #12
 8001ce8:	2200      	movs	r2, #0
 8001cea:	601a      	str	r2, [r3, #0]
 8001cec:	605a      	str	r2, [r3, #4]
 8001cee:	609a      	str	r2, [r3, #8]
 8001cf0:	60da      	str	r2, [r3, #12]
 8001cf2:	611a      	str	r2, [r3, #16]
 8001cf4:	687b      	ldr	r3, [r7, #4]
 8001cf6:	681b      	ldr	r3, [r3, #0]
 8001cf8:	4a12      	ldr	r2, [pc, #72]	; (8001d44 <HAL_TIM_MspPostInit+0x68>)
 8001cfa:	4293      	cmp	r3, r2
 8001cfc:	d11d      	bne.n	8001d3a <HAL_TIM_MspPostInit+0x5e>
 8001cfe:	4b12      	ldr	r3, [pc, #72]	; (8001d48 <HAL_TIM_MspPostInit+0x6c>)
 8001d00:	6cdb      	ldr	r3, [r3, #76]	; 0x4c
 8001d02:	4a11      	ldr	r2, [pc, #68]	; (8001d48 <HAL_TIM_MspPostInit+0x6c>)
 8001d04:	f043 0301 	orr.w	r3, r3, #1
 8001d08:	64d3      	str	r3, [r2, #76]	; 0x4c
 8001d0a:	4b0f      	ldr	r3, [pc, #60]	; (8001d48 <HAL_TIM_MspPostInit+0x6c>)
 8001d0c:	6cdb      	ldr	r3, [r3, #76]	; 0x4c
 8001d0e:	f003 0301 	and.w	r3, r3, #1
 8001d12:	60bb      	str	r3, [r7, #8]
 8001d14:	68bb      	ldr	r3, [r7, #8]
 8001d16:	f44f 5390 	mov.w	r3, #4608	; 0x1200
 8001d1a:	60fb      	str	r3, [r7, #12]
 8001d1c:	2302      	movs	r3, #2
 8001d1e:	613b      	str	r3, [r7, #16]
 8001d20:	2302      	movs	r3, #2
 8001d22:	617b      	str	r3, [r7, #20]
 8001d24:	2303      	movs	r3, #3
 8001d26:	61bb      	str	r3, [r7, #24]
 8001d28:	2306      	movs	r3, #6
 8001d2a:	61fb      	str	r3, [r7, #28]
 8001d2c:	f107 030c 	add.w	r3, r7, #12
 8001d30:	4619      	mov	r1, r3
 8001d32:	f04f 4090 	mov.w	r0, #1207959552	; 0x48000000
 8001d36:	f003 fac3 	bl	80052c0 <HAL_GPIO_Init>
 8001d3a:	bf00      	nop
 8001d3c:	3720      	adds	r7, #32
 8001d3e:	46bd      	mov	sp, r7
 8001d40:	bd80      	pop	{r7, pc}
 8001d42:	bf00      	nop
 8001d44:	40012c00 	.word	0x40012c00
 8001d48:	40021000 	.word	0x40021000

08001d4c <NMI_Handler>:
 8001d4c:	b480      	push	{r7}
 8001d4e:	af00      	add	r7, sp, #0
 8001d50:	e7fe      	b.n	8001d50 <NMI_Handler+0x4>

08001d52 <HardFault_Handler>:
 8001d52:	b480      	push	{r7}
 8001d54:	af00      	add	r7, sp, #0
 8001d56:	e7fe      	b.n	8001d56 <HardFault_Handler+0x4>

08001d58 <MemManage_Handler>:
 8001d58:	b480      	push	{r7}
 8001d5a:	af00      	add	r7, sp, #0
 8001d5c:	e7fe      	b.n	8001d5c <MemManage_Handler+0x4>

08001d5e <BusFault_Handler>:
 8001d5e:	b480      	push	{r7}
 8001d60:	af00      	add	r7, sp, #0
 8001d62:	e7fe      	b.n	8001d62 <BusFault_Handler+0x4>

08001d64 <UsageFault_Handler>:
 8001d64:	b480      	push	{r7}
 8001d66:	af00      	add	r7, sp, #0
 8001d68:	e7fe      	b.n	8001d68 <UsageFault_Handler+0x4>

08001d6a <SVC_Handler>:
 8001d6a:	b480      	push	{r7}
 8001d6c:	af00      	add	r7, sp, #0
 8001d6e:	bf00      	nop
 8001d70:	46bd      	mov	sp, r7
 8001d72:	f85d 7b04 	ldr.w	r7, [sp], #4
 8001d76:	4770      	bx	lr

08001d78 <DebugMon_Handler>:
 8001d78:	b480      	push	{r7}
 8001d7a:	af00      	add	r7, sp, #0
 8001d7c:	bf00      	nop
 8001d7e:	46bd      	mov	sp, r7
 8001d80:	f85d 7b04 	ldr.w	r7, [sp], #4
 8001d84:	4770      	bx	lr

08001d86 <PendSV_Handler>:
 8001d86:	b480      	push	{r7}
 8001d88:	af00      	add	r7, sp, #0
 8001d8a:	bf00      	nop
 8001d8c:	46bd      	mov	sp, r7
 8001d8e:	f85d 7b04 	ldr.w	r7, [sp], #4
 8001d92:	4770      	bx	lr

08001d94 <SysTick_Handler>:
 8001d94:	b580      	push	{r7, lr}
 8001d96:	af00      	add	r7, sp, #0
 8001d98:	f000 f8be 	bl	8001f18 <HAL_IncTick>
 8001d9c:	bf00      	nop
 8001d9e:	bd80      	pop	{r7, pc}

08001da0 <DMA1_Channel1_IRQHandler>:
 8001da0:	b480      	push	{r7}
 8001da2:	af00      	add	r7, sp, #0
 8001da4:	4b0b      	ldr	r3, [pc, #44]	; (8001dd4 <DMA1_Channel1_IRQHandler+0x34>)
 8001da6:	681b      	ldr	r3, [r3, #0]
 8001da8:	f003 0302 	and.w	r3, r3, #2
 8001dac:	2b00      	cmp	r3, #0
 8001dae:	d00b      	beq.n	8001dc8 <DMA1_Channel1_IRQHandler+0x28>
 8001db0:	4b09      	ldr	r3, [pc, #36]	; (8001dd8 <DMA1_Channel1_IRQHandler+0x38>)
 8001db2:	2201      	movs	r2, #1
 8001db4:	701a      	strb	r2, [r3, #0]
 8001db6:	4b09      	ldr	r3, [pc, #36]	; (8001ddc <DMA1_Channel1_IRQHandler+0x3c>)
 8001db8:	2201      	movs	r2, #1
 8001dba:	601a      	str	r2, [r3, #0]
 8001dbc:	4b08      	ldr	r3, [pc, #32]	; (8001de0 <DMA1_Channel1_IRQHandler+0x40>)
 8001dbe:	2201      	movs	r2, #1
 8001dc0:	601a      	str	r2, [r3, #0]
 8001dc2:	4b08      	ldr	r3, [pc, #32]	; (8001de4 <DMA1_Channel1_IRQHandler+0x44>)
 8001dc4:	2201      	movs	r2, #1
 8001dc6:	601a      	str	r2, [r3, #0]
 8001dc8:	bf00      	nop
 8001dca:	46bd      	mov	sp, r7
 8001dcc:	f85d 7b04 	ldr.w	r7, [sp], #4
 8001dd0:	4770      	bx	lr
 8001dd2:	bf00      	nop
 8001dd4:	40020000 	.word	0x40020000
 8001dd8:	20000354 	.word	0x20000354
 8001ddc:	42400088 	.word	0x42400088
 8001de0:	42400084 	.word	0x42400084
 8001de4:	42400080 	.word	0x42400080

08001de8 <TIM1_BRK_TIM15_IRQHandler>:
 8001de8:	b580      	push	{r7, lr}
 8001dea:	af00      	add	r7, sp, #0
 8001dec:	4802      	ldr	r0, [pc, #8]	; (8001df8 <TIM1_BRK_TIM15_IRQHandler+0x10>)
 8001dee:	f004 ff27 	bl	8006c40 <HAL_TIM_IRQHandler>
 8001df2:	bf00      	nop
 8001df4:	bd80      	pop	{r7, pc}
 8001df6:	bf00      	nop
 8001df8:	20000260 	.word	0x20000260

08001dfc <SystemInit>:
 8001dfc:	b480      	push	{r7}
 8001dfe:	af00      	add	r7, sp, #0
 8001e00:	4b06      	ldr	r3, [pc, #24]	; (8001e1c <SystemInit+0x20>)
 8001e02:	f8d3 3088 	ldr.w	r3, [r3, #136]	; 0x88
 8001e06:	4a05      	ldr	r2, [pc, #20]	; (8001e1c <SystemInit+0x20>)
 8001e08:	f443 0370 	orr.w	r3, r3, #15728640	; 0xf00000
 8001e0c:	f8c2 3088 	str.w	r3, [r2, #136]	; 0x88
 8001e10:	bf00      	nop
 8001e12:	46bd      	mov	sp, r7
 8001e14:	f85d 7b04 	ldr.w	r7, [sp], #4
 8001e18:	4770      	bx	lr
 8001e1a:	bf00      	nop
 8001e1c:	e000ed00 	.word	0xe000ed00

08001e20 <Reset_Handler>:
 8001e20:	480d      	ldr	r0, [pc, #52]	; (8001e58 <LoopForever+0x2>)
 8001e22:	4685      	mov	sp, r0
 8001e24:	480d      	ldr	r0, [pc, #52]	; (8001e5c <LoopForever+0x6>)
 8001e26:	490e      	ldr	r1, [pc, #56]	; (8001e60 <LoopForever+0xa>)
 8001e28:	4a0e      	ldr	r2, [pc, #56]	; (8001e64 <LoopForever+0xe>)
 8001e2a:	2300      	movs	r3, #0
 8001e2c:	e002      	b.n	8001e34 <LoopCopyDataInit>

08001e2e <CopyDataInit>:
 8001e2e:	58d4      	ldr	r4, [r2, r3]
 8001e30:	50c4      	str	r4, [r0, r3]
 8001e32:	3304      	adds	r3, #4

08001e34 <LoopCopyDataInit>:
 8001e34:	18c4      	adds	r4, r0, r3
 8001e36:	428c      	cmp	r4, r1
 8001e38:	d3f9      	bcc.n	8001e2e <CopyDataInit>
 8001e3a:	4a0b      	ldr	r2, [pc, #44]	; (8001e68 <LoopForever+0x12>)
 8001e3c:	4c0b      	ldr	r4, [pc, #44]	; (8001e6c <LoopForever+0x16>)
 8001e3e:	2300      	movs	r3, #0
 8001e40:	e001      	b.n	8001e46 <LoopFillZerobss>

08001e42 <FillZerobss>:
 8001e42:	6013      	str	r3, [r2, #0]
 8001e44:	3204      	adds	r2, #4

08001e46 <LoopFillZerobss>:
 8001e46:	42a2      	cmp	r2, r4
 8001e48:	d3fb      	bcc.n	8001e42 <FillZerobss>
 8001e4a:	f7ff ffd7 	bl	8001dfc <SystemInit>
 8001e4e:	f006 fcc3 	bl	80087d8 <__libc_init_array>
 8001e52:	f7fe fd55 	bl	8000900 <main>

08001e56 <LoopForever>:
 8001e56:	e7fe      	b.n	8001e56 <LoopForever>
 8001e58:	20008000 	.word	0x20008000
 8001e5c:	20000000 	.word	0x20000000
 8001e60:	20000014 	.word	0x20000014
 8001e64:	08008860 	.word	0x08008860
 8001e68:	20000014 	.word	0x20000014
 8001e6c:	20000384 	.word	0x20000384

08001e70 <ADC1_2_IRQHandler>:
 8001e70:	e7fe      	b.n	8001e70 <ADC1_2_IRQHandler>

08001e72 <HAL_Init>:
 8001e72:	b580      	push	{r7, lr}
 8001e74:	b082      	sub	sp, #8
 8001e76:	af00      	add	r7, sp, #0
 8001e78:	2300      	movs	r3, #0
 8001e7a:	71fb      	strb	r3, [r7, #7]
 8001e7c:	2003      	movs	r0, #3
 8001e7e:	f002 fe51 	bl	8004b24 <HAL_NVIC_SetPriorityGrouping>
 8001e82:	200f      	movs	r0, #15
 8001e84:	f000 f80e 	bl	8001ea4 <HAL_InitTick>
 8001e88:	4603      	mov	r3, r0
 8001e8a:	2b00      	cmp	r3, #0
 8001e8c:	d002      	beq.n	8001e94 <HAL_Init+0x22>
 8001e8e:	2301      	movs	r3, #1
 8001e90:	71fb      	strb	r3, [r7, #7]
 8001e92:	e001      	b.n	8001e98 <HAL_Init+0x26>
 8001e94:	f7ff fc9a 	bl	80017cc <HAL_MspInit>
 8001e98:	79fb      	ldrb	r3, [r7, #7]
 8001e9a:	4618      	mov	r0, r3
 8001e9c:	3708      	adds	r7, #8
 8001e9e:	46bd      	mov	sp, r7
 8001ea0:	bd80      	pop	{r7, pc}
	...

08001ea4 <HAL_InitTick>:
 8001ea4:	b580      	push	{r7, lr}
 8001ea6:	b084      	sub	sp, #16
 8001ea8:	af00      	add	r7, sp, #0
 8001eaa:	6078      	str	r0, [r7, #4]
 8001eac:	2300      	movs	r3, #0
 8001eae:	73fb      	strb	r3, [r7, #15]
 8001eb0:	4b16      	ldr	r3, [pc, #88]	; (8001f0c <HAL_InitTick+0x68>)
 8001eb2:	681b      	ldr	r3, [r3, #0]
 8001eb4:	2b00      	cmp	r3, #0
 8001eb6:	d022      	beq.n	8001efe <HAL_InitTick+0x5a>
 8001eb8:	4b15      	ldr	r3, [pc, #84]	; (8001f10 <HAL_InitTick+0x6c>)
 8001eba:	681a      	ldr	r2, [r3, #0]
 8001ebc:	4b13      	ldr	r3, [pc, #76]	; (8001f0c <HAL_InitTick+0x68>)
 8001ebe:	681b      	ldr	r3, [r3, #0]
 8001ec0:	f44f 717a 	mov.w	r1, #1000	; 0x3e8
 8001ec4:	fbb1 f3f3 	udiv	r3, r1, r3
 8001ec8:	fbb2 f3f3 	udiv	r3, r2, r3
 8001ecc:	4618      	mov	r0, r3
 8001ece:	f002 fe5c 	bl	8004b8a <HAL_SYSTICK_Config>
 8001ed2:	4603      	mov	r3, r0
 8001ed4:	2b00      	cmp	r3, #0
 8001ed6:	d10f      	bne.n	8001ef8 <HAL_InitTick+0x54>
 8001ed8:	687b      	ldr	r3, [r7, #4]
 8001eda:	2b0f      	cmp	r3, #15
 8001edc:	d809      	bhi.n	8001ef2 <HAL_InitTick+0x4e>
 8001ede:	2200      	movs	r2, #0
 8001ee0:	6879      	ldr	r1, [r7, #4]
 8001ee2:	f04f 30ff 	mov.w	r0, #4294967295
 8001ee6:	f002 fe28 	bl	8004b3a <HAL_NVIC_SetPriority>
 8001eea:	4a0a      	ldr	r2, [pc, #40]	; (8001f14 <HAL_InitTick+0x70>)
 8001eec:	687b      	ldr	r3, [r7, #4]
 8001eee:	6013      	str	r3, [r2, #0]
 8001ef0:	e007      	b.n	8001f02 <HAL_InitTick+0x5e>
 8001ef2:	2301      	movs	r3, #1
 8001ef4:	73fb      	strb	r3, [r7, #15]
 8001ef6:	e004      	b.n	8001f02 <HAL_InitTick+0x5e>
 8001ef8:	2301      	movs	r3, #1
 8001efa:	73fb      	strb	r3, [r7, #15]
 8001efc:	e001      	b.n	8001f02 <HAL_InitTick+0x5e>
 8001efe:	2301      	movs	r3, #1
 8001f00:	73fb      	strb	r3, [r7, #15]
 8001f02:	7bfb      	ldrb	r3, [r7, #15]
 8001f04:	4618      	mov	r0, r3
 8001f06:	3710      	adds	r7, #16
 8001f08:	46bd      	mov	sp, r7
 8001f0a:	bd80      	pop	{r7, pc}
 8001f0c:	20000010 	.word	0x20000010
 8001f10:	20000008 	.word	0x20000008
 8001f14:	2000000c 	.word	0x2000000c

08001f18 <HAL_IncTick>:
 8001f18:	b480      	push	{r7}
 8001f1a:	af00      	add	r7, sp, #0
 8001f1c:	4b05      	ldr	r3, [pc, #20]	; (8001f34 <HAL_IncTick+0x1c>)
 8001f1e:	681a      	ldr	r2, [r3, #0]
 8001f20:	4b05      	ldr	r3, [pc, #20]	; (8001f38 <HAL_IncTick+0x20>)
 8001f22:	681b      	ldr	r3, [r3, #0]
 8001f24:	4413      	add	r3, r2
 8001f26:	4a03      	ldr	r2, [pc, #12]	; (8001f34 <HAL_IncTick+0x1c>)
 8001f28:	6013      	str	r3, [r2, #0]
 8001f2a:	bf00      	nop
 8001f2c:	46bd      	mov	sp, r7
 8001f2e:	f85d 7b04 	ldr.w	r7, [sp], #4
 8001f32:	4770      	bx	lr
 8001f34:	20000380 	.word	0x20000380
 8001f38:	20000010 	.word	0x20000010

08001f3c <HAL_GetTick>:
 8001f3c:	b480      	push	{r7}
 8001f3e:	af00      	add	r7, sp, #0
 8001f40:	4b03      	ldr	r3, [pc, #12]	; (8001f50 <HAL_GetTick+0x14>)
 8001f42:	681b      	ldr	r3, [r3, #0]
 8001f44:	4618      	mov	r0, r3
 8001f46:	46bd      	mov	sp, r7
 8001f48:	f85d 7b04 	ldr.w	r7, [sp], #4
 8001f4c:	4770      	bx	lr
 8001f4e:	bf00      	nop
 8001f50:	20000380 	.word	0x20000380

08001f54 <HAL_Delay>:
 8001f54:	b580      	push	{r7, lr}
 8001f56:	b084      	sub	sp, #16
 8001f58:	af00      	add	r7, sp, #0
 8001f5a:	6078      	str	r0, [r7, #4]
 8001f5c:	f7ff ffee 	bl	8001f3c <HAL_GetTick>
 8001f60:	60b8      	str	r0, [r7, #8]
 8001f62:	687b      	ldr	r3, [r7, #4]
 8001f64:	60fb      	str	r3, [r7, #12]
 8001f66:	68fb      	ldr	r3, [r7, #12]
 8001f68:	f1b3 3fff 	cmp.w	r3, #4294967295
 8001f6c:	d004      	beq.n	8001f78 <HAL_Delay+0x24>
 8001f6e:	4b09      	ldr	r3, [pc, #36]	; (8001f94 <HAL_Delay+0x40>)
 8001f70:	681b      	ldr	r3, [r3, #0]
 8001f72:	68fa      	ldr	r2, [r7, #12]
 8001f74:	4413      	add	r3, r2
 8001f76:	60fb      	str	r3, [r7, #12]
 8001f78:	bf00      	nop
 8001f7a:	f7ff ffdf 	bl	8001f3c <HAL_GetTick>
 8001f7e:	4602      	mov	r2, r0
 8001f80:	68bb      	ldr	r3, [r7, #8]
 8001f82:	1ad3      	subs	r3, r2, r3
 8001f84:	68fa      	ldr	r2, [r7, #12]
 8001f86:	429a      	cmp	r2, r3
 8001f88:	d8f7      	bhi.n	8001f7a <HAL_Delay+0x26>
 8001f8a:	bf00      	nop
 8001f8c:	bf00      	nop
 8001f8e:	3710      	adds	r7, #16
 8001f90:	46bd      	mov	sp, r7
 8001f92:	bd80      	pop	{r7, pc}
 8001f94:	20000010 	.word	0x20000010

08001f98 <LL_ADC_SetCommonClock>:
 8001f98:	b480      	push	{r7}
 8001f9a:	b083      	sub	sp, #12
 8001f9c:	af00      	add	r7, sp, #0
 8001f9e:	6078      	str	r0, [r7, #4]
 8001fa0:	6039      	str	r1, [r7, #0]
 8001fa2:	687b      	ldr	r3, [r7, #4]
 8001fa4:	689b      	ldr	r3, [r3, #8]
 8001fa6:	f423 127c 	bic.w	r2, r3, #4128768	; 0x3f0000
 8001faa:	683b      	ldr	r3, [r7, #0]
 8001fac:	431a      	orrs	r2, r3
 8001fae:	687b      	ldr	r3, [r7, #4]
 8001fb0:	609a      	str	r2, [r3, #8]
 8001fb2:	bf00      	nop
 8001fb4:	370c      	adds	r7, #12
 8001fb6:	46bd      	mov	sp, r7
 8001fb8:	f85d 7b04 	ldr.w	r7, [sp], #4
 8001fbc:	4770      	bx	lr

08001fbe <LL_ADC_SetCommonPathInternalCh>:
 8001fbe:	b480      	push	{r7}
 8001fc0:	b083      	sub	sp, #12
 8001fc2:	af00      	add	r7, sp, #0
 8001fc4:	6078      	str	r0, [r7, #4]
 8001fc6:	6039      	str	r1, [r7, #0]
 8001fc8:	687b      	ldr	r3, [r7, #4]
 8001fca:	689b      	ldr	r3, [r3, #8]
 8001fcc:	f023 72e0 	bic.w	r2, r3, #29360128	; 0x1c00000
 8001fd0:	683b      	ldr	r3, [r7, #0]
 8001fd2:	431a      	orrs	r2, r3
 8001fd4:	687b      	ldr	r3, [r7, #4]
 8001fd6:	609a      	str	r2, [r3, #8]
 8001fd8:	bf00      	nop
 8001fda:	370c      	adds	r7, #12
 8001fdc:	46bd      	mov	sp, r7
 8001fde:	f85d 7b04 	ldr.w	r7, [sp], #4
 8001fe2:	4770      	bx	lr

08001fe4 <LL_ADC_GetCommonPathInternalCh>:
 8001fe4:	b480      	push	{r7}
 8001fe6:	b083      	sub	sp, #12
 8001fe8:	af00      	add	r7, sp, #0
 8001fea:	6078      	str	r0, [r7, #4]
 8001fec:	687b      	ldr	r3, [r7, #4]
 8001fee:	689b      	ldr	r3, [r3, #8]
 8001ff0:	f003 73e0 	and.w	r3, r3, #29360128	; 0x1c00000
 8001ff4:	4618      	mov	r0, r3
 8001ff6:	370c      	adds	r7, #12
 8001ff8:	46bd      	mov	sp, r7
 8001ffa:	f85d 7b04 	ldr.w	r7, [sp], #4
 8001ffe:	4770      	bx	lr

08002000 <LL_ADC_SetOffset>:
 8002000:	b480      	push	{r7}
 8002002:	b087      	sub	sp, #28
 8002004:	af00      	add	r7, sp, #0
 8002006:	60f8      	str	r0, [r7, #12]
 8002008:	60b9      	str	r1, [r7, #8]
 800200a:	607a      	str	r2, [r7, #4]
 800200c:	603b      	str	r3, [r7, #0]
 800200e:	68fb      	ldr	r3, [r7, #12]
 8002010:	3360      	adds	r3, #96	; 0x60
 8002012:	461a      	mov	r2, r3
 8002014:	68bb      	ldr	r3, [r7, #8]
 8002016:	009b      	lsls	r3, r3, #2
 8002018:	4413      	add	r3, r2
 800201a:	617b      	str	r3, [r7, #20]
 800201c:	697b      	ldr	r3, [r7, #20]
 800201e:	681a      	ldr	r2, [r3, #0]
 8002020:	4b08      	ldr	r3, [pc, #32]	; (8002044 <LL_ADC_SetOffset+0x44>)
 8002022:	4013      	ands	r3, r2
 8002024:	687a      	ldr	r2, [r7, #4]
 8002026:	f002 41f8 	and.w	r1, r2, #2080374784	; 0x7c000000
 800202a:	683a      	ldr	r2, [r7, #0]
 800202c:	430a      	orrs	r2, r1
 800202e:	4313      	orrs	r3, r2
 8002030:	f043 4200 	orr.w	r2, r3, #2147483648	; 0x80000000
 8002034:	697b      	ldr	r3, [r7, #20]
 8002036:	601a      	str	r2, [r3, #0]
 8002038:	bf00      	nop
 800203a:	371c      	adds	r7, #28
 800203c:	46bd      	mov	sp, r7
 800203e:	f85d 7b04 	ldr.w	r7, [sp], #4
 8002042:	4770      	bx	lr
 8002044:	03fff000 	.word	0x03fff000

08002048 <LL_ADC_GetOffsetChannel>:
 8002048:	b480      	push	{r7}
 800204a:	b085      	sub	sp, #20
 800204c:	af00      	add	r7, sp, #0
 800204e:	6078      	str	r0, [r7, #4]
 8002050:	6039      	str	r1, [r7, #0]
 8002052:	687b      	ldr	r3, [r7, #4]
 8002054:	3360      	adds	r3, #96	; 0x60
 8002056:	461a      	mov	r2, r3
 8002058:	683b      	ldr	r3, [r7, #0]
 800205a:	009b      	lsls	r3, r3, #2
 800205c:	4413      	add	r3, r2
 800205e:	60fb      	str	r3, [r7, #12]
 8002060:	68fb      	ldr	r3, [r7, #12]
 8002062:	681b      	ldr	r3, [r3, #0]
 8002064:	f003 43f8 	and.w	r3, r3, #2080374784	; 0x7c000000
 8002068:	4618      	mov	r0, r3
 800206a:	3714      	adds	r7, #20
 800206c:	46bd      	mov	sp, r7
 800206e:	f85d 7b04 	ldr.w	r7, [sp], #4
 8002072:	4770      	bx	lr

08002074 <LL_ADC_SetOffsetState>:
 8002074:	b480      	push	{r7}
 8002076:	b087      	sub	sp, #28
 8002078:	af00      	add	r7, sp, #0
 800207a:	60f8      	str	r0, [r7, #12]
 800207c:	60b9      	str	r1, [r7, #8]
 800207e:	607a      	str	r2, [r7, #4]
 8002080:	68fb      	ldr	r3, [r7, #12]
 8002082:	3360      	adds	r3, #96	; 0x60
 8002084:	461a      	mov	r2, r3
 8002086:	68bb      	ldr	r3, [r7, #8]
 8002088:	009b      	lsls	r3, r3, #2
 800208a:	4413      	add	r3, r2
 800208c:	617b      	str	r3, [r7, #20]
 800208e:	697b      	ldr	r3, [r7, #20]
 8002090:	681b      	ldr	r3, [r3, #0]
 8002092:	f023 4200 	bic.w	r2, r3, #2147483648	; 0x80000000
 8002096:	687b      	ldr	r3, [r7, #4]
 8002098:	431a      	orrs	r2, r3
 800209a:	697b      	ldr	r3, [r7, #20]
 800209c:	601a      	str	r2, [r3, #0]
 800209e:	bf00      	nop
 80020a0:	371c      	adds	r7, #28
 80020a2:	46bd      	mov	sp, r7
 80020a4:	f85d 7b04 	ldr.w	r7, [sp], #4
 80020a8:	4770      	bx	lr

080020aa <LL_ADC_SetOffsetSign>:
 80020aa:	b480      	push	{r7}
 80020ac:	b087      	sub	sp, #28
 80020ae:	af00      	add	r7, sp, #0
 80020b0:	60f8      	str	r0, [r7, #12]
 80020b2:	60b9      	str	r1, [r7, #8]
 80020b4:	607a      	str	r2, [r7, #4]
 80020b6:	68fb      	ldr	r3, [r7, #12]
 80020b8:	3360      	adds	r3, #96	; 0x60
 80020ba:	461a      	mov	r2, r3
 80020bc:	68bb      	ldr	r3, [r7, #8]
 80020be:	009b      	lsls	r3, r3, #2
 80020c0:	4413      	add	r3, r2
 80020c2:	617b      	str	r3, [r7, #20]
 80020c4:	697b      	ldr	r3, [r7, #20]
 80020c6:	681b      	ldr	r3, [r3, #0]
 80020c8:	f023 7280 	bic.w	r2, r3, #16777216	; 0x1000000
 80020cc:	687b      	ldr	r3, [r7, #4]
 80020ce:	431a      	orrs	r2, r3
 80020d0:	697b      	ldr	r3, [r7, #20]
 80020d2:	601a      	str	r2, [r3, #0]
 80020d4:	bf00      	nop
 80020d6:	371c      	adds	r7, #28
 80020d8:	46bd      	mov	sp, r7
 80020da:	f85d 7b04 	ldr.w	r7, [sp], #4
 80020de:	4770      	bx	lr

080020e0 <LL_ADC_SetOffsetSaturation>:
 80020e0:	b480      	push	{r7}
 80020e2:	b087      	sub	sp, #28
 80020e4:	af00      	add	r7, sp, #0
 80020e6:	60f8      	str	r0, [r7, #12]
 80020e8:	60b9      	str	r1, [r7, #8]
 80020ea:	607a      	str	r2, [r7, #4]
 80020ec:	68fb      	ldr	r3, [r7, #12]
 80020ee:	3360      	adds	r3, #96	; 0x60
 80020f0:	461a      	mov	r2, r3
 80020f2:	68bb      	ldr	r3, [r7, #8]
 80020f4:	009b      	lsls	r3, r3, #2
 80020f6:	4413      	add	r3, r2
 80020f8:	617b      	str	r3, [r7, #20]
 80020fa:	697b      	ldr	r3, [r7, #20]
 80020fc:	681b      	ldr	r3, [r3, #0]
 80020fe:	f023 7200 	bic.w	r2, r3, #33554432	; 0x2000000
 8002102:	687b      	ldr	r3, [r7, #4]
 8002104:	431a      	orrs	r2, r3
 8002106:	697b      	ldr	r3, [r7, #20]
 8002108:	601a      	str	r2, [r3, #0]
 800210a:	bf00      	nop
 800210c:	371c      	adds	r7, #28
 800210e:	46bd      	mov	sp, r7
 8002110:	f85d 7b04 	ldr.w	r7, [sp], #4
 8002114:	4770      	bx	lr

08002116 <LL_ADC_SetSamplingTimeCommonConfig>:
 8002116:	b480      	push	{r7}
 8002118:	b083      	sub	sp, #12
 800211a:	af00      	add	r7, sp, #0
 800211c:	6078      	str	r0, [r7, #4]
 800211e:	6039      	str	r1, [r7, #0]
 8002120:	687b      	ldr	r3, [r7, #4]
 8002122:	695b      	ldr	r3, [r3, #20]
 8002124:	f023 4200 	bic.w	r2, r3, #2147483648	; 0x80000000
 8002128:	683b      	ldr	r3, [r7, #0]
 800212a:	431a      	orrs	r2, r3
 800212c:	687b      	ldr	r3, [r7, #4]
 800212e:	615a      	str	r2, [r3, #20]
 8002130:	bf00      	nop
 8002132:	370c      	adds	r7, #12
 8002134:	46bd      	mov	sp, r7
 8002136:	f85d 7b04 	ldr.w	r7, [sp], #4
 800213a:	4770      	bx	lr

0800213c <LL_ADC_REG_IsTriggerSourceSWStart>:
 800213c:	b480      	push	{r7}
 800213e:	b083      	sub	sp, #12
 8002140:	af00      	add	r7, sp, #0
 8002142:	6078      	str	r0, [r7, #4]
 8002144:	687b      	ldr	r3, [r7, #4]
 8002146:	68db      	ldr	r3, [r3, #12]
 8002148:	f403 6340 	and.w	r3, r3, #3072	; 0xc00
 800214c:	2b00      	cmp	r3, #0
 800214e:	d101      	bne.n	8002154 <LL_ADC_REG_IsTriggerSourceSWStart+0x18>
 8002150:	2301      	movs	r3, #1
 8002152:	e000      	b.n	8002156 <LL_ADC_REG_IsTriggerSourceSWStart+0x1a>
 8002154:	2300      	movs	r3, #0
 8002156:	4618      	mov	r0, r3
 8002158:	370c      	adds	r7, #12
 800215a:	46bd      	mov	sp, r7
 800215c:	f85d 7b04 	ldr.w	r7, [sp], #4
 8002160:	4770      	bx	lr

08002162 <LL_ADC_REG_SetSequencerRanks>:
 8002162:	b480      	push	{r7}
 8002164:	b087      	sub	sp, #28
 8002166:	af00      	add	r7, sp, #0
 8002168:	60f8      	str	r0, [r7, #12]
 800216a:	60b9      	str	r1, [r7, #8]
 800216c:	607a      	str	r2, [r7, #4]
 800216e:	68fb      	ldr	r3, [r7, #12]
 8002170:	3330      	adds	r3, #48	; 0x30
 8002172:	461a      	mov	r2, r3
 8002174:	68bb      	ldr	r3, [r7, #8]
 8002176:	0a1b      	lsrs	r3, r3, #8
 8002178:	009b      	lsls	r3, r3, #2
 800217a:	f003 030c 	and.w	r3, r3, #12
 800217e:	4413      	add	r3, r2
 8002180:	617b      	str	r3, [r7, #20]
 8002182:	697b      	ldr	r3, [r7, #20]
 8002184:	681a      	ldr	r2, [r3, #0]
 8002186:	68bb      	ldr	r3, [r7, #8]
 8002188:	f003 031f 	and.w	r3, r3, #31
 800218c:	211f      	movs	r1, #31
 800218e:	fa01 f303 	lsl.w	r3, r1, r3
 8002192:	43db      	mvns	r3, r3
 8002194:	401a      	ands	r2, r3
 8002196:	687b      	ldr	r3, [r7, #4]
 8002198:	0e9b      	lsrs	r3, r3, #26
 800219a:	f003 011f 	and.w	r1, r3, #31
 800219e:	68bb      	ldr	r3, [r7, #8]
 80021a0:	f003 031f 	and.w	r3, r3, #31
 80021a4:	fa01 f303 	lsl.w	r3, r1, r3
 80021a8:	431a      	orrs	r2, r3
 80021aa:	697b      	ldr	r3, [r7, #20]
 80021ac:	601a      	str	r2, [r3, #0]
 80021ae:	bf00      	nop
 80021b0:	371c      	adds	r7, #28
 80021b2:	46bd      	mov	sp, r7
 80021b4:	f85d 7b04 	ldr.w	r7, [sp], #4
 80021b8:	4770      	bx	lr

080021ba <LL_ADC_SetChannelSamplingTime>:
 80021ba:	b480      	push	{r7}
 80021bc:	b087      	sub	sp, #28
 80021be:	af00      	add	r7, sp, #0
 80021c0:	60f8      	str	r0, [r7, #12]
 80021c2:	60b9      	str	r1, [r7, #8]
 80021c4:	607a      	str	r2, [r7, #4]
 80021c6:	68fb      	ldr	r3, [r7, #12]
 80021c8:	3314      	adds	r3, #20
 80021ca:	461a      	mov	r2, r3
 80021cc:	68bb      	ldr	r3, [r7, #8]
 80021ce:	0e5b      	lsrs	r3, r3, #25
 80021d0:	009b      	lsls	r3, r3, #2
 80021d2:	f003 0304 	and.w	r3, r3, #4
 80021d6:	4413      	add	r3, r2
 80021d8:	617b      	str	r3, [r7, #20]
 80021da:	697b      	ldr	r3, [r7, #20]
 80021dc:	681a      	ldr	r2, [r3, #0]
 80021de:	68bb      	ldr	r3, [r7, #8]
 80021e0:	0d1b      	lsrs	r3, r3, #20
 80021e2:	f003 031f 	and.w	r3, r3, #31
 80021e6:	2107      	movs	r1, #7
 80021e8:	fa01 f303 	lsl.w	r3, r1, r3
 80021ec:	43db      	mvns	r3, r3
 80021ee:	401a      	ands	r2, r3
 80021f0:	68bb      	ldr	r3, [r7, #8]
 80021f2:	0d1b      	lsrs	r3, r3, #20
 80021f4:	f003 031f 	and.w	r3, r3, #31
 80021f8:	6879      	ldr	r1, [r7, #4]
 80021fa:	fa01 f303 	lsl.w	r3, r1, r3
 80021fe:	431a      	orrs	r2, r3
 8002200:	697b      	ldr	r3, [r7, #20]
 8002202:	601a      	str	r2, [r3, #0]
 8002204:	bf00      	nop
 8002206:	371c      	adds	r7, #28
 8002208:	46bd      	mov	sp, r7
 800220a:	f85d 7b04 	ldr.w	r7, [sp], #4
 800220e:	4770      	bx	lr

08002210 <LL_ADC_SetChannelSingleDiff>:
 8002210:	b480      	push	{r7}
 8002212:	b085      	sub	sp, #20
 8002214:	af00      	add	r7, sp, #0
 8002216:	60f8      	str	r0, [r7, #12]
 8002218:	60b9      	str	r1, [r7, #8]
 800221a:	607a      	str	r2, [r7, #4]
 800221c:	687b      	ldr	r3, [r7, #4]
 800221e:	4a0f      	ldr	r2, [pc, #60]	; (800225c <LL_ADC_SetChannelSingleDiff+0x4c>)
 8002220:	4293      	cmp	r3, r2
 8002222:	d10a      	bne.n	800223a <LL_ADC_SetChannelSingleDiff+0x2a>
 8002224:	68fb      	ldr	r3, [r7, #12]
 8002226:	f8d3 20b0 	ldr.w	r2, [r3, #176]	; 0xb0
 800222a:	68bb      	ldr	r3, [r7, #8]
 800222c:	f3c3 0312 	ubfx	r3, r3, #0, #19
 8002230:	431a      	orrs	r2, r3
 8002232:	68fb      	ldr	r3, [r7, #12]
 8002234:	f8c3 20b0 	str.w	r2, [r3, #176]	; 0xb0
 8002238:	e00a      	b.n	8002250 <LL_ADC_SetChannelSingleDiff+0x40>
 800223a:	68fb      	ldr	r3, [r7, #12]
 800223c:	f8d3 20b0 	ldr.w	r2, [r3, #176]	; 0xb0
 8002240:	68bb      	ldr	r3, [r7, #8]
 8002242:	f3c3 0312 	ubfx	r3, r3, #0, #19
 8002246:	43db      	mvns	r3, r3
 8002248:	401a      	ands	r2, r3
 800224a:	68fb      	ldr	r3, [r7, #12]
 800224c:	f8c3 20b0 	str.w	r2, [r3, #176]	; 0xb0
 8002250:	bf00      	nop
 8002252:	3714      	adds	r7, #20
 8002254:	46bd      	mov	sp, r7
 8002256:	f85d 7b04 	ldr.w	r7, [sp], #4
 800225a:	4770      	bx	lr
 800225c:	407f0000 	.word	0x407f0000

08002260 <LL_ADC_DisableDeepPowerDown>:
 8002260:	b480      	push	{r7}
 8002262:	b083      	sub	sp, #12
 8002264:	af00      	add	r7, sp, #0
 8002266:	6078      	str	r0, [r7, #4]
 8002268:	687b      	ldr	r3, [r7, #4]
 800226a:	689b      	ldr	r3, [r3, #8]
 800226c:	f023 4320 	bic.w	r3, r3, #2684354560	; 0xa0000000
 8002270:	f023 033f 	bic.w	r3, r3, #63	; 0x3f
 8002274:	687a      	ldr	r2, [r7, #4]
 8002276:	6093      	str	r3, [r2, #8]
 8002278:	bf00      	nop
 800227a:	370c      	adds	r7, #12
 800227c:	46bd      	mov	sp, r7
 800227e:	f85d 7b04 	ldr.w	r7, [sp], #4
 8002282:	4770      	bx	lr

08002284 <LL_ADC_IsDeepPowerDownEnabled>:
 8002284:	b480      	push	{r7}
 8002286:	b083      	sub	sp, #12
 8002288:	af00      	add	r7, sp, #0
 800228a:	6078      	str	r0, [r7, #4]
 800228c:	687b      	ldr	r3, [r7, #4]
 800228e:	689b      	ldr	r3, [r3, #8]
 8002290:	f003 5300 	and.w	r3, r3, #536870912	; 0x20000000
 8002294:	f1b3 5f00 	cmp.w	r3, #536870912	; 0x20000000
 8002298:	d101      	bne.n	800229e <LL_ADC_IsDeepPowerDownEnabled+0x1a>
 800229a:	2301      	movs	r3, #1
 800229c:	e000      	b.n	80022a0 <LL_ADC_IsDeepPowerDownEnabled+0x1c>
 800229e:	2300      	movs	r3, #0
 80022a0:	4618      	mov	r0, r3
 80022a2:	370c      	adds	r7, #12
 80022a4:	46bd      	mov	sp, r7
 80022a6:	f85d 7b04 	ldr.w	r7, [sp], #4
 80022aa:	4770      	bx	lr

080022ac <LL_ADC_EnableInternalRegulator>:
 80022ac:	b480      	push	{r7}
 80022ae:	b083      	sub	sp, #12
 80022b0:	af00      	add	r7, sp, #0
 80022b2:	6078      	str	r0, [r7, #4]
 80022b4:	687b      	ldr	r3, [r7, #4]
 80022b6:	689b      	ldr	r3, [r3, #8]
 80022b8:	f023 4310 	bic.w	r3, r3, #2415919104	; 0x90000000
 80022bc:	f023 033f 	bic.w	r3, r3, #63	; 0x3f
 80022c0:	f043 5280 	orr.w	r2, r3, #268435456	; 0x10000000
 80022c4:	687b      	ldr	r3, [r7, #4]
 80022c6:	609a      	str	r2, [r3, #8]
 80022c8:	bf00      	nop
 80022ca:	370c      	adds	r7, #12
 80022cc:	46bd      	mov	sp, r7
 80022ce:	f85d 7b04 	ldr.w	r7, [sp], #4
 80022d2:	4770      	bx	lr

080022d4 <LL_ADC_IsInternalRegulatorEnabled>:
 80022d4:	b480      	push	{r7}
 80022d6:	b083      	sub	sp, #12
 80022d8:	af00      	add	r7, sp, #0
 80022da:	6078      	str	r0, [r7, #4]
 80022dc:	687b      	ldr	r3, [r7, #4]
 80022de:	689b      	ldr	r3, [r3, #8]
 80022e0:	f003 5380 	and.w	r3, r3, #268435456	; 0x10000000
 80022e4:	f1b3 5f80 	cmp.w	r3, #268435456	; 0x10000000
 80022e8:	d101      	bne.n	80022ee <LL_ADC_IsInternalRegulatorEnabled+0x1a>
 80022ea:	2301      	movs	r3, #1
 80022ec:	e000      	b.n	80022f0 <LL_ADC_IsInternalRegulatorEnabled+0x1c>
 80022ee:	2300      	movs	r3, #0
 80022f0:	4618      	mov	r0, r3
 80022f2:	370c      	adds	r7, #12
 80022f4:	46bd      	mov	sp, r7
 80022f6:	f85d 7b04 	ldr.w	r7, [sp], #4
 80022fa:	4770      	bx	lr

080022fc <LL_ADC_Enable>:
 80022fc:	b480      	push	{r7}
 80022fe:	b083      	sub	sp, #12
 8002300:	af00      	add	r7, sp, #0
 8002302:	6078      	str	r0, [r7, #4]
 8002304:	687b      	ldr	r3, [r7, #4]
 8002306:	689b      	ldr	r3, [r3, #8]
 8002308:	f023 4300 	bic.w	r3, r3, #2147483648	; 0x80000000
 800230c:	f023 033f 	bic.w	r3, r3, #63	; 0x3f
 8002310:	f043 0201 	orr.w	r2, r3, #1
 8002314:	687b      	ldr	r3, [r7, #4]
 8002316:	609a      	str	r2, [r3, #8]
 8002318:	bf00      	nop
 800231a:	370c      	adds	r7, #12
 800231c:	46bd      	mov	sp, r7
 800231e:	f85d 7b04 	ldr.w	r7, [sp], #4
 8002322:	4770      	bx	lr

08002324 <LL_ADC_Disable>:
 8002324:	b480      	push	{r7}
 8002326:	b083      	sub	sp, #12
 8002328:	af00      	add	r7, sp, #0
 800232a:	6078      	str	r0, [r7, #4]
 800232c:	687b      	ldr	r3, [r7, #4]
 800232e:	689b      	ldr	r3, [r3, #8]
 8002330:	f023 4300 	bic.w	r3, r3, #2147483648	; 0x80000000
 8002334:	f023 033f 	bic.w	r3, r3, #63	; 0x3f
 8002338:	f043 0202 	orr.w	r2, r3, #2
 800233c:	687b      	ldr	r3, [r7, #4]
 800233e:	609a      	str	r2, [r3, #8]
 8002340:	bf00      	nop
 8002342:	370c      	adds	r7, #12
 8002344:	46bd      	mov	sp, r7
 8002346:	f85d 7b04 	ldr.w	r7, [sp], #4
 800234a:	4770      	bx	lr

0800234c <LL_ADC_IsEnabled>:
 800234c:	b480      	push	{r7}
 800234e:	b083      	sub	sp, #12
 8002350:	af00      	add	r7, sp, #0
 8002352:	6078      	str	r0, [r7, #4]
 8002354:	687b      	ldr	r3, [r7, #4]
 8002356:	689b      	ldr	r3, [r3, #8]
 8002358:	f003 0301 	and.w	r3, r3, #1
 800235c:	2b01      	cmp	r3, #1
 800235e:	d101      	bne.n	8002364 <LL_ADC_IsEnabled+0x18>
 8002360:	2301      	movs	r3, #1
 8002362:	e000      	b.n	8002366 <LL_ADC_IsEnabled+0x1a>
 8002364:	2300      	movs	r3, #0
 8002366:	4618      	mov	r0, r3
 8002368:	370c      	adds	r7, #12
 800236a:	46bd      	mov	sp, r7
 800236c:	f85d 7b04 	ldr.w	r7, [sp], #4
 8002370:	4770      	bx	lr

08002372 <LL_ADC_IsDisableOngoing>:
 8002372:	b480      	push	{r7}
 8002374:	b083      	sub	sp, #12
 8002376:	af00      	add	r7, sp, #0
 8002378:	6078      	str	r0, [r7, #4]
 800237a:	687b      	ldr	r3, [r7, #4]
 800237c:	689b      	ldr	r3, [r3, #8]
 800237e:	f003 0302 	and.w	r3, r3, #2
 8002382:	2b02      	cmp	r3, #2
 8002384:	d101      	bne.n	800238a <LL_ADC_IsDisableOngoing+0x18>
 8002386:	2301      	movs	r3, #1
 8002388:	e000      	b.n	800238c <LL_ADC_IsDisableOngoing+0x1a>
 800238a:	2300      	movs	r3, #0
 800238c:	4618      	mov	r0, r3
 800238e:	370c      	adds	r7, #12
 8002390:	46bd      	mov	sp, r7
 8002392:	f85d 7b04 	ldr.w	r7, [sp], #4
 8002396:	4770      	bx	lr

08002398 <LL_ADC_REG_IsConversionOngoing>:
 8002398:	b480      	push	{r7}
 800239a:	b083      	sub	sp, #12
 800239c:	af00      	add	r7, sp, #0
 800239e:	6078      	str	r0, [r7, #4]
 80023a0:	687b      	ldr	r3, [r7, #4]
 80023a2:	689b      	ldr	r3, [r3, #8]
 80023a4:	f003 0304 	and.w	r3, r3, #4
 80023a8:	2b04      	cmp	r3, #4
 80023aa:	d101      	bne.n	80023b0 <LL_ADC_REG_IsConversionOngoing+0x18>
 80023ac:	2301      	movs	r3, #1
 80023ae:	e000      	b.n	80023b2 <LL_ADC_REG_IsConversionOngoing+0x1a>
 80023b0:	2300      	movs	r3, #0
 80023b2:	4618      	mov	r0, r3
 80023b4:	370c      	adds	r7, #12
 80023b6:	46bd      	mov	sp, r7
 80023b8:	f85d 7b04 	ldr.w	r7, [sp], #4
 80023bc:	4770      	bx	lr

080023be <LL_ADC_INJ_IsConversionOngoing>:
 80023be:	b480      	push	{r7}
 80023c0:	b083      	sub	sp, #12
 80023c2:	af00      	add	r7, sp, #0
 80023c4:	6078      	str	r0, [r7, #4]
 80023c6:	687b      	ldr	r3, [r7, #4]
 80023c8:	689b      	ldr	r3, [r3, #8]
 80023ca:	f003 0308 	and.w	r3, r3, #8
 80023ce:	2b08      	cmp	r3, #8
 80023d0:	d101      	bne.n	80023d6 <LL_ADC_INJ_IsConversionOngoing+0x18>
 80023d2:	2301      	movs	r3, #1
 80023d4:	e000      	b.n	80023d8 <LL_ADC_INJ_IsConversionOngoing+0x1a>
 80023d6:	2300      	movs	r3, #0
 80023d8:	4618      	mov	r0, r3
 80023da:	370c      	adds	r7, #12
 80023dc:	46bd      	mov	sp, r7
 80023de:	f85d 7b04 	ldr.w	r7, [sp], #4
 80023e2:	4770      	bx	lr

080023e4 <HAL_ADC_Init>:
 80023e4:	b590      	push	{r4, r7, lr}
 80023e6:	b089      	sub	sp, #36	; 0x24
 80023e8:	af00      	add	r7, sp, #0
 80023ea:	6078      	str	r0, [r7, #4]
 80023ec:	2300      	movs	r3, #0
 80023ee:	77fb      	strb	r3, [r7, #31]
 80023f0:	2300      	movs	r3, #0
 80023f2:	60bb      	str	r3, [r7, #8]
 80023f4:	687b      	ldr	r3, [r7, #4]
 80023f6:	2b00      	cmp	r3, #0
 80023f8:	d101      	bne.n	80023fe <HAL_ADC_Init+0x1a>
 80023fa:	2301      	movs	r3, #1
 80023fc:	e177      	b.n	80026ee <HAL_ADC_Init+0x30a>
 80023fe:	687b      	ldr	r3, [r7, #4]
 8002400:	695b      	ldr	r3, [r3, #20]
 8002402:	2b00      	cmp	r3, #0
 8002404:	687b      	ldr	r3, [r7, #4]
 8002406:	6ddb      	ldr	r3, [r3, #92]	; 0x5c
 8002408:	2b00      	cmp	r3, #0
 800240a:	d109      	bne.n	8002420 <HAL_ADC_Init+0x3c>
 800240c:	6878      	ldr	r0, [r7, #4]
 800240e:	f7ff fa01 	bl	8001814 <HAL_ADC_MspInit>
 8002412:	687b      	ldr	r3, [r7, #4]
 8002414:	2200      	movs	r2, #0
 8002416:	661a      	str	r2, [r3, #96]	; 0x60
 8002418:	687b      	ldr	r3, [r7, #4]
 800241a:	2200      	movs	r2, #0
 800241c:	f883 2058 	strb.w	r2, [r3, #88]	; 0x58
 8002420:	687b      	ldr	r3, [r7, #4]
 8002422:	681b      	ldr	r3, [r3, #0]
 8002424:	4618      	mov	r0, r3
 8002426:	f7ff ff2d 	bl	8002284 <LL_ADC_IsDeepPowerDownEnabled>
 800242a:	4603      	mov	r3, r0
 800242c:	2b00      	cmp	r3, #0
 800242e:	d004      	beq.n	800243a <HAL_ADC_Init+0x56>
 8002430:	687b      	ldr	r3, [r7, #4]
 8002432:	681b      	ldr	r3, [r3, #0]
 8002434:	4618      	mov	r0, r3
 8002436:	f7ff ff13 	bl	8002260 <LL_ADC_DisableDeepPowerDown>
 800243a:	687b      	ldr	r3, [r7, #4]
 800243c:	681b      	ldr	r3, [r3, #0]
 800243e:	4618      	mov	r0, r3
 8002440:	f7ff ff48 	bl	80022d4 <LL_ADC_IsInternalRegulatorEnabled>
 8002444:	4603      	mov	r3, r0
 8002446:	2b00      	cmp	r3, #0
 8002448:	d115      	bne.n	8002476 <HAL_ADC_Init+0x92>
 800244a:	687b      	ldr	r3, [r7, #4]
 800244c:	681b      	ldr	r3, [r3, #0]
 800244e:	4618      	mov	r0, r3
 8002450:	f7ff ff2c 	bl	80022ac <LL_ADC_EnableInternalRegulator>
 8002454:	4b9c      	ldr	r3, [pc, #624]	; (80026c8 <HAL_ADC_Init+0x2e4>)
 8002456:	681b      	ldr	r3, [r3, #0]
 8002458:	099b      	lsrs	r3, r3, #6
 800245a:	4a9c      	ldr	r2, [pc, #624]	; (80026cc <HAL_ADC_Init+0x2e8>)
 800245c:	fba2 2303 	umull	r2, r3, r2, r3
 8002460:	099b      	lsrs	r3, r3, #6
 8002462:	3301      	adds	r3, #1
 8002464:	005b      	lsls	r3, r3, #1
 8002466:	60bb      	str	r3, [r7, #8]
 8002468:	e002      	b.n	8002470 <HAL_ADC_Init+0x8c>
 800246a:	68bb      	ldr	r3, [r7, #8]
 800246c:	3b01      	subs	r3, #1
 800246e:	60bb      	str	r3, [r7, #8]
 8002470:	68bb      	ldr	r3, [r7, #8]
 8002472:	2b00      	cmp	r3, #0
 8002474:	d1f9      	bne.n	800246a <HAL_ADC_Init+0x86>
 8002476:	687b      	ldr	r3, [r7, #4]
 8002478:	681b      	ldr	r3, [r3, #0]
 800247a:	4618      	mov	r0, r3
 800247c:	f7ff ff2a 	bl	80022d4 <LL_ADC_IsInternalRegulatorEnabled>
 8002480:	4603      	mov	r3, r0
 8002482:	2b00      	cmp	r3, #0
 8002484:	d10d      	bne.n	80024a2 <HAL_ADC_Init+0xbe>
 8002486:	687b      	ldr	r3, [r7, #4]
 8002488:	6ddb      	ldr	r3, [r3, #92]	; 0x5c
 800248a:	f043 0210 	orr.w	r2, r3, #16
 800248e:	687b      	ldr	r3, [r7, #4]
 8002490:	65da      	str	r2, [r3, #92]	; 0x5c
 8002492:	687b      	ldr	r3, [r7, #4]
 8002494:	6e1b      	ldr	r3, [r3, #96]	; 0x60
 8002496:	f043 0201 	orr.w	r2, r3, #1
 800249a:	687b      	ldr	r3, [r7, #4]
 800249c:	661a      	str	r2, [r3, #96]	; 0x60
 800249e:	2301      	movs	r3, #1
 80024a0:	77fb      	strb	r3, [r7, #31]
 80024a2:	687b      	ldr	r3, [r7, #4]
 80024a4:	681b      	ldr	r3, [r3, #0]
 80024a6:	4618      	mov	r0, r3
 80024a8:	f7ff ff76 	bl	8002398 <LL_ADC_REG_IsConversionOngoing>
 80024ac:	6178      	str	r0, [r7, #20]
 80024ae:	687b      	ldr	r3, [r7, #4]
 80024b0:	6ddb      	ldr	r3, [r3, #92]	; 0x5c
 80024b2:	f003 0310 	and.w	r3, r3, #16
 80024b6:	2b00      	cmp	r3, #0
 80024b8:	f040 8110 	bne.w	80026dc <HAL_ADC_Init+0x2f8>
 80024bc:	697b      	ldr	r3, [r7, #20]
 80024be:	2b00      	cmp	r3, #0
 80024c0:	f040 810c 	bne.w	80026dc <HAL_ADC_Init+0x2f8>
 80024c4:	687b      	ldr	r3, [r7, #4]
 80024c6:	6ddb      	ldr	r3, [r3, #92]	; 0x5c
 80024c8:	f423 7381 	bic.w	r3, r3, #258	; 0x102
 80024cc:	f043 0202 	orr.w	r2, r3, #2
 80024d0:	687b      	ldr	r3, [r7, #4]
 80024d2:	65da      	str	r2, [r3, #92]	; 0x5c
 80024d4:	687b      	ldr	r3, [r7, #4]
 80024d6:	681b      	ldr	r3, [r3, #0]
 80024d8:	4618      	mov	r0, r3
 80024da:	f7ff ff37 	bl	800234c <LL_ADC_IsEnabled>
 80024de:	4603      	mov	r3, r0
 80024e0:	2b00      	cmp	r3, #0
 80024e2:	d111      	bne.n	8002508 <HAL_ADC_Init+0x124>
 80024e4:	f04f 40a0 	mov.w	r0, #1342177280	; 0x50000000
 80024e8:	f7ff ff30 	bl	800234c <LL_ADC_IsEnabled>
 80024ec:	4604      	mov	r4, r0
 80024ee:	4878      	ldr	r0, [pc, #480]	; (80026d0 <HAL_ADC_Init+0x2ec>)
 80024f0:	f7ff ff2c 	bl	800234c <LL_ADC_IsEnabled>
 80024f4:	4603      	mov	r3, r0
 80024f6:	4323      	orrs	r3, r4
 80024f8:	2b00      	cmp	r3, #0
 80024fa:	d105      	bne.n	8002508 <HAL_ADC_Init+0x124>
 80024fc:	687b      	ldr	r3, [r7, #4]
 80024fe:	685b      	ldr	r3, [r3, #4]
 8002500:	4619      	mov	r1, r3
 8002502:	4874      	ldr	r0, [pc, #464]	; (80026d4 <HAL_ADC_Init+0x2f0>)
 8002504:	f7ff fd48 	bl	8001f98 <LL_ADC_SetCommonClock>
 8002508:	687b      	ldr	r3, [r7, #4]
 800250a:	7f5b      	ldrb	r3, [r3, #29]
 800250c:	035a      	lsls	r2, r3, #13
 800250e:	687b      	ldr	r3, [r7, #4]
 8002510:	6bdb      	ldr	r3, [r3, #60]	; 0x3c
 8002512:	431a      	orrs	r2, r3
 8002514:	687b      	ldr	r3, [r7, #4]
 8002516:	68db      	ldr	r3, [r3, #12]
 8002518:	431a      	orrs	r2, r3
 800251a:	687b      	ldr	r3, [r7, #4]
 800251c:	689b      	ldr	r3, [r3, #8]
 800251e:	431a      	orrs	r2, r3
 8002520:	687b      	ldr	r3, [r7, #4]
 8002522:	f893 3024 	ldrb.w	r3, [r3, #36]	; 0x24
 8002526:	041b      	lsls	r3, r3, #16
 8002528:	4313      	orrs	r3, r2
 800252a:	61bb      	str	r3, [r7, #24]
 800252c:	687b      	ldr	r3, [r7, #4]
 800252e:	f893 3024 	ldrb.w	r3, [r3, #36]	; 0x24
 8002532:	2b01      	cmp	r3, #1
 8002534:	d106      	bne.n	8002544 <HAL_ADC_Init+0x160>
 8002536:	687b      	ldr	r3, [r7, #4]
 8002538:	6a9b      	ldr	r3, [r3, #40]	; 0x28
 800253a:	3b01      	subs	r3, #1
 800253c:	045b      	lsls	r3, r3, #17
 800253e:	69ba      	ldr	r2, [r7, #24]
 8002540:	4313      	orrs	r3, r2
 8002542:	61bb      	str	r3, [r7, #24]
 8002544:	687b      	ldr	r3, [r7, #4]
 8002546:	6adb      	ldr	r3, [r3, #44]	; 0x2c
 8002548:	2b00      	cmp	r3, #0
 800254a:	d009      	beq.n	8002560 <HAL_ADC_Init+0x17c>
 800254c:	687b      	ldr	r3, [r7, #4]
 800254e:	6adb      	ldr	r3, [r3, #44]	; 0x2c
 8002550:	f403 7278 	and.w	r2, r3, #992	; 0x3e0
 8002554:	687b      	ldr	r3, [r7, #4]
 8002556:	6b1b      	ldr	r3, [r3, #48]	; 0x30
 8002558:	4313      	orrs	r3, r2
 800255a:	69ba      	ldr	r2, [r7, #24]
 800255c:	4313      	orrs	r3, r2
 800255e:	61bb      	str	r3, [r7, #24]
 8002560:	687b      	ldr	r3, [r7, #4]
 8002562:	681b      	ldr	r3, [r3, #0]
 8002564:	68da      	ldr	r2, [r3, #12]
 8002566:	4b5c      	ldr	r3, [pc, #368]	; (80026d8 <HAL_ADC_Init+0x2f4>)
 8002568:	4013      	ands	r3, r2
 800256a:	687a      	ldr	r2, [r7, #4]
 800256c:	6812      	ldr	r2, [r2, #0]
 800256e:	69b9      	ldr	r1, [r7, #24]
 8002570:	430b      	orrs	r3, r1
 8002572:	60d3      	str	r3, [r2, #12]
 8002574:	687b      	ldr	r3, [r7, #4]
 8002576:	681b      	ldr	r3, [r3, #0]
 8002578:	691b      	ldr	r3, [r3, #16]
 800257a:	f023 6140 	bic.w	r1, r3, #201326592	; 0xc000000
 800257e:	687b      	ldr	r3, [r7, #4]
 8002580:	6b5a      	ldr	r2, [r3, #52]	; 0x34
 8002582:	687b      	ldr	r3, [r7, #4]
 8002584:	681b      	ldr	r3, [r3, #0]
 8002586:	430a      	orrs	r2, r1
 8002588:	611a      	str	r2, [r3, #16]
 800258a:	687b      	ldr	r3, [r7, #4]
 800258c:	681b      	ldr	r3, [r3, #0]
 800258e:	4618      	mov	r0, r3
 8002590:	f7ff ff02 	bl	8002398 <LL_ADC_REG_IsConversionOngoing>
 8002594:	6138      	str	r0, [r7, #16]
 8002596:	687b      	ldr	r3, [r7, #4]
 8002598:	681b      	ldr	r3, [r3, #0]
 800259a:	4618      	mov	r0, r3
 800259c:	f7ff ff0f 	bl	80023be <LL_ADC_INJ_IsConversionOngoing>
 80025a0:	60f8      	str	r0, [r7, #12]
 80025a2:	693b      	ldr	r3, [r7, #16]
 80025a4:	2b00      	cmp	r3, #0
 80025a6:	d16d      	bne.n	8002684 <HAL_ADC_Init+0x2a0>
 80025a8:	68fb      	ldr	r3, [r7, #12]
 80025aa:	2b00      	cmp	r3, #0
 80025ac:	d16a      	bne.n	8002684 <HAL_ADC_Init+0x2a0>
 80025ae:	687b      	ldr	r3, [r7, #4]
 80025b0:	7f1b      	ldrb	r3, [r3, #28]
 80025b2:	039a      	lsls	r2, r3, #14
 80025b4:	687b      	ldr	r3, [r7, #4]
 80025b6:	f893 3038 	ldrb.w	r3, [r3, #56]	; 0x38
 80025ba:	005b      	lsls	r3, r3, #1
 80025bc:	4313      	orrs	r3, r2
 80025be:	61bb      	str	r3, [r7, #24]
 80025c0:	687b      	ldr	r3, [r7, #4]
 80025c2:	681b      	ldr	r3, [r3, #0]
 80025c4:	68db      	ldr	r3, [r3, #12]
 80025c6:	f423 4380 	bic.w	r3, r3, #16384	; 0x4000
 80025ca:	f023 0302 	bic.w	r3, r3, #2
 80025ce:	687a      	ldr	r2, [r7, #4]
 80025d0:	6812      	ldr	r2, [r2, #0]
 80025d2:	69b9      	ldr	r1, [r7, #24]
 80025d4:	430b      	orrs	r3, r1
 80025d6:	60d3      	str	r3, [r2, #12]
 80025d8:	687b      	ldr	r3, [r7, #4]
 80025da:	691b      	ldr	r3, [r3, #16]
 80025dc:	2b00      	cmp	r3, #0
 80025de:	d017      	beq.n	8002610 <HAL_ADC_Init+0x22c>
 80025e0:	687b      	ldr	r3, [r7, #4]
 80025e2:	681b      	ldr	r3, [r3, #0]
 80025e4:	691a      	ldr	r2, [r3, #16]
 80025e6:	687b      	ldr	r3, [r7, #4]
 80025e8:	681b      	ldr	r3, [r3, #0]
 80025ea:	f442 3280 	orr.w	r2, r2, #65536	; 0x10000
 80025ee:	611a      	str	r2, [r3, #16]
 80025f0:	687b      	ldr	r3, [r7, #4]
 80025f2:	681b      	ldr	r3, [r3, #0]
 80025f4:	f8d3 30c0 	ldr.w	r3, [r3, #192]	; 0xc0
 80025f8:	f423 537f 	bic.w	r3, r3, #16320	; 0x3fc0
 80025fc:	f023 033f 	bic.w	r3, r3, #63	; 0x3f
 8002600:	687a      	ldr	r2, [r7, #4]
 8002602:	6911      	ldr	r1, [r2, #16]
 8002604:	687a      	ldr	r2, [r7, #4]
 8002606:	6812      	ldr	r2, [r2, #0]
 8002608:	430b      	orrs	r3, r1
 800260a:	f8c2 30c0 	str.w	r3, [r2, #192]	; 0xc0
 800260e:	e013      	b.n	8002638 <HAL_ADC_Init+0x254>
 8002610:	687b      	ldr	r3, [r7, #4]
 8002612:	681b      	ldr	r3, [r3, #0]
 8002614:	691a      	ldr	r2, [r3, #16]
 8002616:	687b      	ldr	r3, [r7, #4]
 8002618:	681b      	ldr	r3, [r3, #0]
 800261a:	f422 3280 	bic.w	r2, r2, #65536	; 0x10000
 800261e:	611a      	str	r2, [r3, #16]
 8002620:	687b      	ldr	r3, [r7, #4]
 8002622:	681b      	ldr	r3, [r3, #0]
 8002624:	f8d3 30c0 	ldr.w	r3, [r3, #192]	; 0xc0
 8002628:	687a      	ldr	r2, [r7, #4]
 800262a:	6812      	ldr	r2, [r2, #0]
 800262c:	f423 537f 	bic.w	r3, r3, #16320	; 0x3fc0
 8002630:	f023 033f 	bic.w	r3, r3, #63	; 0x3f
 8002634:	f8c2 30c0 	str.w	r3, [r2, #192]	; 0xc0
 8002638:	687b      	ldr	r3, [r7, #4]
 800263a:	f893 3040 	ldrb.w	r3, [r3, #64]	; 0x40
 800263e:	2b01      	cmp	r3, #1
 8002640:	d118      	bne.n	8002674 <HAL_ADC_Init+0x290>
 8002642:	687b      	ldr	r3, [r7, #4]
 8002644:	681b      	ldr	r3, [r3, #0]
 8002646:	691b      	ldr	r3, [r3, #16]
 8002648:	f423 63ff 	bic.w	r3, r3, #2040	; 0x7f8
 800264c:	f023 0304 	bic.w	r3, r3, #4
 8002650:	687a      	ldr	r2, [r7, #4]
 8002652:	6c51      	ldr	r1, [r2, #68]	; 0x44
 8002654:	687a      	ldr	r2, [r7, #4]
 8002656:	6c92      	ldr	r2, [r2, #72]	; 0x48
 8002658:	4311      	orrs	r1, r2
 800265a:	687a      	ldr	r2, [r7, #4]
 800265c:	6cd2      	ldr	r2, [r2, #76]	; 0x4c
 800265e:	4311      	orrs	r1, r2
 8002660:	687a      	ldr	r2, [r7, #4]
 8002662:	6d12      	ldr	r2, [r2, #80]	; 0x50
 8002664:	430a      	orrs	r2, r1
 8002666:	431a      	orrs	r2, r3
 8002668:	687b      	ldr	r3, [r7, #4]
 800266a:	681b      	ldr	r3, [r3, #0]
 800266c:	f042 0201 	orr.w	r2, r2, #1
 8002670:	611a      	str	r2, [r3, #16]
 8002672:	e007      	b.n	8002684 <HAL_ADC_Init+0x2a0>
 8002674:	687b      	ldr	r3, [r7, #4]
 8002676:	681b      	ldr	r3, [r3, #0]
 8002678:	691a      	ldr	r2, [r3, #16]
 800267a:	687b      	ldr	r3, [r7, #4]
 800267c:	681b      	ldr	r3, [r3, #0]
 800267e:	f022 0201 	bic.w	r2, r2, #1
 8002682:	611a      	str	r2, [r3, #16]
 8002684:	687b      	ldr	r3, [r7, #4]
 8002686:	695b      	ldr	r3, [r3, #20]
 8002688:	2b01      	cmp	r3, #1
 800268a:	d10c      	bne.n	80026a6 <HAL_ADC_Init+0x2c2>
 800268c:	687b      	ldr	r3, [r7, #4]
 800268e:	681b      	ldr	r3, [r3, #0]
 8002690:	6b1b      	ldr	r3, [r3, #48]	; 0x30
 8002692:	f023 010f 	bic.w	r1, r3, #15
 8002696:	687b      	ldr	r3, [r7, #4]
 8002698:	6a1b      	ldr	r3, [r3, #32]
 800269a:	1e5a      	subs	r2, r3, #1
 800269c:	687b      	ldr	r3, [r7, #4]
 800269e:	681b      	ldr	r3, [r3, #0]
 80026a0:	430a      	orrs	r2, r1
 80026a2:	631a      	str	r2, [r3, #48]	; 0x30
 80026a4:	e007      	b.n	80026b6 <HAL_ADC_Init+0x2d2>
 80026a6:	687b      	ldr	r3, [r7, #4]
 80026a8:	681b      	ldr	r3, [r3, #0]
 80026aa:	6b1a      	ldr	r2, [r3, #48]	; 0x30
 80026ac:	687b      	ldr	r3, [r7, #4]
 80026ae:	681b      	ldr	r3, [r3, #0]
 80026b0:	f022 020f 	bic.w	r2, r2, #15
 80026b4:	631a      	str	r2, [r3, #48]	; 0x30
 80026b6:	687b      	ldr	r3, [r7, #4]
 80026b8:	6ddb      	ldr	r3, [r3, #92]	; 0x5c
 80026ba:	f023 0303 	bic.w	r3, r3, #3
 80026be:	f043 0201 	orr.w	r2, r3, #1
 80026c2:	687b      	ldr	r3, [r7, #4]
 80026c4:	65da      	str	r2, [r3, #92]	; 0x5c
 80026c6:	e011      	b.n	80026ec <HAL_ADC_Init+0x308>
 80026c8:	20000008 	.word	0x20000008
 80026cc:	053e2d63 	.word	0x053e2d63
 80026d0:	50000100 	.word	0x50000100
 80026d4:	50000300 	.word	0x50000300
 80026d8:	fff04007 	.word	0xfff04007
 80026dc:	687b      	ldr	r3, [r7, #4]
 80026de:	6ddb      	ldr	r3, [r3, #92]	; 0x5c
 80026e0:	f043 0210 	orr.w	r2, r3, #16
 80026e4:	687b      	ldr	r3, [r7, #4]
 80026e6:	65da      	str	r2, [r3, #92]	; 0x5c
 80026e8:	2301      	movs	r3, #1
 80026ea:	77fb      	strb	r3, [r7, #31]
 80026ec:	7ffb      	ldrb	r3, [r7, #31]
 80026ee:	4618      	mov	r0, r3
 80026f0:	3724      	adds	r7, #36	; 0x24
 80026f2:	46bd      	mov	sp, r7
 80026f4:	bd90      	pop	{r4, r7, pc}
 80026f6:	bf00      	nop

080026f8 <HAL_ADC_ConvCpltCallback>:
 80026f8:	b480      	push	{r7}
 80026fa:	b083      	sub	sp, #12
 80026fc:	af00      	add	r7, sp, #0
 80026fe:	6078      	str	r0, [r7, #4]
 8002700:	bf00      	nop
 8002702:	370c      	adds	r7, #12
 8002704:	46bd      	mov	sp, r7
 8002706:	f85d 7b04 	ldr.w	r7, [sp], #4
 800270a:	4770      	bx	lr

0800270c <HAL_ADC_ConvHalfCpltCallback>:
 800270c:	b480      	push	{r7}
 800270e:	b083      	sub	sp, #12
 8002710:	af00      	add	r7, sp, #0
 8002712:	6078      	str	r0, [r7, #4]
 8002714:	bf00      	nop
 8002716:	370c      	adds	r7, #12
 8002718:	46bd      	mov	sp, r7
 800271a:	f85d 7b04 	ldr.w	r7, [sp], #4
 800271e:	4770      	bx	lr

08002720 <HAL_ADC_ErrorCallback>:
 8002720:	b480      	push	{r7}
 8002722:	b083      	sub	sp, #12
 8002724:	af00      	add	r7, sp, #0
 8002726:	6078      	str	r0, [r7, #4]
 8002728:	bf00      	nop
 800272a:	370c      	adds	r7, #12
 800272c:	46bd      	mov	sp, r7
 800272e:	f85d 7b04 	ldr.w	r7, [sp], #4
 8002732:	4770      	bx	lr

08002734 <HAL_ADC_ConfigChannel>:
 8002734:	b580      	push	{r7, lr}
 8002736:	b0b6      	sub	sp, #216	; 0xd8
 8002738:	af00      	add	r7, sp, #0
 800273a:	6078      	str	r0, [r7, #4]
 800273c:	6039      	str	r1, [r7, #0]
 800273e:	2300      	movs	r3, #0
 8002740:	f887 30d7 	strb.w	r3, [r7, #215]	; 0xd7
 8002744:	2300      	movs	r3, #0
 8002746:	60fb      	str	r3, [r7, #12]
 8002748:	687b      	ldr	r3, [r7, #4]
 800274a:	f893 3058 	ldrb.w	r3, [r3, #88]	; 0x58
 800274e:	2b01      	cmp	r3, #1
 8002750:	d101      	bne.n	8002756 <HAL_ADC_ConfigChannel+0x22>
 8002752:	2302      	movs	r3, #2
 8002754:	e3c8      	b.n	8002ee8 <HAL_ADC_ConfigChannel+0x7b4>
 8002756:	687b      	ldr	r3, [r7, #4]
 8002758:	2201      	movs	r2, #1
 800275a:	f883 2058 	strb.w	r2, [r3, #88]	; 0x58
 800275e:	687b      	ldr	r3, [r7, #4]
 8002760:	681b      	ldr	r3, [r3, #0]
 8002762:	4618      	mov	r0, r3
 8002764:	f7ff fe18 	bl	8002398 <LL_ADC_REG_IsConversionOngoing>
 8002768:	4603      	mov	r3, r0
 800276a:	2b00      	cmp	r3, #0
 800276c:	f040 83ad 	bne.w	8002eca <HAL_ADC_ConfigChannel+0x796>
 8002770:	687b      	ldr	r3, [r7, #4]
 8002772:	6818      	ldr	r0, [r3, #0]
 8002774:	683b      	ldr	r3, [r7, #0]
 8002776:	6859      	ldr	r1, [r3, #4]
 8002778:	683b      	ldr	r3, [r7, #0]
 800277a:	681b      	ldr	r3, [r3, #0]
 800277c:	461a      	mov	r2, r3
 800277e:	f7ff fcf0 	bl	8002162 <LL_ADC_REG_SetSequencerRanks>
 8002782:	687b      	ldr	r3, [r7, #4]
 8002784:	681b      	ldr	r3, [r3, #0]
 8002786:	4618      	mov	r0, r3
 8002788:	f7ff fe06 	bl	8002398 <LL_ADC_REG_IsConversionOngoing>
 800278c:	f8c7 00d0 	str.w	r0, [r7, #208]	; 0xd0
 8002790:	687b      	ldr	r3, [r7, #4]
 8002792:	681b      	ldr	r3, [r3, #0]
 8002794:	4618      	mov	r0, r3
 8002796:	f7ff fe12 	bl	80023be <LL_ADC_INJ_IsConversionOngoing>
 800279a:	f8c7 00cc 	str.w	r0, [r7, #204]	; 0xcc
 800279e:	f8d7 30d0 	ldr.w	r3, [r7, #208]	; 0xd0
 80027a2:	2b00      	cmp	r3, #0
 80027a4:	f040 81d9 	bne.w	8002b5a <HAL_ADC_ConfigChannel+0x426>
 80027a8:	f8d7 30cc 	ldr.w	r3, [r7, #204]	; 0xcc
 80027ac:	2b00      	cmp	r3, #0
 80027ae:	f040 81d4 	bne.w	8002b5a <HAL_ADC_ConfigChannel+0x426>
 80027b2:	683b      	ldr	r3, [r7, #0]
 80027b4:	689b      	ldr	r3, [r3, #8]
 80027b6:	f1b3 4f00 	cmp.w	r3, #2147483648	; 0x80000000
 80027ba:	d10f      	bne.n	80027dc <HAL_ADC_ConfigChannel+0xa8>
 80027bc:	687b      	ldr	r3, [r7, #4]
 80027be:	6818      	ldr	r0, [r3, #0]
 80027c0:	683b      	ldr	r3, [r7, #0]
 80027c2:	681b      	ldr	r3, [r3, #0]
 80027c4:	2200      	movs	r2, #0
 80027c6:	4619      	mov	r1, r3
 80027c8:	f7ff fcf7 	bl	80021ba <LL_ADC_SetChannelSamplingTime>
 80027cc:	687b      	ldr	r3, [r7, #4]
 80027ce:	681b      	ldr	r3, [r3, #0]
 80027d0:	f04f 4100 	mov.w	r1, #2147483648	; 0x80000000
 80027d4:	4618      	mov	r0, r3
 80027d6:	f7ff fc9e 	bl	8002116 <LL_ADC_SetSamplingTimeCommonConfig>
 80027da:	e00e      	b.n	80027fa <HAL_ADC_ConfigChannel+0xc6>
 80027dc:	687b      	ldr	r3, [r7, #4]
 80027de:	6818      	ldr	r0, [r3, #0]
 80027e0:	683b      	ldr	r3, [r7, #0]
 80027e2:	6819      	ldr	r1, [r3, #0]
 80027e4:	683b      	ldr	r3, [r7, #0]
 80027e6:	689b      	ldr	r3, [r3, #8]
 80027e8:	461a      	mov	r2, r3
 80027ea:	f7ff fce6 	bl	80021ba <LL_ADC_SetChannelSamplingTime>
 80027ee:	687b      	ldr	r3, [r7, #4]
 80027f0:	681b      	ldr	r3, [r3, #0]
 80027f2:	2100      	movs	r1, #0
 80027f4:	4618      	mov	r0, r3
 80027f6:	f7ff fc8e 	bl	8002116 <LL_ADC_SetSamplingTimeCommonConfig>
 80027fa:	683b      	ldr	r3, [r7, #0]
 80027fc:	695a      	ldr	r2, [r3, #20]
 80027fe:	687b      	ldr	r3, [r7, #4]
 8002800:	681b      	ldr	r3, [r3, #0]
 8002802:	68db      	ldr	r3, [r3, #12]
 8002804:	08db      	lsrs	r3, r3, #3
 8002806:	f003 0303 	and.w	r3, r3, #3
 800280a:	005b      	lsls	r3, r3, #1
 800280c:	fa02 f303 	lsl.w	r3, r2, r3
 8002810:	f8c7 30c8 	str.w	r3, [r7, #200]	; 0xc8
 8002814:	683b      	ldr	r3, [r7, #0]
 8002816:	691b      	ldr	r3, [r3, #16]
 8002818:	2b04      	cmp	r3, #4
 800281a:	d022      	beq.n	8002862 <HAL_ADC_ConfigChannel+0x12e>
 800281c:	687b      	ldr	r3, [r7, #4]
 800281e:	6818      	ldr	r0, [r3, #0]
 8002820:	683b      	ldr	r3, [r7, #0]
 8002822:	6919      	ldr	r1, [r3, #16]
 8002824:	683b      	ldr	r3, [r7, #0]
 8002826:	681a      	ldr	r2, [r3, #0]
 8002828:	f8d7 30c8 	ldr.w	r3, [r7, #200]	; 0xc8
 800282c:	f7ff fbe8 	bl	8002000 <LL_ADC_SetOffset>
 8002830:	687b      	ldr	r3, [r7, #4]
 8002832:	6818      	ldr	r0, [r3, #0]
 8002834:	683b      	ldr	r3, [r7, #0]
 8002836:	6919      	ldr	r1, [r3, #16]
 8002838:	683b      	ldr	r3, [r7, #0]
 800283a:	699b      	ldr	r3, [r3, #24]
 800283c:	461a      	mov	r2, r3
 800283e:	f7ff fc34 	bl	80020aa <LL_ADC_SetOffsetSign>
 8002842:	687b      	ldr	r3, [r7, #4]
 8002844:	6818      	ldr	r0, [r3, #0]
 8002846:	683b      	ldr	r3, [r7, #0]
 8002848:	6919      	ldr	r1, [r3, #16]
 800284a:	683b      	ldr	r3, [r7, #0]
 800284c:	7f1b      	ldrb	r3, [r3, #28]
 800284e:	2b01      	cmp	r3, #1
 8002850:	d102      	bne.n	8002858 <HAL_ADC_ConfigChannel+0x124>
 8002852:	f04f 7300 	mov.w	r3, #33554432	; 0x2000000
 8002856:	e000      	b.n	800285a <HAL_ADC_ConfigChannel+0x126>
 8002858:	2300      	movs	r3, #0
 800285a:	461a      	mov	r2, r3
 800285c:	f7ff fc40 	bl	80020e0 <LL_ADC_SetOffsetSaturation>
 8002860:	e17b      	b.n	8002b5a <HAL_ADC_ConfigChannel+0x426>
 8002862:	687b      	ldr	r3, [r7, #4]
 8002864:	681b      	ldr	r3, [r3, #0]
 8002866:	2100      	movs	r1, #0
 8002868:	4618      	mov	r0, r3
 800286a:	f7ff fbed 	bl	8002048 <LL_ADC_GetOffsetChannel>
 800286e:	4603      	mov	r3, r0
 8002870:	f3c3 0312 	ubfx	r3, r3, #0, #19
 8002874:	2b00      	cmp	r3, #0
 8002876:	d10a      	bne.n	800288e <HAL_ADC_ConfigChannel+0x15a>
 8002878:	687b      	ldr	r3, [r7, #4]
 800287a:	681b      	ldr	r3, [r3, #0]
 800287c:	2100      	movs	r1, #0
 800287e:	4618      	mov	r0, r3
 8002880:	f7ff fbe2 	bl	8002048 <LL_ADC_GetOffsetChannel>
 8002884:	4603      	mov	r3, r0
 8002886:	0e9b      	lsrs	r3, r3, #26
 8002888:	f003 021f 	and.w	r2, r3, #31
 800288c:	e01e      	b.n	80028cc <HAL_ADC_ConfigChannel+0x198>
 800288e:	687b      	ldr	r3, [r7, #4]
 8002890:	681b      	ldr	r3, [r3, #0]
 8002892:	2100      	movs	r1, #0
 8002894:	4618      	mov	r0, r3
 8002896:	f7ff fbd7 	bl	8002048 <LL_ADC_GetOffsetChannel>
 800289a:	4603      	mov	r3, r0
 800289c:	f8c7 30bc 	str.w	r3, [r7, #188]	; 0xbc
 80028a0:	f8d7 30bc 	ldr.w	r3, [r7, #188]	; 0xbc
 80028a4:	fa93 f3a3 	rbit	r3, r3
 80028a8:	f8c7 30b8 	str.w	r3, [r7, #184]	; 0xb8
 80028ac:	f8d7 30b8 	ldr.w	r3, [r7, #184]	; 0xb8
 80028b0:	f8c7 30c0 	str.w	r3, [r7, #192]	; 0xc0
 80028b4:	f8d7 30c0 	ldr.w	r3, [r7, #192]	; 0xc0
 80028b8:	2b00      	cmp	r3, #0
 80028ba:	d101      	bne.n	80028c0 <HAL_ADC_ConfigChannel+0x18c>
 80028bc:	2320      	movs	r3, #32
 80028be:	e004      	b.n	80028ca <HAL_ADC_ConfigChannel+0x196>
 80028c0:	f8d7 30c0 	ldr.w	r3, [r7, #192]	; 0xc0
 80028c4:	fab3 f383 	clz	r3, r3
 80028c8:	b2db      	uxtb	r3, r3
 80028ca:	461a      	mov	r2, r3
 80028cc:	683b      	ldr	r3, [r7, #0]
 80028ce:	681b      	ldr	r3, [r3, #0]
 80028d0:	f3c3 0312 	ubfx	r3, r3, #0, #19
 80028d4:	2b00      	cmp	r3, #0
 80028d6:	d105      	bne.n	80028e4 <HAL_ADC_ConfigChannel+0x1b0>
 80028d8:	683b      	ldr	r3, [r7, #0]
 80028da:	681b      	ldr	r3, [r3, #0]
 80028dc:	0e9b      	lsrs	r3, r3, #26
 80028de:	f003 031f 	and.w	r3, r3, #31
 80028e2:	e018      	b.n	8002916 <HAL_ADC_ConfigChannel+0x1e2>
 80028e4:	683b      	ldr	r3, [r7, #0]
 80028e6:	681b      	ldr	r3, [r3, #0]
 80028e8:	f8c7 30b0 	str.w	r3, [r7, #176]	; 0xb0
 80028ec:	f8d7 30b0 	ldr.w	r3, [r7, #176]	; 0xb0
 80028f0:	fa93 f3a3 	rbit	r3, r3
 80028f4:	f8c7 30ac 	str.w	r3, [r7, #172]	; 0xac
 80028f8:	f8d7 30ac 	ldr.w	r3, [r7, #172]	; 0xac
 80028fc:	f8c7 30b4 	str.w	r3, [r7, #180]	; 0xb4
 8002900:	f8d7 30b4 	ldr.w	r3, [r7, #180]	; 0xb4
 8002904:	2b00      	cmp	r3, #0
 8002906:	d101      	bne.n	800290c <HAL_ADC_ConfigChannel+0x1d8>
 8002908:	2320      	movs	r3, #32
 800290a:	e004      	b.n	8002916 <HAL_ADC_ConfigChannel+0x1e2>
 800290c:	f8d7 30b4 	ldr.w	r3, [r7, #180]	; 0xb4
 8002910:	fab3 f383 	clz	r3, r3
 8002914:	b2db      	uxtb	r3, r3
 8002916:	429a      	cmp	r2, r3
 8002918:	d106      	bne.n	8002928 <HAL_ADC_ConfigChannel+0x1f4>
 800291a:	687b      	ldr	r3, [r7, #4]
 800291c:	681b      	ldr	r3, [r3, #0]
 800291e:	2200      	movs	r2, #0
 8002920:	2100      	movs	r1, #0
 8002922:	4618      	mov	r0, r3
 8002924:	f7ff fba6 	bl	8002074 <LL_ADC_SetOffsetState>
 8002928:	687b      	ldr	r3, [r7, #4]
 800292a:	681b      	ldr	r3, [r3, #0]
 800292c:	2101      	movs	r1, #1
 800292e:	4618      	mov	r0, r3
 8002930:	f7ff fb8a 	bl	8002048 <LL_ADC_GetOffsetChannel>
 8002934:	4603      	mov	r3, r0
 8002936:	f3c3 0312 	ubfx	r3, r3, #0, #19
 800293a:	2b00      	cmp	r3, #0
 800293c:	d10a      	bne.n	8002954 <HAL_ADC_ConfigChannel+0x220>
 800293e:	687b      	ldr	r3, [r7, #4]
 8002940:	681b      	ldr	r3, [r3, #0]
 8002942:	2101      	movs	r1, #1
 8002944:	4618      	mov	r0, r3
 8002946:	f7ff fb7f 	bl	8002048 <LL_ADC_GetOffsetChannel>
 800294a:	4603      	mov	r3, r0
 800294c:	0e9b      	lsrs	r3, r3, #26
 800294e:	f003 021f 	and.w	r2, r3, #31
 8002952:	e01e      	b.n	8002992 <HAL_ADC_ConfigChannel+0x25e>
 8002954:	687b      	ldr	r3, [r7, #4]
 8002956:	681b      	ldr	r3, [r3, #0]
 8002958:	2101      	movs	r1, #1
 800295a:	4618      	mov	r0, r3
 800295c:	f7ff fb74 	bl	8002048 <LL_ADC_GetOffsetChannel>
 8002960:	4603      	mov	r3, r0
 8002962:	f8c7 30a4 	str.w	r3, [r7, #164]	; 0xa4
 8002966:	f8d7 30a4 	ldr.w	r3, [r7, #164]	; 0xa4
 800296a:	fa93 f3a3 	rbit	r3, r3
 800296e:	f8c7 30a0 	str.w	r3, [r7, #160]	; 0xa0
 8002972:	f8d7 30a0 	ldr.w	r3, [r7, #160]	; 0xa0
 8002976:	f8c7 30a8 	str.w	r3, [r7, #168]	; 0xa8
 800297a:	f8d7 30a8 	ldr.w	r3, [r7, #168]	; 0xa8
 800297e:	2b00      	cmp	r3, #0
 8002980:	d101      	bne.n	8002986 <HAL_ADC_ConfigChannel+0x252>
 8002982:	2320      	movs	r3, #32
 8002984:	e004      	b.n	8002990 <HAL_ADC_ConfigChannel+0x25c>
 8002986:	f8d7 30a8 	ldr.w	r3, [r7, #168]	; 0xa8
 800298a:	fab3 f383 	clz	r3, r3
 800298e:	b2db      	uxtb	r3, r3
 8002990:	461a      	mov	r2, r3
 8002992:	683b      	ldr	r3, [r7, #0]
 8002994:	681b      	ldr	r3, [r3, #0]
 8002996:	f3c3 0312 	ubfx	r3, r3, #0, #19
 800299a:	2b00      	cmp	r3, #0
 800299c:	d105      	bne.n	80029aa <HAL_ADC_ConfigChannel+0x276>
 800299e:	683b      	ldr	r3, [r7, #0]
 80029a0:	681b      	ldr	r3, [r3, #0]
 80029a2:	0e9b      	lsrs	r3, r3, #26
 80029a4:	f003 031f 	and.w	r3, r3, #31
 80029a8:	e018      	b.n	80029dc <HAL_ADC_ConfigChannel+0x2a8>
 80029aa:	683b      	ldr	r3, [r7, #0]
 80029ac:	681b      	ldr	r3, [r3, #0]
 80029ae:	f8c7 3098 	str.w	r3, [r7, #152]	; 0x98
 80029b2:	f8d7 3098 	ldr.w	r3, [r7, #152]	; 0x98
 80029b6:	fa93 f3a3 	rbit	r3, r3
 80029ba:	f8c7 3094 	str.w	r3, [r7, #148]	; 0x94
 80029be:	f8d7 3094 	ldr.w	r3, [r7, #148]	; 0x94
 80029c2:	f8c7 309c 	str.w	r3, [r7, #156]	; 0x9c
 80029c6:	f8d7 309c 	ldr.w	r3, [r7, #156]	; 0x9c
 80029ca:	2b00      	cmp	r3, #0
 80029cc:	d101      	bne.n	80029d2 <HAL_ADC_ConfigChannel+0x29e>
 80029ce:	2320      	movs	r3, #32
 80029d0:	e004      	b.n	80029dc <HAL_ADC_ConfigChannel+0x2a8>
 80029d2:	f8d7 309c 	ldr.w	r3, [r7, #156]	; 0x9c
 80029d6:	fab3 f383 	clz	r3, r3
 80029da:	b2db      	uxtb	r3, r3
 80029dc:	429a      	cmp	r2, r3
 80029de:	d106      	bne.n	80029ee <HAL_ADC_ConfigChannel+0x2ba>
 80029e0:	687b      	ldr	r3, [r7, #4]
 80029e2:	681b      	ldr	r3, [r3, #0]
 80029e4:	2200      	movs	r2, #0
 80029e6:	2101      	movs	r1, #1
 80029e8:	4618      	mov	r0, r3
 80029ea:	f7ff fb43 	bl	8002074 <LL_ADC_SetOffsetState>
 80029ee:	687b      	ldr	r3, [r7, #4]
 80029f0:	681b      	ldr	r3, [r3, #0]
 80029f2:	2102      	movs	r1, #2
 80029f4:	4618      	mov	r0, r3
 80029f6:	f7ff fb27 	bl	8002048 <LL_ADC_GetOffsetChannel>
 80029fa:	4603      	mov	r3, r0
 80029fc:	f3c3 0312 	ubfx	r3, r3, #0, #19
 8002a00:	2b00      	cmp	r3, #0
 8002a02:	d10a      	bne.n	8002a1a <HAL_ADC_ConfigChannel+0x2e6>
 8002a04:	687b      	ldr	r3, [r7, #4]
 8002a06:	681b      	ldr	r3, [r3, #0]
 8002a08:	2102      	movs	r1, #2
 8002a0a:	4618      	mov	r0, r3
 8002a0c:	f7ff fb1c 	bl	8002048 <LL_ADC_GetOffsetChannel>
 8002a10:	4603      	mov	r3, r0
 8002a12:	0e9b      	lsrs	r3, r3, #26
 8002a14:	f003 021f 	and.w	r2, r3, #31
 8002a18:	e01e      	b.n	8002a58 <HAL_ADC_ConfigChannel+0x324>
 8002a1a:	687b      	ldr	r3, [r7, #4]
 8002a1c:	681b      	ldr	r3, [r3, #0]
 8002a1e:	2102      	movs	r1, #2
 8002a20:	4618      	mov	r0, r3
 8002a22:	f7ff fb11 	bl	8002048 <LL_ADC_GetOffsetChannel>
 8002a26:	4603      	mov	r3, r0
 8002a28:	f8c7 308c 	str.w	r3, [r7, #140]	; 0x8c
 8002a2c:	f8d7 308c 	ldr.w	r3, [r7, #140]	; 0x8c
 8002a30:	fa93 f3a3 	rbit	r3, r3
 8002a34:	f8c7 3088 	str.w	r3, [r7, #136]	; 0x88
 8002a38:	f8d7 3088 	ldr.w	r3, [r7, #136]	; 0x88
 8002a3c:	f8c7 3090 	str.w	r3, [r7, #144]	; 0x90
 8002a40:	f8d7 3090 	ldr.w	r3, [r7, #144]	; 0x90
 8002a44:	2b00      	cmp	r3, #0
 8002a46:	d101      	bne.n	8002a4c <HAL_ADC_ConfigChannel+0x318>
 8002a48:	2320      	movs	r3, #32
 8002a4a:	e004      	b.n	8002a56 <HAL_ADC_ConfigChannel+0x322>
 8002a4c:	f8d7 3090 	ldr.w	r3, [r7, #144]	; 0x90
 8002a50:	fab3 f383 	clz	r3, r3
 8002a54:	b2db      	uxtb	r3, r3
 8002a56:	461a      	mov	r2, r3
 8002a58:	683b      	ldr	r3, [r7, #0]
 8002a5a:	681b      	ldr	r3, [r3, #0]
 8002a5c:	f3c3 0312 	ubfx	r3, r3, #0, #19
 8002a60:	2b00      	cmp	r3, #0
 8002a62:	d105      	bne.n	8002a70 <HAL_ADC_ConfigChannel+0x33c>
 8002a64:	683b      	ldr	r3, [r7, #0]
 8002a66:	681b      	ldr	r3, [r3, #0]
 8002a68:	0e9b      	lsrs	r3, r3, #26
 8002a6a:	f003 031f 	and.w	r3, r3, #31
 8002a6e:	e016      	b.n	8002a9e <HAL_ADC_ConfigChannel+0x36a>
 8002a70:	683b      	ldr	r3, [r7, #0]
 8002a72:	681b      	ldr	r3, [r3, #0]
 8002a74:	f8c7 3080 	str.w	r3, [r7, #128]	; 0x80
 8002a78:	f8d7 3080 	ldr.w	r3, [r7, #128]	; 0x80
 8002a7c:	fa93 f3a3 	rbit	r3, r3
 8002a80:	67fb      	str	r3, [r7, #124]	; 0x7c
 8002a82:	6ffb      	ldr	r3, [r7, #124]	; 0x7c
 8002a84:	f8c7 3084 	str.w	r3, [r7, #132]	; 0x84
 8002a88:	f8d7 3084 	ldr.w	r3, [r7, #132]	; 0x84
 8002a8c:	2b00      	cmp	r3, #0
 8002a8e:	d101      	bne.n	8002a94 <HAL_ADC_ConfigChannel+0x360>
 8002a90:	2320      	movs	r3, #32
 8002a92:	e004      	b.n	8002a9e <HAL_ADC_ConfigChannel+0x36a>
 8002a94:	f8d7 3084 	ldr.w	r3, [r7, #132]	; 0x84
 8002a98:	fab3 f383 	clz	r3, r3
 8002a9c:	b2db      	uxtb	r3, r3
 8002a9e:	429a      	cmp	r2, r3
 8002aa0:	d106      	bne.n	8002ab0 <HAL_ADC_ConfigChannel+0x37c>
 8002aa2:	687b      	ldr	r3, [r7, #4]
 8002aa4:	681b      	ldr	r3, [r3, #0]
 8002aa6:	2200      	movs	r2, #0
 8002aa8:	2102      	movs	r1, #2
 8002aaa:	4618      	mov	r0, r3
 8002aac:	f7ff fae2 	bl	8002074 <LL_ADC_SetOffsetState>
 8002ab0:	687b      	ldr	r3, [r7, #4]
 8002ab2:	681b      	ldr	r3, [r3, #0]
 8002ab4:	2103      	movs	r1, #3
 8002ab6:	4618      	mov	r0, r3
 8002ab8:	f7ff fac6 	bl	8002048 <LL_ADC_GetOffsetChannel>
 8002abc:	4603      	mov	r3, r0
 8002abe:	f3c3 0312 	ubfx	r3, r3, #0, #19
 8002ac2:	2b00      	cmp	r3, #0
 8002ac4:	d10a      	bne.n	8002adc <HAL_ADC_ConfigChannel+0x3a8>
 8002ac6:	687b      	ldr	r3, [r7, #4]
 8002ac8:	681b      	ldr	r3, [r3, #0]
 8002aca:	2103      	movs	r1, #3
 8002acc:	4618      	mov	r0, r3
 8002ace:	f7ff fabb 	bl	8002048 <LL_ADC_GetOffsetChannel>
 8002ad2:	4603      	mov	r3, r0
 8002ad4:	0e9b      	lsrs	r3, r3, #26
 8002ad6:	f003 021f 	and.w	r2, r3, #31
 8002ada:	e017      	b.n	8002b0c <HAL_ADC_ConfigChannel+0x3d8>
 8002adc:	687b      	ldr	r3, [r7, #4]
 8002ade:	681b      	ldr	r3, [r3, #0]
 8002ae0:	2103      	movs	r1, #3
 8002ae2:	4618      	mov	r0, r3
 8002ae4:	f7ff fab0 	bl	8002048 <LL_ADC_GetOffsetChannel>
 8002ae8:	4603      	mov	r3, r0
 8002aea:	677b      	str	r3, [r7, #116]	; 0x74
 8002aec:	6f7b      	ldr	r3, [r7, #116]	; 0x74
 8002aee:	fa93 f3a3 	rbit	r3, r3
 8002af2:	673b      	str	r3, [r7, #112]	; 0x70
 8002af4:	6f3b      	ldr	r3, [r7, #112]	; 0x70
 8002af6:	67bb      	str	r3, [r7, #120]	; 0x78
 8002af8:	6fbb      	ldr	r3, [r7, #120]	; 0x78
 8002afa:	2b00      	cmp	r3, #0
 8002afc:	d101      	bne.n	8002b02 <HAL_ADC_ConfigChannel+0x3ce>
 8002afe:	2320      	movs	r3, #32
 8002b00:	e003      	b.n	8002b0a <HAL_ADC_ConfigChannel+0x3d6>
 8002b02:	6fbb      	ldr	r3, [r7, #120]	; 0x78
 8002b04:	fab3 f383 	clz	r3, r3
 8002b08:	b2db      	uxtb	r3, r3
 8002b0a:	461a      	mov	r2, r3
 8002b0c:	683b      	ldr	r3, [r7, #0]
 8002b0e:	681b      	ldr	r3, [r3, #0]
 8002b10:	f3c3 0312 	ubfx	r3, r3, #0, #19
 8002b14:	2b00      	cmp	r3, #0
 8002b16:	d105      	bne.n	8002b24 <HAL_ADC_ConfigChannel+0x3f0>
 8002b18:	683b      	ldr	r3, [r7, #0]
 8002b1a:	681b      	ldr	r3, [r3, #0]
 8002b1c:	0e9b      	lsrs	r3, r3, #26
 8002b1e:	f003 031f 	and.w	r3, r3, #31
 8002b22:	e011      	b.n	8002b48 <HAL_ADC_ConfigChannel+0x414>
 8002b24:	683b      	ldr	r3, [r7, #0]
 8002b26:	681b      	ldr	r3, [r3, #0]
 8002b28:	66bb      	str	r3, [r7, #104]	; 0x68
 8002b2a:	6ebb      	ldr	r3, [r7, #104]	; 0x68
 8002b2c:	fa93 f3a3 	rbit	r3, r3
 8002b30:	667b      	str	r3, [r7, #100]	; 0x64
 8002b32:	6e7b      	ldr	r3, [r7, #100]	; 0x64
 8002b34:	66fb      	str	r3, [r7, #108]	; 0x6c
 8002b36:	6efb      	ldr	r3, [r7, #108]	; 0x6c
 8002b38:	2b00      	cmp	r3, #0
 8002b3a:	d101      	bne.n	8002b40 <HAL_ADC_ConfigChannel+0x40c>
 8002b3c:	2320      	movs	r3, #32
 8002b3e:	e003      	b.n	8002b48 <HAL_ADC_ConfigChannel+0x414>
 8002b40:	6efb      	ldr	r3, [r7, #108]	; 0x6c
 8002b42:	fab3 f383 	clz	r3, r3
 8002b46:	b2db      	uxtb	r3, r3
 8002b48:	429a      	cmp	r2, r3
 8002b4a:	d106      	bne.n	8002b5a <HAL_ADC_ConfigChannel+0x426>
 8002b4c:	687b      	ldr	r3, [r7, #4]
 8002b4e:	681b      	ldr	r3, [r3, #0]
 8002b50:	2200      	movs	r2, #0
 8002b52:	2103      	movs	r1, #3
 8002b54:	4618      	mov	r0, r3
 8002b56:	f7ff fa8d 	bl	8002074 <LL_ADC_SetOffsetState>
 8002b5a:	687b      	ldr	r3, [r7, #4]
 8002b5c:	681b      	ldr	r3, [r3, #0]
 8002b5e:	4618      	mov	r0, r3
 8002b60:	f7ff fbf4 	bl	800234c <LL_ADC_IsEnabled>
 8002b64:	4603      	mov	r3, r0
 8002b66:	2b00      	cmp	r3, #0
 8002b68:	f040 8140 	bne.w	8002dec <HAL_ADC_ConfigChannel+0x6b8>
 8002b6c:	687b      	ldr	r3, [r7, #4]
 8002b6e:	6818      	ldr	r0, [r3, #0]
 8002b70:	683b      	ldr	r3, [r7, #0]
 8002b72:	6819      	ldr	r1, [r3, #0]
 8002b74:	683b      	ldr	r3, [r7, #0]
 8002b76:	68db      	ldr	r3, [r3, #12]
 8002b78:	461a      	mov	r2, r3
 8002b7a:	f7ff fb49 	bl	8002210 <LL_ADC_SetChannelSingleDiff>
 8002b7e:	683b      	ldr	r3, [r7, #0]
 8002b80:	68db      	ldr	r3, [r3, #12]
 8002b82:	4a8f      	ldr	r2, [pc, #572]	; (8002dc0 <HAL_ADC_ConfigChannel+0x68c>)
 8002b84:	4293      	cmp	r3, r2
 8002b86:	f040 8131 	bne.w	8002dec <HAL_ADC_ConfigChannel+0x6b8>
 8002b8a:	687b      	ldr	r3, [r7, #4]
 8002b8c:	6818      	ldr	r0, [r3, #0]
 8002b8e:	683b      	ldr	r3, [r7, #0]
 8002b90:	681b      	ldr	r3, [r3, #0]
 8002b92:	f3c3 0312 	ubfx	r3, r3, #0, #19
 8002b96:	2b00      	cmp	r3, #0
 8002b98:	d10b      	bne.n	8002bb2 <HAL_ADC_ConfigChannel+0x47e>
 8002b9a:	683b      	ldr	r3, [r7, #0]
 8002b9c:	681b      	ldr	r3, [r3, #0]
 8002b9e:	0e9b      	lsrs	r3, r3, #26
 8002ba0:	3301      	adds	r3, #1
 8002ba2:	f003 031f 	and.w	r3, r3, #31
 8002ba6:	2b09      	cmp	r3, #9
 8002ba8:	bf94      	ite	ls
 8002baa:	2301      	movls	r3, #1
 8002bac:	2300      	movhi	r3, #0
 8002bae:	b2db      	uxtb	r3, r3
 8002bb0:	e019      	b.n	8002be6 <HAL_ADC_ConfigChannel+0x4b2>
 8002bb2:	683b      	ldr	r3, [r7, #0]
 8002bb4:	681b      	ldr	r3, [r3, #0]
 8002bb6:	65fb      	str	r3, [r7, #92]	; 0x5c
 8002bb8:	6dfb      	ldr	r3, [r7, #92]	; 0x5c
 8002bba:	fa93 f3a3 	rbit	r3, r3
 8002bbe:	65bb      	str	r3, [r7, #88]	; 0x58
 8002bc0:	6dbb      	ldr	r3, [r7, #88]	; 0x58
 8002bc2:	663b      	str	r3, [r7, #96]	; 0x60
 8002bc4:	6e3b      	ldr	r3, [r7, #96]	; 0x60
 8002bc6:	2b00      	cmp	r3, #0
 8002bc8:	d101      	bne.n	8002bce <HAL_ADC_ConfigChannel+0x49a>
 8002bca:	2320      	movs	r3, #32
 8002bcc:	e003      	b.n	8002bd6 <HAL_ADC_ConfigChannel+0x4a2>
 8002bce:	6e3b      	ldr	r3, [r7, #96]	; 0x60
 8002bd0:	fab3 f383 	clz	r3, r3
 8002bd4:	b2db      	uxtb	r3, r3
 8002bd6:	3301      	adds	r3, #1
 8002bd8:	f003 031f 	and.w	r3, r3, #31
 8002bdc:	2b09      	cmp	r3, #9
 8002bde:	bf94      	ite	ls
 8002be0:	2301      	movls	r3, #1
 8002be2:	2300      	movhi	r3, #0
 8002be4:	b2db      	uxtb	r3, r3
 8002be6:	2b00      	cmp	r3, #0
 8002be8:	d079      	beq.n	8002cde <HAL_ADC_ConfigChannel+0x5aa>
 8002bea:	683b      	ldr	r3, [r7, #0]
 8002bec:	681b      	ldr	r3, [r3, #0]
 8002bee:	f3c3 0312 	ubfx	r3, r3, #0, #19
 8002bf2:	2b00      	cmp	r3, #0
 8002bf4:	d107      	bne.n	8002c06 <HAL_ADC_ConfigChannel+0x4d2>
 8002bf6:	683b      	ldr	r3, [r7, #0]
 8002bf8:	681b      	ldr	r3, [r3, #0]
 8002bfa:	0e9b      	lsrs	r3, r3, #26
 8002bfc:	3301      	adds	r3, #1
 8002bfe:	069b      	lsls	r3, r3, #26
 8002c00:	f003 42f8 	and.w	r2, r3, #2080374784	; 0x7c000000
 8002c04:	e015      	b.n	8002c32 <HAL_ADC_ConfigChannel+0x4fe>
 8002c06:	683b      	ldr	r3, [r7, #0]
 8002c08:	681b      	ldr	r3, [r3, #0]
 8002c0a:	653b      	str	r3, [r7, #80]	; 0x50
 8002c0c:	6d3b      	ldr	r3, [r7, #80]	; 0x50
 8002c0e:	fa93 f3a3 	rbit	r3, r3
 8002c12:	64fb      	str	r3, [r7, #76]	; 0x4c
 8002c14:	6cfb      	ldr	r3, [r7, #76]	; 0x4c
 8002c16:	657b      	str	r3, [r7, #84]	; 0x54
 8002c18:	6d7b      	ldr	r3, [r7, #84]	; 0x54
 8002c1a:	2b00      	cmp	r3, #0
 8002c1c:	d101      	bne.n	8002c22 <HAL_ADC_ConfigChannel+0x4ee>
 8002c1e:	2320      	movs	r3, #32
 8002c20:	e003      	b.n	8002c2a <HAL_ADC_ConfigChannel+0x4f6>
 8002c22:	6d7b      	ldr	r3, [r7, #84]	; 0x54
 8002c24:	fab3 f383 	clz	r3, r3
 8002c28:	b2db      	uxtb	r3, r3
 8002c2a:	3301      	adds	r3, #1
 8002c2c:	069b      	lsls	r3, r3, #26
 8002c2e:	f003 42f8 	and.w	r2, r3, #2080374784	; 0x7c000000
 8002c32:	683b      	ldr	r3, [r7, #0]
 8002c34:	681b      	ldr	r3, [r3, #0]
 8002c36:	f3c3 0312 	ubfx	r3, r3, #0, #19
 8002c3a:	2b00      	cmp	r3, #0
 8002c3c:	d109      	bne.n	8002c52 <HAL_ADC_ConfigChannel+0x51e>
 8002c3e:	683b      	ldr	r3, [r7, #0]
 8002c40:	681b      	ldr	r3, [r3, #0]
 8002c42:	0e9b      	lsrs	r3, r3, #26
 8002c44:	3301      	adds	r3, #1
 8002c46:	f003 031f 	and.w	r3, r3, #31
 8002c4a:	2101      	movs	r1, #1
 8002c4c:	fa01 f303 	lsl.w	r3, r1, r3
 8002c50:	e017      	b.n	8002c82 <HAL_ADC_ConfigChannel+0x54e>
 8002c52:	683b      	ldr	r3, [r7, #0]
 8002c54:	681b      	ldr	r3, [r3, #0]
 8002c56:	647b      	str	r3, [r7, #68]	; 0x44
 8002c58:	6c7b      	ldr	r3, [r7, #68]	; 0x44
 8002c5a:	fa93 f3a3 	rbit	r3, r3
 8002c5e:	643b      	str	r3, [r7, #64]	; 0x40
 8002c60:	6c3b      	ldr	r3, [r7, #64]	; 0x40
 8002c62:	64bb      	str	r3, [r7, #72]	; 0x48
 8002c64:	6cbb      	ldr	r3, [r7, #72]	; 0x48
 8002c66:	2b00      	cmp	r3, #0
 8002c68:	d101      	bne.n	8002c6e <HAL_ADC_ConfigChannel+0x53a>
 8002c6a:	2320      	movs	r3, #32
 8002c6c:	e003      	b.n	8002c76 <HAL_ADC_ConfigChannel+0x542>
 8002c6e:	6cbb      	ldr	r3, [r7, #72]	; 0x48
 8002c70:	fab3 f383 	clz	r3, r3
 8002c74:	b2db      	uxtb	r3, r3
 8002c76:	3301      	adds	r3, #1
 8002c78:	f003 031f 	and.w	r3, r3, #31
 8002c7c:	2101      	movs	r1, #1
 8002c7e:	fa01 f303 	lsl.w	r3, r1, r3
 8002c82:	ea42 0103 	orr.w	r1, r2, r3
 8002c86:	683b      	ldr	r3, [r7, #0]
 8002c88:	681b      	ldr	r3, [r3, #0]
 8002c8a:	f3c3 0312 	ubfx	r3, r3, #0, #19
 8002c8e:	2b00      	cmp	r3, #0
 8002c90:	d10a      	bne.n	8002ca8 <HAL_ADC_ConfigChannel+0x574>
 8002c92:	683b      	ldr	r3, [r7, #0]
 8002c94:	681b      	ldr	r3, [r3, #0]
 8002c96:	0e9b      	lsrs	r3, r3, #26
 8002c98:	3301      	adds	r3, #1
 8002c9a:	f003 021f 	and.w	r2, r3, #31
 8002c9e:	4613      	mov	r3, r2
 8002ca0:	005b      	lsls	r3, r3, #1
 8002ca2:	4413      	add	r3, r2
 8002ca4:	051b      	lsls	r3, r3, #20
 8002ca6:	e018      	b.n	8002cda <HAL_ADC_ConfigChannel+0x5a6>
 8002ca8:	683b      	ldr	r3, [r7, #0]
 8002caa:	681b      	ldr	r3, [r3, #0]
 8002cac:	63bb      	str	r3, [r7, #56]	; 0x38
 8002cae:	6bbb      	ldr	r3, [r7, #56]	; 0x38
 8002cb0:	fa93 f3a3 	rbit	r3, r3
 8002cb4:	637b      	str	r3, [r7, #52]	; 0x34
 8002cb6:	6b7b      	ldr	r3, [r7, #52]	; 0x34
 8002cb8:	63fb      	str	r3, [r7, #60]	; 0x3c
 8002cba:	6bfb      	ldr	r3, [r7, #60]	; 0x3c
 8002cbc:	2b00      	cmp	r3, #0
 8002cbe:	d101      	bne.n	8002cc4 <HAL_ADC_ConfigChannel+0x590>
 8002cc0:	2320      	movs	r3, #32
 8002cc2:	e003      	b.n	8002ccc <HAL_ADC_ConfigChannel+0x598>
 8002cc4:	6bfb      	ldr	r3, [r7, #60]	; 0x3c
 8002cc6:	fab3 f383 	clz	r3, r3
 8002cca:	b2db      	uxtb	r3, r3
 8002ccc:	3301      	adds	r3, #1
 8002cce:	f003 021f 	and.w	r2, r3, #31
 8002cd2:	4613      	mov	r3, r2
 8002cd4:	005b      	lsls	r3, r3, #1
 8002cd6:	4413      	add	r3, r2
 8002cd8:	051b      	lsls	r3, r3, #20
 8002cda:	430b      	orrs	r3, r1
 8002cdc:	e081      	b.n	8002de2 <HAL_ADC_ConfigChannel+0x6ae>
 8002cde:	683b      	ldr	r3, [r7, #0]
 8002ce0:	681b      	ldr	r3, [r3, #0]
 8002ce2:	f3c3 0312 	ubfx	r3, r3, #0, #19
 8002ce6:	2b00      	cmp	r3, #0
 8002ce8:	d107      	bne.n	8002cfa <HAL_ADC_ConfigChannel+0x5c6>
 8002cea:	683b      	ldr	r3, [r7, #0]
 8002cec:	681b      	ldr	r3, [r3, #0]
 8002cee:	0e9b      	lsrs	r3, r3, #26
 8002cf0:	3301      	adds	r3, #1
 8002cf2:	069b      	lsls	r3, r3, #26
 8002cf4:	f003 42f8 	and.w	r2, r3, #2080374784	; 0x7c000000
 8002cf8:	e015      	b.n	8002d26 <HAL_ADC_ConfigChannel+0x5f2>
 8002cfa:	683b      	ldr	r3, [r7, #0]
 8002cfc:	681b      	ldr	r3, [r3, #0]
 8002cfe:	62fb      	str	r3, [r7, #44]	; 0x2c
 8002d00:	6afb      	ldr	r3, [r7, #44]	; 0x2c
 8002d02:	fa93 f3a3 	rbit	r3, r3
 8002d06:	62bb      	str	r3, [r7, #40]	; 0x28
 8002d08:	6abb      	ldr	r3, [r7, #40]	; 0x28
 8002d0a:	633b      	str	r3, [r7, #48]	; 0x30
 8002d0c:	6b3b      	ldr	r3, [r7, #48]	; 0x30
 8002d0e:	2b00      	cmp	r3, #0
 8002d10:	d101      	bne.n	8002d16 <HAL_ADC_ConfigChannel+0x5e2>
 8002d12:	2320      	movs	r3, #32
 8002d14:	e003      	b.n	8002d1e <HAL_ADC_ConfigChannel+0x5ea>
 8002d16:	6b3b      	ldr	r3, [r7, #48]	; 0x30
 8002d18:	fab3 f383 	clz	r3, r3
 8002d1c:	b2db      	uxtb	r3, r3
 8002d1e:	3301      	adds	r3, #1
 8002d20:	069b      	lsls	r3, r3, #26
 8002d22:	f003 42f8 	and.w	r2, r3, #2080374784	; 0x7c000000
 8002d26:	683b      	ldr	r3, [r7, #0]
 8002d28:	681b      	ldr	r3, [r3, #0]
 8002d2a:	f3c3 0312 	ubfx	r3, r3, #0, #19
 8002d2e:	2b00      	cmp	r3, #0
 8002d30:	d109      	bne.n	8002d46 <HAL_ADC_ConfigChannel+0x612>
 8002d32:	683b      	ldr	r3, [r7, #0]
 8002d34:	681b      	ldr	r3, [r3, #0]
 8002d36:	0e9b      	lsrs	r3, r3, #26
 8002d38:	3301      	adds	r3, #1
 8002d3a:	f003 031f 	and.w	r3, r3, #31
 8002d3e:	2101      	movs	r1, #1
 8002d40:	fa01 f303 	lsl.w	r3, r1, r3
 8002d44:	e017      	b.n	8002d76 <HAL_ADC_ConfigChannel+0x642>
 8002d46:	683b      	ldr	r3, [r7, #0]
 8002d48:	681b      	ldr	r3, [r3, #0]
 8002d4a:	623b      	str	r3, [r7, #32]
 8002d4c:	6a3b      	ldr	r3, [r7, #32]
 8002d4e:	fa93 f3a3 	rbit	r3, r3
 8002d52:	61fb      	str	r3, [r7, #28]
 8002d54:	69fb      	ldr	r3, [r7, #28]
 8002d56:	627b      	str	r3, [r7, #36]	; 0x24
 8002d58:	6a7b      	ldr	r3, [r7, #36]	; 0x24
 8002d5a:	2b00      	cmp	r3, #0
 8002d5c:	d101      	bne.n	8002d62 <HAL_ADC_ConfigChannel+0x62e>
 8002d5e:	2320      	movs	r3, #32
 8002d60:	e003      	b.n	8002d6a <HAL_ADC_ConfigChannel+0x636>
 8002d62:	6a7b      	ldr	r3, [r7, #36]	; 0x24
 8002d64:	fab3 f383 	clz	r3, r3
 8002d68:	b2db      	uxtb	r3, r3
 8002d6a:	3301      	adds	r3, #1
 8002d6c:	f003 031f 	and.w	r3, r3, #31
 8002d70:	2101      	movs	r1, #1
 8002d72:	fa01 f303 	lsl.w	r3, r1, r3
 8002d76:	ea42 0103 	orr.w	r1, r2, r3
 8002d7a:	683b      	ldr	r3, [r7, #0]
 8002d7c:	681b      	ldr	r3, [r3, #0]
 8002d7e:	f3c3 0312 	ubfx	r3, r3, #0, #19
 8002d82:	2b00      	cmp	r3, #0
 8002d84:	d10d      	bne.n	8002da2 <HAL_ADC_ConfigChannel+0x66e>
 8002d86:	683b      	ldr	r3, [r7, #0]
 8002d88:	681b      	ldr	r3, [r3, #0]
 8002d8a:	0e9b      	lsrs	r3, r3, #26
 8002d8c:	3301      	adds	r3, #1
 8002d8e:	f003 021f 	and.w	r2, r3, #31
 8002d92:	4613      	mov	r3, r2
 8002d94:	005b      	lsls	r3, r3, #1
 8002d96:	4413      	add	r3, r2
 8002d98:	3b1e      	subs	r3, #30
 8002d9a:	051b      	lsls	r3, r3, #20
 8002d9c:	f043 7300 	orr.w	r3, r3, #33554432	; 0x2000000
 8002da0:	e01e      	b.n	8002de0 <HAL_ADC_ConfigChannel+0x6ac>
 8002da2:	683b      	ldr	r3, [r7, #0]
 8002da4:	681b      	ldr	r3, [r3, #0]
 8002da6:	617b      	str	r3, [r7, #20]
 8002da8:	697b      	ldr	r3, [r7, #20]
 8002daa:	fa93 f3a3 	rbit	r3, r3
 8002dae:	613b      	str	r3, [r7, #16]
 8002db0:	693b      	ldr	r3, [r7, #16]
 8002db2:	61bb      	str	r3, [r7, #24]
 8002db4:	69bb      	ldr	r3, [r7, #24]
 8002db6:	2b00      	cmp	r3, #0
 8002db8:	d104      	bne.n	8002dc4 <HAL_ADC_ConfigChannel+0x690>
 8002dba:	2320      	movs	r3, #32
 8002dbc:	e006      	b.n	8002dcc <HAL_ADC_ConfigChannel+0x698>
 8002dbe:	bf00      	nop
 8002dc0:	407f0000 	.word	0x407f0000
 8002dc4:	69bb      	ldr	r3, [r7, #24]
 8002dc6:	fab3 f383 	clz	r3, r3
 8002dca:	b2db      	uxtb	r3, r3
 8002dcc:	3301      	adds	r3, #1
 8002dce:	f003 021f 	and.w	r2, r3, #31
 8002dd2:	4613      	mov	r3, r2
 8002dd4:	005b      	lsls	r3, r3, #1
 8002dd6:	4413      	add	r3, r2
 8002dd8:	3b1e      	subs	r3, #30
 8002dda:	051b      	lsls	r3, r3, #20
 8002ddc:	f043 7300 	orr.w	r3, r3, #33554432	; 0x2000000
 8002de0:	430b      	orrs	r3, r1
 8002de2:	683a      	ldr	r2, [r7, #0]
 8002de4:	6892      	ldr	r2, [r2, #8]
 8002de6:	4619      	mov	r1, r3
 8002de8:	f7ff f9e7 	bl	80021ba <LL_ADC_SetChannelSamplingTime>
 8002dec:	683b      	ldr	r3, [r7, #0]
 8002dee:	681a      	ldr	r2, [r3, #0]
 8002df0:	4b3f      	ldr	r3, [pc, #252]	; (8002ef0 <HAL_ADC_ConfigChannel+0x7bc>)
 8002df2:	4013      	ands	r3, r2
 8002df4:	2b00      	cmp	r3, #0
 8002df6:	d071      	beq.n	8002edc <HAL_ADC_ConfigChannel+0x7a8>
 8002df8:	483e      	ldr	r0, [pc, #248]	; (8002ef4 <HAL_ADC_ConfigChannel+0x7c0>)
 8002dfa:	f7ff f8f3 	bl	8001fe4 <LL_ADC_GetCommonPathInternalCh>
 8002dfe:	f8c7 00c4 	str.w	r0, [r7, #196]	; 0xc4
 8002e02:	683b      	ldr	r3, [r7, #0]
 8002e04:	681b      	ldr	r3, [r3, #0]
 8002e06:	4a3c      	ldr	r2, [pc, #240]	; (8002ef8 <HAL_ADC_ConfigChannel+0x7c4>)
 8002e08:	4293      	cmp	r3, r2
 8002e0a:	d004      	beq.n	8002e16 <HAL_ADC_ConfigChannel+0x6e2>
 8002e0c:	683b      	ldr	r3, [r7, #0]
 8002e0e:	681b      	ldr	r3, [r3, #0]
 8002e10:	4a3a      	ldr	r2, [pc, #232]	; (8002efc <HAL_ADC_ConfigChannel+0x7c8>)
 8002e12:	4293      	cmp	r3, r2
 8002e14:	d127      	bne.n	8002e66 <HAL_ADC_ConfigChannel+0x732>
 8002e16:	f8d7 30c4 	ldr.w	r3, [r7, #196]	; 0xc4
 8002e1a:	f403 0300 	and.w	r3, r3, #8388608	; 0x800000
 8002e1e:	2b00      	cmp	r3, #0
 8002e20:	d121      	bne.n	8002e66 <HAL_ADC_ConfigChannel+0x732>
 8002e22:	687b      	ldr	r3, [r7, #4]
 8002e24:	681b      	ldr	r3, [r3, #0]
 8002e26:	f1b3 4fa0 	cmp.w	r3, #1342177280	; 0x50000000
 8002e2a:	d157      	bne.n	8002edc <HAL_ADC_ConfigChannel+0x7a8>
 8002e2c:	f8d7 30c4 	ldr.w	r3, [r7, #196]	; 0xc4
 8002e30:	f443 0300 	orr.w	r3, r3, #8388608	; 0x800000
 8002e34:	4619      	mov	r1, r3
 8002e36:	482f      	ldr	r0, [pc, #188]	; (8002ef4 <HAL_ADC_ConfigChannel+0x7c0>)
 8002e38:	f7ff f8c1 	bl	8001fbe <LL_ADC_SetCommonPathInternalCh>
 8002e3c:	4b30      	ldr	r3, [pc, #192]	; (8002f00 <HAL_ADC_ConfigChannel+0x7cc>)
 8002e3e:	681b      	ldr	r3, [r3, #0]
 8002e40:	099b      	lsrs	r3, r3, #6
 8002e42:	4a30      	ldr	r2, [pc, #192]	; (8002f04 <HAL_ADC_ConfigChannel+0x7d0>)
 8002e44:	fba2 2303 	umull	r2, r3, r2, r3
 8002e48:	099b      	lsrs	r3, r3, #6
 8002e4a:	1c5a      	adds	r2, r3, #1
 8002e4c:	4613      	mov	r3, r2
 8002e4e:	005b      	lsls	r3, r3, #1
 8002e50:	4413      	add	r3, r2
 8002e52:	009b      	lsls	r3, r3, #2
 8002e54:	60fb      	str	r3, [r7, #12]
 8002e56:	e002      	b.n	8002e5e <HAL_ADC_ConfigChannel+0x72a>
 8002e58:	68fb      	ldr	r3, [r7, #12]
 8002e5a:	3b01      	subs	r3, #1
 8002e5c:	60fb      	str	r3, [r7, #12]
 8002e5e:	68fb      	ldr	r3, [r7, #12]
 8002e60:	2b00      	cmp	r3, #0
 8002e62:	d1f9      	bne.n	8002e58 <HAL_ADC_ConfigChannel+0x724>
 8002e64:	e03a      	b.n	8002edc <HAL_ADC_ConfigChannel+0x7a8>
 8002e66:	683b      	ldr	r3, [r7, #0]
 8002e68:	681b      	ldr	r3, [r3, #0]
 8002e6a:	4a27      	ldr	r2, [pc, #156]	; (8002f08 <HAL_ADC_ConfigChannel+0x7d4>)
 8002e6c:	4293      	cmp	r3, r2
 8002e6e:	d113      	bne.n	8002e98 <HAL_ADC_ConfigChannel+0x764>
 8002e70:	f8d7 30c4 	ldr.w	r3, [r7, #196]	; 0xc4
 8002e74:	f003 7380 	and.w	r3, r3, #16777216	; 0x1000000
 8002e78:	2b00      	cmp	r3, #0
 8002e7a:	d10d      	bne.n	8002e98 <HAL_ADC_ConfigChannel+0x764>
 8002e7c:	687b      	ldr	r3, [r7, #4]
 8002e7e:	681b      	ldr	r3, [r3, #0]
 8002e80:	4a22      	ldr	r2, [pc, #136]	; (8002f0c <HAL_ADC_ConfigChannel+0x7d8>)
 8002e82:	4293      	cmp	r3, r2
 8002e84:	d02a      	beq.n	8002edc <HAL_ADC_ConfigChannel+0x7a8>
 8002e86:	f8d7 30c4 	ldr.w	r3, [r7, #196]	; 0xc4
 8002e8a:	f043 7380 	orr.w	r3, r3, #16777216	; 0x1000000
 8002e8e:	4619      	mov	r1, r3
 8002e90:	4818      	ldr	r0, [pc, #96]	; (8002ef4 <HAL_ADC_ConfigChannel+0x7c0>)
 8002e92:	f7ff f894 	bl	8001fbe <LL_ADC_SetCommonPathInternalCh>
 8002e96:	e021      	b.n	8002edc <HAL_ADC_ConfigChannel+0x7a8>
 8002e98:	683b      	ldr	r3, [r7, #0]
 8002e9a:	681b      	ldr	r3, [r3, #0]
 8002e9c:	4a1c      	ldr	r2, [pc, #112]	; (8002f10 <HAL_ADC_ConfigChannel+0x7dc>)
 8002e9e:	4293      	cmp	r3, r2
 8002ea0:	d11c      	bne.n	8002edc <HAL_ADC_ConfigChannel+0x7a8>
 8002ea2:	f8d7 30c4 	ldr.w	r3, [r7, #196]	; 0xc4
 8002ea6:	f403 0380 	and.w	r3, r3, #4194304	; 0x400000
 8002eaa:	2b00      	cmp	r3, #0
 8002eac:	d116      	bne.n	8002edc <HAL_ADC_ConfigChannel+0x7a8>
 8002eae:	687b      	ldr	r3, [r7, #4]
 8002eb0:	681b      	ldr	r3, [r3, #0]
 8002eb2:	4a16      	ldr	r2, [pc, #88]	; (8002f0c <HAL_ADC_ConfigChannel+0x7d8>)
 8002eb4:	4293      	cmp	r3, r2
 8002eb6:	d011      	beq.n	8002edc <HAL_ADC_ConfigChannel+0x7a8>
 8002eb8:	f8d7 30c4 	ldr.w	r3, [r7, #196]	; 0xc4
 8002ebc:	f443 0380 	orr.w	r3, r3, #4194304	; 0x400000
 8002ec0:	4619      	mov	r1, r3
 8002ec2:	480c      	ldr	r0, [pc, #48]	; (8002ef4 <HAL_ADC_ConfigChannel+0x7c0>)
 8002ec4:	f7ff f87b 	bl	8001fbe <LL_ADC_SetCommonPathInternalCh>
 8002ec8:	e008      	b.n	8002edc <HAL_ADC_ConfigChannel+0x7a8>
 8002eca:	687b      	ldr	r3, [r7, #4]
 8002ecc:	6ddb      	ldr	r3, [r3, #92]	; 0x5c
 8002ece:	f043 0220 	orr.w	r2, r3, #32
 8002ed2:	687b      	ldr	r3, [r7, #4]
 8002ed4:	65da      	str	r2, [r3, #92]	; 0x5c
 8002ed6:	2301      	movs	r3, #1
 8002ed8:	f887 30d7 	strb.w	r3, [r7, #215]	; 0xd7
 8002edc:	687b      	ldr	r3, [r7, #4]
 8002ede:	2200      	movs	r2, #0
 8002ee0:	f883 2058 	strb.w	r2, [r3, #88]	; 0x58
 8002ee4:	f897 30d7 	ldrb.w	r3, [r7, #215]	; 0xd7
 8002ee8:	4618      	mov	r0, r3
 8002eea:	37d8      	adds	r7, #216	; 0xd8
 8002eec:	46bd      	mov	sp, r7
 8002eee:	bd80      	pop	{r7, pc}
 8002ef0:	80080000 	.word	0x80080000
 8002ef4:	50000300 	.word	0x50000300
 8002ef8:	c3210000 	.word	0xc3210000
 8002efc:	90c00010 	.word	0x90c00010
 8002f00:	20000008 	.word	0x20000008
 8002f04:	053e2d63 	.word	0x053e2d63
 8002f08:	c7520000 	.word	0xc7520000
 8002f0c:	50000100 	.word	0x50000100
 8002f10:	cb840000 	.word	0xcb840000

08002f14 <ADC_Enable>:
 8002f14:	b580      	push	{r7, lr}
 8002f16:	b084      	sub	sp, #16
 8002f18:	af00      	add	r7, sp, #0
 8002f1a:	6078      	str	r0, [r7, #4]
 8002f1c:	687b      	ldr	r3, [r7, #4]
 8002f1e:	681b      	ldr	r3, [r3, #0]
 8002f20:	4618      	mov	r0, r3
 8002f22:	f7ff fa13 	bl	800234c <LL_ADC_IsEnabled>
 8002f26:	4603      	mov	r3, r0
 8002f28:	2b00      	cmp	r3, #0
 8002f2a:	d14d      	bne.n	8002fc8 <ADC_Enable+0xb4>
 8002f2c:	687b      	ldr	r3, [r7, #4]
 8002f2e:	681b      	ldr	r3, [r3, #0]
 8002f30:	689a      	ldr	r2, [r3, #8]
 8002f32:	4b28      	ldr	r3, [pc, #160]	; (8002fd4 <ADC_Enable+0xc0>)
 8002f34:	4013      	ands	r3, r2
 8002f36:	2b00      	cmp	r3, #0
 8002f38:	d00d      	beq.n	8002f56 <ADC_Enable+0x42>
 8002f3a:	687b      	ldr	r3, [r7, #4]
 8002f3c:	6ddb      	ldr	r3, [r3, #92]	; 0x5c
 8002f3e:	f043 0210 	orr.w	r2, r3, #16
 8002f42:	687b      	ldr	r3, [r7, #4]
 8002f44:	65da      	str	r2, [r3, #92]	; 0x5c
 8002f46:	687b      	ldr	r3, [r7, #4]
 8002f48:	6e1b      	ldr	r3, [r3, #96]	; 0x60
 8002f4a:	f043 0201 	orr.w	r2, r3, #1
 8002f4e:	687b      	ldr	r3, [r7, #4]
 8002f50:	661a      	str	r2, [r3, #96]	; 0x60
 8002f52:	2301      	movs	r3, #1
 8002f54:	e039      	b.n	8002fca <ADC_Enable+0xb6>
 8002f56:	687b      	ldr	r3, [r7, #4]
 8002f58:	681b      	ldr	r3, [r3, #0]
 8002f5a:	4618      	mov	r0, r3
 8002f5c:	f7ff f9ce 	bl	80022fc <LL_ADC_Enable>
 8002f60:	f7fe ffec 	bl	8001f3c <HAL_GetTick>
 8002f64:	60f8      	str	r0, [r7, #12]
 8002f66:	e028      	b.n	8002fba <ADC_Enable+0xa6>
 8002f68:	687b      	ldr	r3, [r7, #4]
 8002f6a:	681b      	ldr	r3, [r3, #0]
 8002f6c:	4618      	mov	r0, r3
 8002f6e:	f7ff f9ed 	bl	800234c <LL_ADC_IsEnabled>
 8002f72:	4603      	mov	r3, r0
 8002f74:	2b00      	cmp	r3, #0
 8002f76:	d104      	bne.n	8002f82 <ADC_Enable+0x6e>
 8002f78:	687b      	ldr	r3, [r7, #4]
 8002f7a:	681b      	ldr	r3, [r3, #0]
 8002f7c:	4618      	mov	r0, r3
 8002f7e:	f7ff f9bd 	bl	80022fc <LL_ADC_Enable>
 8002f82:	f7fe ffdb 	bl	8001f3c <HAL_GetTick>
 8002f86:	4602      	mov	r2, r0
 8002f88:	68fb      	ldr	r3, [r7, #12]
 8002f8a:	1ad3      	subs	r3, r2, r3
 8002f8c:	2b02      	cmp	r3, #2
 8002f8e:	d914      	bls.n	8002fba <ADC_Enable+0xa6>
 8002f90:	687b      	ldr	r3, [r7, #4]
 8002f92:	681b      	ldr	r3, [r3, #0]
 8002f94:	681b      	ldr	r3, [r3, #0]
 8002f96:	f003 0301 	and.w	r3, r3, #1
 8002f9a:	2b01      	cmp	r3, #1
 8002f9c:	d00d      	beq.n	8002fba <ADC_Enable+0xa6>
 8002f9e:	687b      	ldr	r3, [r7, #4]
 8002fa0:	6ddb      	ldr	r3, [r3, #92]	; 0x5c
 8002fa2:	f043 0210 	orr.w	r2, r3, #16
 8002fa6:	687b      	ldr	r3, [r7, #4]
 8002fa8:	65da      	str	r2, [r3, #92]	; 0x5c
 8002faa:	687b      	ldr	r3, [r7, #4]
 8002fac:	6e1b      	ldr	r3, [r3, #96]	; 0x60
 8002fae:	f043 0201 	orr.w	r2, r3, #1
 8002fb2:	687b      	ldr	r3, [r7, #4]
 8002fb4:	661a      	str	r2, [r3, #96]	; 0x60
 8002fb6:	2301      	movs	r3, #1
 8002fb8:	e007      	b.n	8002fca <ADC_Enable+0xb6>
 8002fba:	687b      	ldr	r3, [r7, #4]
 8002fbc:	681b      	ldr	r3, [r3, #0]
 8002fbe:	681b      	ldr	r3, [r3, #0]
 8002fc0:	f003 0301 	and.w	r3, r3, #1
 8002fc4:	2b01      	cmp	r3, #1
 8002fc6:	d1cf      	bne.n	8002f68 <ADC_Enable+0x54>
 8002fc8:	2300      	movs	r3, #0
 8002fca:	4618      	mov	r0, r3
 8002fcc:	3710      	adds	r7, #16
 8002fce:	46bd      	mov	sp, r7
 8002fd0:	bd80      	pop	{r7, pc}
 8002fd2:	bf00      	nop
 8002fd4:	8000003f 	.word	0x8000003f

08002fd8 <ADC_Disable>:
 8002fd8:	b580      	push	{r7, lr}
 8002fda:	b084      	sub	sp, #16
 8002fdc:	af00      	add	r7, sp, #0
 8002fde:	6078      	str	r0, [r7, #4]
 8002fe0:	687b      	ldr	r3, [r7, #4]
 8002fe2:	681b      	ldr	r3, [r3, #0]
 8002fe4:	4618      	mov	r0, r3
 8002fe6:	f7ff f9c4 	bl	8002372 <LL_ADC_IsDisableOngoing>
 8002fea:	60f8      	str	r0, [r7, #12]
 8002fec:	687b      	ldr	r3, [r7, #4]
 8002fee:	681b      	ldr	r3, [r3, #0]
 8002ff0:	4618      	mov	r0, r3
 8002ff2:	f7ff f9ab 	bl	800234c <LL_ADC_IsEnabled>
 8002ff6:	4603      	mov	r3, r0
 8002ff8:	2b00      	cmp	r3, #0
 8002ffa:	d047      	beq.n	800308c <ADC_Disable+0xb4>
 8002ffc:	68fb      	ldr	r3, [r7, #12]
 8002ffe:	2b00      	cmp	r3, #0
 8003000:	d144      	bne.n	800308c <ADC_Disable+0xb4>
 8003002:	687b      	ldr	r3, [r7, #4]
 8003004:	681b      	ldr	r3, [r3, #0]
 8003006:	689b      	ldr	r3, [r3, #8]
 8003008:	f003 030d 	and.w	r3, r3, #13
 800300c:	2b01      	cmp	r3, #1
 800300e:	d10c      	bne.n	800302a <ADC_Disable+0x52>
 8003010:	687b      	ldr	r3, [r7, #4]
 8003012:	681b      	ldr	r3, [r3, #0]
 8003014:	4618      	mov	r0, r3
 8003016:	f7ff f985 	bl	8002324 <LL_ADC_Disable>
 800301a:	687b      	ldr	r3, [r7, #4]
 800301c:	681b      	ldr	r3, [r3, #0]
 800301e:	2203      	movs	r2, #3
 8003020:	601a      	str	r2, [r3, #0]
 8003022:	f7fe ff8b 	bl	8001f3c <HAL_GetTick>
 8003026:	60b8      	str	r0, [r7, #8]
 8003028:	e029      	b.n	800307e <ADC_Disable+0xa6>
 800302a:	687b      	ldr	r3, [r7, #4]
 800302c:	6ddb      	ldr	r3, [r3, #92]	; 0x5c
 800302e:	f043 0210 	orr.w	r2, r3, #16
 8003032:	687b      	ldr	r3, [r7, #4]
 8003034:	65da      	str	r2, [r3, #92]	; 0x5c
 8003036:	687b      	ldr	r3, [r7, #4]
 8003038:	6e1b      	ldr	r3, [r3, #96]	; 0x60
 800303a:	f043 0201 	orr.w	r2, r3, #1
 800303e:	687b      	ldr	r3, [r7, #4]
 8003040:	661a      	str	r2, [r3, #96]	; 0x60
 8003042:	2301      	movs	r3, #1
 8003044:	e023      	b.n	800308e <ADC_Disable+0xb6>
 8003046:	f7fe ff79 	bl	8001f3c <HAL_GetTick>
 800304a:	4602      	mov	r2, r0
 800304c:	68bb      	ldr	r3, [r7, #8]
 800304e:	1ad3      	subs	r3, r2, r3
 8003050:	2b02      	cmp	r3, #2
 8003052:	d914      	bls.n	800307e <ADC_Disable+0xa6>
 8003054:	687b      	ldr	r3, [r7, #4]
 8003056:	681b      	ldr	r3, [r3, #0]
 8003058:	689b      	ldr	r3, [r3, #8]
 800305a:	f003 0301 	and.w	r3, r3, #1
 800305e:	2b00      	cmp	r3, #0
 8003060:	d00d      	beq.n	800307e <ADC_Disable+0xa6>
 8003062:	687b      	ldr	r3, [r7, #4]
 8003064:	6ddb      	ldr	r3, [r3, #92]	; 0x5c
 8003066:	f043 0210 	orr.w	r2, r3, #16
 800306a:	687b      	ldr	r3, [r7, #4]
 800306c:	65da      	str	r2, [r3, #92]	; 0x5c
 800306e:	687b      	ldr	r3, [r7, #4]
 8003070:	6e1b      	ldr	r3, [r3, #96]	; 0x60
 8003072:	f043 0201 	orr.w	r2, r3, #1
 8003076:	687b      	ldr	r3, [r7, #4]
 8003078:	661a      	str	r2, [r3, #96]	; 0x60
 800307a:	2301      	movs	r3, #1
 800307c:	e007      	b.n	800308e <ADC_Disable+0xb6>
 800307e:	687b      	ldr	r3, [r7, #4]
 8003080:	681b      	ldr	r3, [r3, #0]
 8003082:	689b      	ldr	r3, [r3, #8]
 8003084:	f003 0301 	and.w	r3, r3, #1
 8003088:	2b00      	cmp	r3, #0
 800308a:	d1dc      	bne.n	8003046 <ADC_Disable+0x6e>
 800308c:	2300      	movs	r3, #0
 800308e:	4618      	mov	r0, r3
 8003090:	3710      	adds	r7, #16
 8003092:	46bd      	mov	sp, r7
 8003094:	bd80      	pop	{r7, pc}

08003096 <ADC_DMAConvCplt>:
 8003096:	b580      	push	{r7, lr}
 8003098:	b084      	sub	sp, #16
 800309a:	af00      	add	r7, sp, #0
 800309c:	6078      	str	r0, [r7, #4]
 800309e:	687b      	ldr	r3, [r7, #4]
 80030a0:	6a9b      	ldr	r3, [r3, #40]	; 0x28
 80030a2:	60fb      	str	r3, [r7, #12]
 80030a4:	68fb      	ldr	r3, [r7, #12]
 80030a6:	6ddb      	ldr	r3, [r3, #92]	; 0x5c
 80030a8:	f003 0350 	and.w	r3, r3, #80	; 0x50
 80030ac:	2b00      	cmp	r3, #0
 80030ae:	d14b      	bne.n	8003148 <ADC_DMAConvCplt+0xb2>
 80030b0:	68fb      	ldr	r3, [r7, #12]
 80030b2:	6ddb      	ldr	r3, [r3, #92]	; 0x5c
 80030b4:	f443 7200 	orr.w	r2, r3, #512	; 0x200
 80030b8:	68fb      	ldr	r3, [r7, #12]
 80030ba:	65da      	str	r2, [r3, #92]	; 0x5c
 80030bc:	68fb      	ldr	r3, [r7, #12]
 80030be:	681b      	ldr	r3, [r3, #0]
 80030c0:	681b      	ldr	r3, [r3, #0]
 80030c2:	f003 0308 	and.w	r3, r3, #8
 80030c6:	2b00      	cmp	r3, #0
 80030c8:	d021      	beq.n	800310e <ADC_DMAConvCplt+0x78>
 80030ca:	68fb      	ldr	r3, [r7, #12]
 80030cc:	681b      	ldr	r3, [r3, #0]
 80030ce:	4618      	mov	r0, r3
 80030d0:	f7ff f834 	bl	800213c <LL_ADC_REG_IsTriggerSourceSWStart>
 80030d4:	4603      	mov	r3, r0
 80030d6:	2b00      	cmp	r3, #0
 80030d8:	d032      	beq.n	8003140 <ADC_DMAConvCplt+0xaa>
 80030da:	68fb      	ldr	r3, [r7, #12]
 80030dc:	681b      	ldr	r3, [r3, #0]
 80030de:	68db      	ldr	r3, [r3, #12]
 80030e0:	f403 5300 	and.w	r3, r3, #8192	; 0x2000
 80030e4:	2b00      	cmp	r3, #0
 80030e6:	d12b      	bne.n	8003140 <ADC_DMAConvCplt+0xaa>
 80030e8:	68fb      	ldr	r3, [r7, #12]
 80030ea:	6ddb      	ldr	r3, [r3, #92]	; 0x5c
 80030ec:	f423 7280 	bic.w	r2, r3, #256	; 0x100
 80030f0:	68fb      	ldr	r3, [r7, #12]
 80030f2:	65da      	str	r2, [r3, #92]	; 0x5c
 80030f4:	68fb      	ldr	r3, [r7, #12]
 80030f6:	6ddb      	ldr	r3, [r3, #92]	; 0x5c
 80030f8:	f403 5380 	and.w	r3, r3, #4096	; 0x1000
 80030fc:	2b00      	cmp	r3, #0
 80030fe:	d11f      	bne.n	8003140 <ADC_DMAConvCplt+0xaa>
 8003100:	68fb      	ldr	r3, [r7, #12]
 8003102:	6ddb      	ldr	r3, [r3, #92]	; 0x5c
 8003104:	f043 0201 	orr.w	r2, r3, #1
 8003108:	68fb      	ldr	r3, [r7, #12]
 800310a:	65da      	str	r2, [r3, #92]	; 0x5c
 800310c:	e018      	b.n	8003140 <ADC_DMAConvCplt+0xaa>
 800310e:	68fb      	ldr	r3, [r7, #12]
 8003110:	681b      	ldr	r3, [r3, #0]
 8003112:	68db      	ldr	r3, [r3, #12]
 8003114:	f003 0302 	and.w	r3, r3, #2
 8003118:	2b00      	cmp	r3, #0
 800311a:	d111      	bne.n	8003140 <ADC_DMAConvCplt+0xaa>
 800311c:	68fb      	ldr	r3, [r7, #12]
 800311e:	6ddb      	ldr	r3, [r3, #92]	; 0x5c
 8003120:	f423 7280 	bic.w	r2, r3, #256	; 0x100
 8003124:	68fb      	ldr	r3, [r7, #12]
 8003126:	65da      	str	r2, [r3, #92]	; 0x5c
 8003128:	68fb      	ldr	r3, [r7, #12]
 800312a:	6ddb      	ldr	r3, [r3, #92]	; 0x5c
 800312c:	f403 5380 	and.w	r3, r3, #4096	; 0x1000
 8003130:	2b00      	cmp	r3, #0
 8003132:	d105      	bne.n	8003140 <ADC_DMAConvCplt+0xaa>
 8003134:	68fb      	ldr	r3, [r7, #12]
 8003136:	6ddb      	ldr	r3, [r3, #92]	; 0x5c
 8003138:	f043 0201 	orr.w	r2, r3, #1
 800313c:	68fb      	ldr	r3, [r7, #12]
 800313e:	65da      	str	r2, [r3, #92]	; 0x5c
 8003140:	68f8      	ldr	r0, [r7, #12]
 8003142:	f7ff fad9 	bl	80026f8 <HAL_ADC_ConvCpltCallback>
 8003146:	e00e      	b.n	8003166 <ADC_DMAConvCplt+0xd0>
 8003148:	68fb      	ldr	r3, [r7, #12]
 800314a:	6ddb      	ldr	r3, [r3, #92]	; 0x5c
 800314c:	f003 0310 	and.w	r3, r3, #16
 8003150:	2b00      	cmp	r3, #0
 8003152:	d003      	beq.n	800315c <ADC_DMAConvCplt+0xc6>
 8003154:	68f8      	ldr	r0, [r7, #12]
 8003156:	f7ff fae3 	bl	8002720 <HAL_ADC_ErrorCallback>
 800315a:	e004      	b.n	8003166 <ADC_DMAConvCplt+0xd0>
 800315c:	68fb      	ldr	r3, [r7, #12]
 800315e:	6d5b      	ldr	r3, [r3, #84]	; 0x54
 8003160:	6b5b      	ldr	r3, [r3, #52]	; 0x34
 8003162:	6878      	ldr	r0, [r7, #4]
 8003164:	4798      	blx	r3
 8003166:	bf00      	nop
 8003168:	3710      	adds	r7, #16
 800316a:	46bd      	mov	sp, r7
 800316c:	bd80      	pop	{r7, pc}

0800316e <ADC_DMAHalfConvCplt>:
 800316e:	b580      	push	{r7, lr}
 8003170:	b084      	sub	sp, #16
 8003172:	af00      	add	r7, sp, #0
 8003174:	6078      	str	r0, [r7, #4]
 8003176:	687b      	ldr	r3, [r7, #4]
 8003178:	6a9b      	ldr	r3, [r3, #40]	; 0x28
 800317a:	60fb      	str	r3, [r7, #12]
 800317c:	68f8      	ldr	r0, [r7, #12]
 800317e:	f7ff fac5 	bl	800270c <HAL_ADC_ConvHalfCpltCallback>
 8003182:	bf00      	nop
 8003184:	3710      	adds	r7, #16
 8003186:	46bd      	mov	sp, r7
 8003188:	bd80      	pop	{r7, pc}

0800318a <ADC_DMAError>:
 800318a:	b580      	push	{r7, lr}
 800318c:	b084      	sub	sp, #16
 800318e:	af00      	add	r7, sp, #0
 8003190:	6078      	str	r0, [r7, #4]
 8003192:	687b      	ldr	r3, [r7, #4]
 8003194:	6a9b      	ldr	r3, [r3, #40]	; 0x28
 8003196:	60fb      	str	r3, [r7, #12]
 8003198:	68fb      	ldr	r3, [r7, #12]
 800319a:	6ddb      	ldr	r3, [r3, #92]	; 0x5c
 800319c:	f043 0240 	orr.w	r2, r3, #64	; 0x40
 80031a0:	68fb      	ldr	r3, [r7, #12]
 80031a2:	65da      	str	r2, [r3, #92]	; 0x5c
 80031a4:	68fb      	ldr	r3, [r7, #12]
 80031a6:	6e1b      	ldr	r3, [r3, #96]	; 0x60
 80031a8:	f043 0204 	orr.w	r2, r3, #4
 80031ac:	68fb      	ldr	r3, [r7, #12]
 80031ae:	661a      	str	r2, [r3, #96]	; 0x60
 80031b0:	68f8      	ldr	r0, [r7, #12]
 80031b2:	f7ff fab5 	bl	8002720 <HAL_ADC_ErrorCallback>
 80031b6:	bf00      	nop
 80031b8:	3710      	adds	r7, #16
 80031ba:	46bd      	mov	sp, r7
 80031bc:	bd80      	pop	{r7, pc}

080031be <LL_ADC_SetCommonPathInternalCh>:
 80031be:	b480      	push	{r7}
 80031c0:	b083      	sub	sp, #12
 80031c2:	af00      	add	r7, sp, #0
 80031c4:	6078      	str	r0, [r7, #4]
 80031c6:	6039      	str	r1, [r7, #0]
 80031c8:	687b      	ldr	r3, [r7, #4]
 80031ca:	689b      	ldr	r3, [r3, #8]
 80031cc:	f023 72e0 	bic.w	r2, r3, #29360128	; 0x1c00000
 80031d0:	683b      	ldr	r3, [r7, #0]
 80031d2:	431a      	orrs	r2, r3
 80031d4:	687b      	ldr	r3, [r7, #4]
 80031d6:	609a      	str	r2, [r3, #8]
 80031d8:	bf00      	nop
 80031da:	370c      	adds	r7, #12
 80031dc:	46bd      	mov	sp, r7
 80031de:	f85d 7b04 	ldr.w	r7, [sp], #4
 80031e2:	4770      	bx	lr

080031e4 <LL_ADC_GetCommonPathInternalCh>:
 80031e4:	b480      	push	{r7}
 80031e6:	b083      	sub	sp, #12
 80031e8:	af00      	add	r7, sp, #0
 80031ea:	6078      	str	r0, [r7, #4]
 80031ec:	687b      	ldr	r3, [r7, #4]
 80031ee:	689b      	ldr	r3, [r3, #8]
 80031f0:	f003 73e0 	and.w	r3, r3, #29360128	; 0x1c00000
 80031f4:	4618      	mov	r0, r3
 80031f6:	370c      	adds	r7, #12
 80031f8:	46bd      	mov	sp, r7
 80031fa:	f85d 7b04 	ldr.w	r7, [sp], #4
 80031fe:	4770      	bx	lr

08003200 <LL_ADC_SetOffset>:
 8003200:	b480      	push	{r7}
 8003202:	b087      	sub	sp, #28
 8003204:	af00      	add	r7, sp, #0
 8003206:	60f8      	str	r0, [r7, #12]
 8003208:	60b9      	str	r1, [r7, #8]
 800320a:	607a      	str	r2, [r7, #4]
 800320c:	603b      	str	r3, [r7, #0]
 800320e:	68fb      	ldr	r3, [r7, #12]
 8003210:	3360      	adds	r3, #96	; 0x60
 8003212:	461a      	mov	r2, r3
 8003214:	68bb      	ldr	r3, [r7, #8]
 8003216:	009b      	lsls	r3, r3, #2
 8003218:	4413      	add	r3, r2
 800321a:	617b      	str	r3, [r7, #20]
 800321c:	697b      	ldr	r3, [r7, #20]
 800321e:	681a      	ldr	r2, [r3, #0]
 8003220:	4b08      	ldr	r3, [pc, #32]	; (8003244 <LL_ADC_SetOffset+0x44>)
 8003222:	4013      	ands	r3, r2
 8003224:	687a      	ldr	r2, [r7, #4]
 8003226:	f002 41f8 	and.w	r1, r2, #2080374784	; 0x7c000000
 800322a:	683a      	ldr	r2, [r7, #0]
 800322c:	430a      	orrs	r2, r1
 800322e:	4313      	orrs	r3, r2
 8003230:	f043 4200 	orr.w	r2, r3, #2147483648	; 0x80000000
 8003234:	697b      	ldr	r3, [r7, #20]
 8003236:	601a      	str	r2, [r3, #0]
 8003238:	bf00      	nop
 800323a:	371c      	adds	r7, #28
 800323c:	46bd      	mov	sp, r7
 800323e:	f85d 7b04 	ldr.w	r7, [sp], #4
 8003242:	4770      	bx	lr
 8003244:	03fff000 	.word	0x03fff000

08003248 <LL_ADC_GetOffsetChannel>:
 8003248:	b480      	push	{r7}
 800324a:	b085      	sub	sp, #20
 800324c:	af00      	add	r7, sp, #0
 800324e:	6078      	str	r0, [r7, #4]
 8003250:	6039      	str	r1, [r7, #0]
 8003252:	687b      	ldr	r3, [r7, #4]
 8003254:	3360      	adds	r3, #96	; 0x60
 8003256:	461a      	mov	r2, r3
 8003258:	683b      	ldr	r3, [r7, #0]
 800325a:	009b      	lsls	r3, r3, #2
 800325c:	4413      	add	r3, r2
 800325e:	60fb      	str	r3, [r7, #12]
 8003260:	68fb      	ldr	r3, [r7, #12]
 8003262:	681b      	ldr	r3, [r3, #0]
 8003264:	f003 43f8 	and.w	r3, r3, #2080374784	; 0x7c000000
 8003268:	4618      	mov	r0, r3
 800326a:	3714      	adds	r7, #20
 800326c:	46bd      	mov	sp, r7
 800326e:	f85d 7b04 	ldr.w	r7, [sp], #4
 8003272:	4770      	bx	lr

08003274 <LL_ADC_SetOffsetState>:
 8003274:	b480      	push	{r7}
 8003276:	b087      	sub	sp, #28
 8003278:	af00      	add	r7, sp, #0
 800327a:	60f8      	str	r0, [r7, #12]
 800327c:	60b9      	str	r1, [r7, #8]
 800327e:	607a      	str	r2, [r7, #4]
 8003280:	68fb      	ldr	r3, [r7, #12]
 8003282:	3360      	adds	r3, #96	; 0x60
 8003284:	461a      	mov	r2, r3
 8003286:	68bb      	ldr	r3, [r7, #8]
 8003288:	009b      	lsls	r3, r3, #2
 800328a:	4413      	add	r3, r2
 800328c:	617b      	str	r3, [r7, #20]
 800328e:	697b      	ldr	r3, [r7, #20]
 8003290:	681b      	ldr	r3, [r3, #0]
 8003292:	f023 4200 	bic.w	r2, r3, #2147483648	; 0x80000000
 8003296:	687b      	ldr	r3, [r7, #4]
 8003298:	431a      	orrs	r2, r3
 800329a:	697b      	ldr	r3, [r7, #20]
 800329c:	601a      	str	r2, [r3, #0]
 800329e:	bf00      	nop
 80032a0:	371c      	adds	r7, #28
 80032a2:	46bd      	mov	sp, r7
 80032a4:	f85d 7b04 	ldr.w	r7, [sp], #4
 80032a8:	4770      	bx	lr

080032aa <LL_ADC_SetOffsetSign>:
 80032aa:	b480      	push	{r7}
 80032ac:	b087      	sub	sp, #28
 80032ae:	af00      	add	r7, sp, #0
 80032b0:	60f8      	str	r0, [r7, #12]
 80032b2:	60b9      	str	r1, [r7, #8]
 80032b4:	607a      	str	r2, [r7, #4]
 80032b6:	68fb      	ldr	r3, [r7, #12]
 80032b8:	3360      	adds	r3, #96	; 0x60
 80032ba:	461a      	mov	r2, r3
 80032bc:	68bb      	ldr	r3, [r7, #8]
 80032be:	009b      	lsls	r3, r3, #2
 80032c0:	4413      	add	r3, r2
 80032c2:	617b      	str	r3, [r7, #20]
 80032c4:	697b      	ldr	r3, [r7, #20]
 80032c6:	681b      	ldr	r3, [r3, #0]
 80032c8:	f023 7280 	bic.w	r2, r3, #16777216	; 0x1000000
 80032cc:	687b      	ldr	r3, [r7, #4]
 80032ce:	431a      	orrs	r2, r3
 80032d0:	697b      	ldr	r3, [r7, #20]
 80032d2:	601a      	str	r2, [r3, #0]
 80032d4:	bf00      	nop
 80032d6:	371c      	adds	r7, #28
 80032d8:	46bd      	mov	sp, r7
 80032da:	f85d 7b04 	ldr.w	r7, [sp], #4
 80032de:	4770      	bx	lr

080032e0 <LL_ADC_SetOffsetSaturation>:
 80032e0:	b480      	push	{r7}
 80032e2:	b087      	sub	sp, #28
 80032e4:	af00      	add	r7, sp, #0
 80032e6:	60f8      	str	r0, [r7, #12]
 80032e8:	60b9      	str	r1, [r7, #8]
 80032ea:	607a      	str	r2, [r7, #4]
 80032ec:	68fb      	ldr	r3, [r7, #12]
 80032ee:	3360      	adds	r3, #96	; 0x60
 80032f0:	461a      	mov	r2, r3
 80032f2:	68bb      	ldr	r3, [r7, #8]
 80032f4:	009b      	lsls	r3, r3, #2
 80032f6:	4413      	add	r3, r2
 80032f8:	617b      	str	r3, [r7, #20]
 80032fa:	697b      	ldr	r3, [r7, #20]
 80032fc:	681b      	ldr	r3, [r3, #0]
 80032fe:	f023 7200 	bic.w	r2, r3, #33554432	; 0x2000000
 8003302:	687b      	ldr	r3, [r7, #4]
 8003304:	431a      	orrs	r2, r3
 8003306:	697b      	ldr	r3, [r7, #20]
 8003308:	601a      	str	r2, [r3, #0]
 800330a:	bf00      	nop
 800330c:	371c      	adds	r7, #28
 800330e:	46bd      	mov	sp, r7
 8003310:	f85d 7b04 	ldr.w	r7, [sp], #4
 8003314:	4770      	bx	lr

08003316 <LL_ADC_SetSamplingTimeCommonConfig>:
 8003316:	b480      	push	{r7}
 8003318:	b083      	sub	sp, #12
 800331a:	af00      	add	r7, sp, #0
 800331c:	6078      	str	r0, [r7, #4]
 800331e:	6039      	str	r1, [r7, #0]
 8003320:	687b      	ldr	r3, [r7, #4]
 8003322:	695b      	ldr	r3, [r3, #20]
 8003324:	f023 4200 	bic.w	r2, r3, #2147483648	; 0x80000000
 8003328:	683b      	ldr	r3, [r7, #0]
 800332a:	431a      	orrs	r2, r3
 800332c:	687b      	ldr	r3, [r7, #4]
 800332e:	615a      	str	r2, [r3, #20]
 8003330:	bf00      	nop
 8003332:	370c      	adds	r7, #12
 8003334:	46bd      	mov	sp, r7
 8003336:	f85d 7b04 	ldr.w	r7, [sp], #4
 800333a:	4770      	bx	lr

0800333c <LL_ADC_REG_IsTriggerSourceSWStart>:
 800333c:	b480      	push	{r7}
 800333e:	b083      	sub	sp, #12
 8003340:	af00      	add	r7, sp, #0
 8003342:	6078      	str	r0, [r7, #4]
 8003344:	687b      	ldr	r3, [r7, #4]
 8003346:	68db      	ldr	r3, [r3, #12]
 8003348:	f403 6340 	and.w	r3, r3, #3072	; 0xc00
 800334c:	2b00      	cmp	r3, #0
 800334e:	d101      	bne.n	8003354 <LL_ADC_REG_IsTriggerSourceSWStart+0x18>
 8003350:	2301      	movs	r3, #1
 8003352:	e000      	b.n	8003356 <LL_ADC_REG_IsTriggerSourceSWStart+0x1a>
 8003354:	2300      	movs	r3, #0
 8003356:	4618      	mov	r0, r3
 8003358:	370c      	adds	r7, #12
 800335a:	46bd      	mov	sp, r7
 800335c:	f85d 7b04 	ldr.w	r7, [sp], #4
 8003360:	4770      	bx	lr

08003362 <LL_ADC_INJ_IsTriggerSourceSWStart>:
 8003362:	b480      	push	{r7}
 8003364:	b083      	sub	sp, #12
 8003366:	af00      	add	r7, sp, #0
 8003368:	6078      	str	r0, [r7, #4]
 800336a:	687b      	ldr	r3, [r7, #4]
 800336c:	6cdb      	ldr	r3, [r3, #76]	; 0x4c
 800336e:	f403 73c0 	and.w	r3, r3, #384	; 0x180
 8003372:	2b00      	cmp	r3, #0
 8003374:	d101      	bne.n	800337a <LL_ADC_INJ_IsTriggerSourceSWStart+0x18>
 8003376:	2301      	movs	r3, #1
 8003378:	e000      	b.n	800337c <LL_ADC_INJ_IsTriggerSourceSWStart+0x1a>
 800337a:	2300      	movs	r3, #0
 800337c:	4618      	mov	r0, r3
 800337e:	370c      	adds	r7, #12
 8003380:	46bd      	mov	sp, r7
 8003382:	f85d 7b04 	ldr.w	r7, [sp], #4
 8003386:	4770      	bx	lr

08003388 <LL_ADC_INJ_GetTrigAuto>:
 8003388:	b480      	push	{r7}
 800338a:	b083      	sub	sp, #12
 800338c:	af00      	add	r7, sp, #0
 800338e:	6078      	str	r0, [r7, #4]
 8003390:	687b      	ldr	r3, [r7, #4]
 8003392:	68db      	ldr	r3, [r3, #12]
 8003394:	f003 7300 	and.w	r3, r3, #33554432	; 0x2000000
 8003398:	4618      	mov	r0, r3
 800339a:	370c      	adds	r7, #12
 800339c:	46bd      	mov	sp, r7
 800339e:	f85d 7b04 	ldr.w	r7, [sp], #4
 80033a2:	4770      	bx	lr

080033a4 <LL_ADC_SetChannelSamplingTime>:
 80033a4:	b480      	push	{r7}
 80033a6:	b087      	sub	sp, #28
 80033a8:	af00      	add	r7, sp, #0
 80033aa:	60f8      	str	r0, [r7, #12]
 80033ac:	60b9      	str	r1, [r7, #8]
 80033ae:	607a      	str	r2, [r7, #4]
 80033b0:	68fb      	ldr	r3, [r7, #12]
 80033b2:	3314      	adds	r3, #20
 80033b4:	461a      	mov	r2, r3
 80033b6:	68bb      	ldr	r3, [r7, #8]
 80033b8:	0e5b      	lsrs	r3, r3, #25
 80033ba:	009b      	lsls	r3, r3, #2
 80033bc:	f003 0304 	and.w	r3, r3, #4
 80033c0:	4413      	add	r3, r2
 80033c2:	617b      	str	r3, [r7, #20]
 80033c4:	697b      	ldr	r3, [r7, #20]
 80033c6:	681a      	ldr	r2, [r3, #0]
 80033c8:	68bb      	ldr	r3, [r7, #8]
 80033ca:	0d1b      	lsrs	r3, r3, #20
 80033cc:	f003 031f 	and.w	r3, r3, #31
 80033d0:	2107      	movs	r1, #7
 80033d2:	fa01 f303 	lsl.w	r3, r1, r3
 80033d6:	43db      	mvns	r3, r3
 80033d8:	401a      	ands	r2, r3
 80033da:	68bb      	ldr	r3, [r7, #8]
 80033dc:	0d1b      	lsrs	r3, r3, #20
 80033de:	f003 031f 	and.w	r3, r3, #31
 80033e2:	6879      	ldr	r1, [r7, #4]
 80033e4:	fa01 f303 	lsl.w	r3, r1, r3
 80033e8:	431a      	orrs	r2, r3
 80033ea:	697b      	ldr	r3, [r7, #20]
 80033ec:	601a      	str	r2, [r3, #0]
 80033ee:	bf00      	nop
 80033f0:	371c      	adds	r7, #28
 80033f2:	46bd      	mov	sp, r7
 80033f4:	f85d 7b04 	ldr.w	r7, [sp], #4
 80033f8:	4770      	bx	lr
	...

080033fc <LL_ADC_SetChannelSingleDiff>:
 80033fc:	b480      	push	{r7}
 80033fe:	b085      	sub	sp, #20
 8003400:	af00      	add	r7, sp, #0
 8003402:	60f8      	str	r0, [r7, #12]
 8003404:	60b9      	str	r1, [r7, #8]
 8003406:	607a      	str	r2, [r7, #4]
 8003408:	687b      	ldr	r3, [r7, #4]
 800340a:	4a0f      	ldr	r2, [pc, #60]	; (8003448 <LL_ADC_SetChannelSingleDiff+0x4c>)
 800340c:	4293      	cmp	r3, r2
 800340e:	d10a      	bne.n	8003426 <LL_ADC_SetChannelSingleDiff+0x2a>
 8003410:	68fb      	ldr	r3, [r7, #12]
 8003412:	f8d3 20b0 	ldr.w	r2, [r3, #176]	; 0xb0
 8003416:	68bb      	ldr	r3, [r7, #8]
 8003418:	f3c3 0312 	ubfx	r3, r3, #0, #19
 800341c:	431a      	orrs	r2, r3
 800341e:	68fb      	ldr	r3, [r7, #12]
 8003420:	f8c3 20b0 	str.w	r2, [r3, #176]	; 0xb0
 8003424:	e00a      	b.n	800343c <LL_ADC_SetChannelSingleDiff+0x40>
 8003426:	68fb      	ldr	r3, [r7, #12]
 8003428:	f8d3 20b0 	ldr.w	r2, [r3, #176]	; 0xb0
 800342c:	68bb      	ldr	r3, [r7, #8]
 800342e:	f3c3 0312 	ubfx	r3, r3, #0, #19
 8003432:	43db      	mvns	r3, r3
 8003434:	401a      	ands	r2, r3
 8003436:	68fb      	ldr	r3, [r7, #12]
 8003438:	f8c3 20b0 	str.w	r2, [r3, #176]	; 0xb0
 800343c:	bf00      	nop
 800343e:	3714      	adds	r7, #20
 8003440:	46bd      	mov	sp, r7
 8003442:	f85d 7b04 	ldr.w	r7, [sp], #4
 8003446:	4770      	bx	lr
 8003448:	407f0000 	.word	0x407f0000

0800344c <LL_ADC_GetMultimode>:
 800344c:	b480      	push	{r7}
 800344e:	b083      	sub	sp, #12
 8003450:	af00      	add	r7, sp, #0
 8003452:	6078      	str	r0, [r7, #4]
 8003454:	687b      	ldr	r3, [r7, #4]
 8003456:	689b      	ldr	r3, [r3, #8]
 8003458:	f003 031f 	and.w	r3, r3, #31
 800345c:	4618      	mov	r0, r3
 800345e:	370c      	adds	r7, #12
 8003460:	46bd      	mov	sp, r7
 8003462:	f85d 7b04 	ldr.w	r7, [sp], #4
 8003466:	4770      	bx	lr

08003468 <LL_ADC_IsEnabled>:
 8003468:	b480      	push	{r7}
 800346a:	b083      	sub	sp, #12
 800346c:	af00      	add	r7, sp, #0
 800346e:	6078      	str	r0, [r7, #4]
 8003470:	687b      	ldr	r3, [r7, #4]
 8003472:	689b      	ldr	r3, [r3, #8]
 8003474:	f003 0301 	and.w	r3, r3, #1
 8003478:	2b01      	cmp	r3, #1
 800347a:	d101      	bne.n	8003480 <LL_ADC_IsEnabled+0x18>
 800347c:	2301      	movs	r3, #1
 800347e:	e000      	b.n	8003482 <LL_ADC_IsEnabled+0x1a>
 8003480:	2300      	movs	r3, #0
 8003482:	4618      	mov	r0, r3
 8003484:	370c      	adds	r7, #12
 8003486:	46bd      	mov	sp, r7
 8003488:	f85d 7b04 	ldr.w	r7, [sp], #4
 800348c:	4770      	bx	lr

0800348e <LL_ADC_StartCalibration>:
 800348e:	b480      	push	{r7}
 8003490:	b083      	sub	sp, #12
 8003492:	af00      	add	r7, sp, #0
 8003494:	6078      	str	r0, [r7, #4]
 8003496:	6039      	str	r1, [r7, #0]
 8003498:	687b      	ldr	r3, [r7, #4]
 800349a:	689b      	ldr	r3, [r3, #8]
 800349c:	f023 4340 	bic.w	r3, r3, #3221225472	; 0xc0000000
 80034a0:	f023 033f 	bic.w	r3, r3, #63	; 0x3f
 80034a4:	683a      	ldr	r2, [r7, #0]
 80034a6:	f002 4280 	and.w	r2, r2, #1073741824	; 0x40000000
 80034aa:	4313      	orrs	r3, r2
 80034ac:	f043 4200 	orr.w	r2, r3, #2147483648	; 0x80000000
 80034b0:	687b      	ldr	r3, [r7, #4]
 80034b2:	609a      	str	r2, [r3, #8]
 80034b4:	bf00      	nop
 80034b6:	370c      	adds	r7, #12
 80034b8:	46bd      	mov	sp, r7
 80034ba:	f85d 7b04 	ldr.w	r7, [sp], #4
 80034be:	4770      	bx	lr

080034c0 <LL_ADC_IsCalibrationOnGoing>:
 80034c0:	b480      	push	{r7}
 80034c2:	b083      	sub	sp, #12
 80034c4:	af00      	add	r7, sp, #0
 80034c6:	6078      	str	r0, [r7, #4]
 80034c8:	687b      	ldr	r3, [r7, #4]
 80034ca:	689b      	ldr	r3, [r3, #8]
 80034cc:	f003 4300 	and.w	r3, r3, #2147483648	; 0x80000000
 80034d0:	f1b3 4f00 	cmp.w	r3, #2147483648	; 0x80000000
 80034d4:	d101      	bne.n	80034da <LL_ADC_IsCalibrationOnGoing+0x1a>
 80034d6:	2301      	movs	r3, #1
 80034d8:	e000      	b.n	80034dc <LL_ADC_IsCalibrationOnGoing+0x1c>
 80034da:	2300      	movs	r3, #0
 80034dc:	4618      	mov	r0, r3
 80034de:	370c      	adds	r7, #12
 80034e0:	46bd      	mov	sp, r7
 80034e2:	f85d 7b04 	ldr.w	r7, [sp], #4
 80034e6:	4770      	bx	lr

080034e8 <LL_ADC_REG_StartConversion>:
 80034e8:	b480      	push	{r7}
 80034ea:	b083      	sub	sp, #12
 80034ec:	af00      	add	r7, sp, #0
 80034ee:	6078      	str	r0, [r7, #4]
 80034f0:	687b      	ldr	r3, [r7, #4]
 80034f2:	689b      	ldr	r3, [r3, #8]
 80034f4:	f023 4300 	bic.w	r3, r3, #2147483648	; 0x80000000
 80034f8:	f023 033f 	bic.w	r3, r3, #63	; 0x3f
 80034fc:	f043 0204 	orr.w	r2, r3, #4
 8003500:	687b      	ldr	r3, [r7, #4]
 8003502:	609a      	str	r2, [r3, #8]
 8003504:	bf00      	nop
 8003506:	370c      	adds	r7, #12
 8003508:	46bd      	mov	sp, r7
 800350a:	f85d 7b04 	ldr.w	r7, [sp], #4
 800350e:	4770      	bx	lr

08003510 <LL_ADC_REG_IsConversionOngoing>:
 8003510:	b480      	push	{r7}
 8003512:	b083      	sub	sp, #12
 8003514:	af00      	add	r7, sp, #0
 8003516:	6078      	str	r0, [r7, #4]
 8003518:	687b      	ldr	r3, [r7, #4]
 800351a:	689b      	ldr	r3, [r3, #8]
 800351c:	f003 0304 	and.w	r3, r3, #4
 8003520:	2b04      	cmp	r3, #4
 8003522:	d101      	bne.n	8003528 <LL_ADC_REG_IsConversionOngoing+0x18>
 8003524:	2301      	movs	r3, #1
 8003526:	e000      	b.n	800352a <LL_ADC_REG_IsConversionOngoing+0x1a>
 8003528:	2300      	movs	r3, #0
 800352a:	4618      	mov	r0, r3
 800352c:	370c      	adds	r7, #12
 800352e:	46bd      	mov	sp, r7
 8003530:	f85d 7b04 	ldr.w	r7, [sp], #4
 8003534:	4770      	bx	lr

08003536 <LL_ADC_INJ_StartConversion>:
 8003536:	b480      	push	{r7}
 8003538:	b083      	sub	sp, #12
 800353a:	af00      	add	r7, sp, #0
 800353c:	6078      	str	r0, [r7, #4]
 800353e:	687b      	ldr	r3, [r7, #4]
 8003540:	689b      	ldr	r3, [r3, #8]
 8003542:	f023 4300 	bic.w	r3, r3, #2147483648	; 0x80000000
 8003546:	f023 033f 	bic.w	r3, r3, #63	; 0x3f
 800354a:	f043 0208 	orr.w	r2, r3, #8
 800354e:	687b      	ldr	r3, [r7, #4]
 8003550:	609a      	str	r2, [r3, #8]
 8003552:	bf00      	nop
 8003554:	370c      	adds	r7, #12
 8003556:	46bd      	mov	sp, r7
 8003558:	f85d 7b04 	ldr.w	r7, [sp], #4
 800355c:	4770      	bx	lr

0800355e <LL_ADC_INJ_IsConversionOngoing>:
 800355e:	b480      	push	{r7}
 8003560:	b083      	sub	sp, #12
 8003562:	af00      	add	r7, sp, #0
 8003564:	6078      	str	r0, [r7, #4]
 8003566:	687b      	ldr	r3, [r7, #4]
 8003568:	689b      	ldr	r3, [r3, #8]
 800356a:	f003 0308 	and.w	r3, r3, #8
 800356e:	2b08      	cmp	r3, #8
 8003570:	d101      	bne.n	8003576 <LL_ADC_INJ_IsConversionOngoing+0x18>
 8003572:	2301      	movs	r3, #1
 8003574:	e000      	b.n	8003578 <LL_ADC_INJ_IsConversionOngoing+0x1a>
 8003576:	2300      	movs	r3, #0
 8003578:	4618      	mov	r0, r3
 800357a:	370c      	adds	r7, #12
 800357c:	46bd      	mov	sp, r7
 800357e:	f85d 7b04 	ldr.w	r7, [sp], #4
 8003582:	4770      	bx	lr

08003584 <HAL_ADCEx_Calibration_Start>:
 8003584:	b580      	push	{r7, lr}
 8003586:	b084      	sub	sp, #16
 8003588:	af00      	add	r7, sp, #0
 800358a:	6078      	str	r0, [r7, #4]
 800358c:	6039      	str	r1, [r7, #0]
 800358e:	2300      	movs	r3, #0
 8003590:	60bb      	str	r3, [r7, #8]
 8003592:	687b      	ldr	r3, [r7, #4]
 8003594:	f893 3058 	ldrb.w	r3, [r3, #88]	; 0x58
 8003598:	2b01      	cmp	r3, #1
 800359a:	d101      	bne.n	80035a0 <HAL_ADCEx_Calibration_Start+0x1c>
 800359c:	2302      	movs	r3, #2
 800359e:	e04d      	b.n	800363c <HAL_ADCEx_Calibration_Start+0xb8>
 80035a0:	687b      	ldr	r3, [r7, #4]
 80035a2:	2201      	movs	r2, #1
 80035a4:	f883 2058 	strb.w	r2, [r3, #88]	; 0x58
 80035a8:	6878      	ldr	r0, [r7, #4]
 80035aa:	f7ff fd15 	bl	8002fd8 <ADC_Disable>
 80035ae:	4603      	mov	r3, r0
 80035b0:	73fb      	strb	r3, [r7, #15]
 80035b2:	7bfb      	ldrb	r3, [r7, #15]
 80035b4:	2b00      	cmp	r3, #0
 80035b6:	d136      	bne.n	8003626 <HAL_ADCEx_Calibration_Start+0xa2>
 80035b8:	687b      	ldr	r3, [r7, #4]
 80035ba:	6ddb      	ldr	r3, [r3, #92]	; 0x5c
 80035bc:	f423 5388 	bic.w	r3, r3, #4352	; 0x1100
 80035c0:	f023 0302 	bic.w	r3, r3, #2
 80035c4:	f043 0202 	orr.w	r2, r3, #2
 80035c8:	687b      	ldr	r3, [r7, #4]
 80035ca:	65da      	str	r2, [r3, #92]	; 0x5c
 80035cc:	687b      	ldr	r3, [r7, #4]
 80035ce:	681b      	ldr	r3, [r3, #0]
 80035d0:	6839      	ldr	r1, [r7, #0]
 80035d2:	4618      	mov	r0, r3
 80035d4:	f7ff ff5b 	bl	800348e <LL_ADC_StartCalibration>
 80035d8:	e014      	b.n	8003604 <HAL_ADCEx_Calibration_Start+0x80>
 80035da:	68bb      	ldr	r3, [r7, #8]
 80035dc:	3301      	adds	r3, #1
 80035de:	60bb      	str	r3, [r7, #8]
 80035e0:	68bb      	ldr	r3, [r7, #8]
 80035e2:	4a18      	ldr	r2, [pc, #96]	; (8003644 <HAL_ADCEx_Calibration_Start+0xc0>)
 80035e4:	4293      	cmp	r3, r2
 80035e6:	d90d      	bls.n	8003604 <HAL_ADCEx_Calibration_Start+0x80>
 80035e8:	687b      	ldr	r3, [r7, #4]
 80035ea:	6ddb      	ldr	r3, [r3, #92]	; 0x5c
 80035ec:	f023 0312 	bic.w	r3, r3, #18
 80035f0:	f043 0210 	orr.w	r2, r3, #16
 80035f4:	687b      	ldr	r3, [r7, #4]
 80035f6:	65da      	str	r2, [r3, #92]	; 0x5c
 80035f8:	687b      	ldr	r3, [r7, #4]
 80035fa:	2200      	movs	r2, #0
 80035fc:	f883 2058 	strb.w	r2, [r3, #88]	; 0x58
 8003600:	2301      	movs	r3, #1
 8003602:	e01b      	b.n	800363c <HAL_ADCEx_Calibration_Start+0xb8>
 8003604:	687b      	ldr	r3, [r7, #4]
 8003606:	681b      	ldr	r3, [r3, #0]
 8003608:	4618      	mov	r0, r3
 800360a:	f7ff ff59 	bl	80034c0 <LL_ADC_IsCalibrationOnGoing>
 800360e:	4603      	mov	r3, r0
 8003610:	2b00      	cmp	r3, #0
 8003612:	d1e2      	bne.n	80035da <HAL_ADCEx_Calibration_Start+0x56>
 8003614:	687b      	ldr	r3, [r7, #4]
 8003616:	6ddb      	ldr	r3, [r3, #92]	; 0x5c
 8003618:	f023 0303 	bic.w	r3, r3, #3
 800361c:	f043 0201 	orr.w	r2, r3, #1
 8003620:	687b      	ldr	r3, [r7, #4]
 8003622:	65da      	str	r2, [r3, #92]	; 0x5c
 8003624:	e005      	b.n	8003632 <HAL_ADCEx_Calibration_Start+0xae>
 8003626:	687b      	ldr	r3, [r7, #4]
 8003628:	6ddb      	ldr	r3, [r3, #92]	; 0x5c
 800362a:	f043 0210 	orr.w	r2, r3, #16
 800362e:	687b      	ldr	r3, [r7, #4]
 8003630:	65da      	str	r2, [r3, #92]	; 0x5c
 8003632:	687b      	ldr	r3, [r7, #4]
 8003634:	2200      	movs	r2, #0
 8003636:	f883 2058 	strb.w	r2, [r3, #88]	; 0x58
 800363a:	7bfb      	ldrb	r3, [r7, #15]
 800363c:	4618      	mov	r0, r3
 800363e:	3710      	adds	r7, #16
 8003640:	46bd      	mov	sp, r7
 8003642:	bd80      	pop	{r7, pc}
 8003644:	0004de01 	.word	0x0004de01

08003648 <HAL_ADCEx_InjectedStart>:
 8003648:	b580      	push	{r7, lr}
 800364a:	b086      	sub	sp, #24
 800364c:	af00      	add	r7, sp, #0
 800364e:	6078      	str	r0, [r7, #4]
 8003650:	4853      	ldr	r0, [pc, #332]	; (80037a0 <HAL_ADCEx_InjectedStart+0x158>)
 8003652:	f7ff fefb 	bl	800344c <LL_ADC_GetMultimode>
 8003656:	6178      	str	r0, [r7, #20]
 8003658:	687b      	ldr	r3, [r7, #4]
 800365a:	681b      	ldr	r3, [r3, #0]
 800365c:	4618      	mov	r0, r3
 800365e:	f7ff ff7e 	bl	800355e <LL_ADC_INJ_IsConversionOngoing>
 8003662:	4603      	mov	r3, r0
 8003664:	2b00      	cmp	r3, #0
 8003666:	d001      	beq.n	800366c <HAL_ADCEx_InjectedStart+0x24>
 8003668:	2302      	movs	r3, #2
 800366a:	e094      	b.n	8003796 <HAL_ADCEx_InjectedStart+0x14e>
 800366c:	687b      	ldr	r3, [r7, #4]
 800366e:	681b      	ldr	r3, [r3, #0]
 8003670:	68db      	ldr	r3, [r3, #12]
 8003672:	f003 4300 	and.w	r3, r3, #2147483648	; 0x80000000
 8003676:	613b      	str	r3, [r7, #16]
 8003678:	687b      	ldr	r3, [r7, #4]
 800367a:	681b      	ldr	r3, [r3, #0]
 800367c:	6cdb      	ldr	r3, [r3, #76]	; 0x4c
 800367e:	f403 73c0 	and.w	r3, r3, #384	; 0x180
 8003682:	2b00      	cmp	r3, #0
 8003684:	d10a      	bne.n	800369c <HAL_ADCEx_InjectedStart+0x54>
 8003686:	693b      	ldr	r3, [r7, #16]
 8003688:	2b00      	cmp	r3, #0
 800368a:	d107      	bne.n	800369c <HAL_ADCEx_InjectedStart+0x54>
 800368c:	687b      	ldr	r3, [r7, #4]
 800368e:	6ddb      	ldr	r3, [r3, #92]	; 0x5c
 8003690:	f043 0220 	orr.w	r2, r3, #32
 8003694:	687b      	ldr	r3, [r7, #4]
 8003696:	65da      	str	r2, [r3, #92]	; 0x5c
 8003698:	2301      	movs	r3, #1
 800369a:	e07c      	b.n	8003796 <HAL_ADCEx_InjectedStart+0x14e>
 800369c:	687b      	ldr	r3, [r7, #4]
 800369e:	f893 3058 	ldrb.w	r3, [r3, #88]	; 0x58
 80036a2:	2b01      	cmp	r3, #1
 80036a4:	d101      	bne.n	80036aa <HAL_ADCEx_InjectedStart+0x62>
 80036a6:	2302      	movs	r3, #2
 80036a8:	e075      	b.n	8003796 <HAL_ADCEx_InjectedStart+0x14e>
 80036aa:	687b      	ldr	r3, [r7, #4]
 80036ac:	2201      	movs	r2, #1
 80036ae:	f883 2058 	strb.w	r2, [r3, #88]	; 0x58
 80036b2:	6878      	ldr	r0, [r7, #4]
 80036b4:	f7ff fc2e 	bl	8002f14 <ADC_Enable>
 80036b8:	4603      	mov	r3, r0
 80036ba:	73fb      	strb	r3, [r7, #15]
 80036bc:	7bfb      	ldrb	r3, [r7, #15]
 80036be:	2b00      	cmp	r3, #0
 80036c0:	d164      	bne.n	800378c <HAL_ADCEx_InjectedStart+0x144>
 80036c2:	687b      	ldr	r3, [r7, #4]
 80036c4:	6ddb      	ldr	r3, [r3, #92]	; 0x5c
 80036c6:	f403 7380 	and.w	r3, r3, #256	; 0x100
 80036ca:	2b00      	cmp	r3, #0
 80036cc:	d006      	beq.n	80036dc <HAL_ADCEx_InjectedStart+0x94>
 80036ce:	687b      	ldr	r3, [r7, #4]
 80036d0:	6e1b      	ldr	r3, [r3, #96]	; 0x60
 80036d2:	f023 0208 	bic.w	r2, r3, #8
 80036d6:	687b      	ldr	r3, [r7, #4]
 80036d8:	661a      	str	r2, [r3, #96]	; 0x60
 80036da:	e002      	b.n	80036e2 <HAL_ADCEx_InjectedStart+0x9a>
 80036dc:	687b      	ldr	r3, [r7, #4]
 80036de:	2200      	movs	r2, #0
 80036e0:	661a      	str	r2, [r3, #96]	; 0x60
 80036e2:	687b      	ldr	r3, [r7, #4]
 80036e4:	6ddb      	ldr	r3, [r3, #92]	; 0x5c
 80036e6:	f423 5340 	bic.w	r3, r3, #12288	; 0x3000
 80036ea:	f023 0301 	bic.w	r3, r3, #1
 80036ee:	f443 5280 	orr.w	r2, r3, #4096	; 0x1000
 80036f2:	687b      	ldr	r3, [r7, #4]
 80036f4:	65da      	str	r2, [r3, #92]	; 0x5c
 80036f6:	687b      	ldr	r3, [r7, #4]
 80036f8:	681b      	ldr	r3, [r3, #0]
 80036fa:	4a2a      	ldr	r2, [pc, #168]	; (80037a4 <HAL_ADCEx_InjectedStart+0x15c>)
 80036fc:	4293      	cmp	r3, r2
 80036fe:	d002      	beq.n	8003706 <HAL_ADCEx_InjectedStart+0xbe>
 8003700:	687b      	ldr	r3, [r7, #4]
 8003702:	681b      	ldr	r3, [r3, #0]
 8003704:	e001      	b.n	800370a <HAL_ADCEx_InjectedStart+0xc2>
 8003706:	f04f 43a0 	mov.w	r3, #1342177280	; 0x50000000
 800370a:	687a      	ldr	r2, [r7, #4]
 800370c:	6812      	ldr	r2, [r2, #0]
 800370e:	4293      	cmp	r3, r2
 8003710:	d002      	beq.n	8003718 <HAL_ADCEx_InjectedStart+0xd0>
 8003712:	697b      	ldr	r3, [r7, #20]
 8003714:	2b00      	cmp	r3, #0
 8003716:	d105      	bne.n	8003724 <HAL_ADCEx_InjectedStart+0xdc>
 8003718:	687b      	ldr	r3, [r7, #4]
 800371a:	6ddb      	ldr	r3, [r3, #92]	; 0x5c
 800371c:	f423 1280 	bic.w	r2, r3, #1048576	; 0x100000
 8003720:	687b      	ldr	r3, [r7, #4]
 8003722:	65da      	str	r2, [r3, #92]	; 0x5c
 8003724:	687b      	ldr	r3, [r7, #4]
 8003726:	681b      	ldr	r3, [r3, #0]
 8003728:	2260      	movs	r2, #96	; 0x60
 800372a:	601a      	str	r2, [r3, #0]
 800372c:	687b      	ldr	r3, [r7, #4]
 800372e:	2200      	movs	r2, #0
 8003730:	f883 2058 	strb.w	r2, [r3, #88]	; 0x58
 8003734:	687b      	ldr	r3, [r7, #4]
 8003736:	681b      	ldr	r3, [r3, #0]
 8003738:	4a1a      	ldr	r2, [pc, #104]	; (80037a4 <HAL_ADCEx_InjectedStart+0x15c>)
 800373a:	4293      	cmp	r3, r2
 800373c:	d002      	beq.n	8003744 <HAL_ADCEx_InjectedStart+0xfc>
 800373e:	687b      	ldr	r3, [r7, #4]
 8003740:	681b      	ldr	r3, [r3, #0]
 8003742:	e001      	b.n	8003748 <HAL_ADCEx_InjectedStart+0x100>
 8003744:	f04f 43a0 	mov.w	r3, #1342177280	; 0x50000000
 8003748:	687a      	ldr	r2, [r7, #4]
 800374a:	6812      	ldr	r2, [r2, #0]
 800374c:	4293      	cmp	r3, r2
 800374e:	d008      	beq.n	8003762 <HAL_ADCEx_InjectedStart+0x11a>
 8003750:	697b      	ldr	r3, [r7, #20]
 8003752:	2b00      	cmp	r3, #0
 8003754:	d005      	beq.n	8003762 <HAL_ADCEx_InjectedStart+0x11a>
 8003756:	697b      	ldr	r3, [r7, #20]
 8003758:	2b06      	cmp	r3, #6
 800375a:	d002      	beq.n	8003762 <HAL_ADCEx_InjectedStart+0x11a>
 800375c:	697b      	ldr	r3, [r7, #20]
 800375e:	2b07      	cmp	r3, #7
 8003760:	d10d      	bne.n	800377e <HAL_ADCEx_InjectedStart+0x136>
 8003762:	687b      	ldr	r3, [r7, #4]
 8003764:	681b      	ldr	r3, [r3, #0]
 8003766:	4618      	mov	r0, r3
 8003768:	f7ff fe0e 	bl	8003388 <LL_ADC_INJ_GetTrigAuto>
 800376c:	4603      	mov	r3, r0
 800376e:	2b00      	cmp	r3, #0
 8003770:	d110      	bne.n	8003794 <HAL_ADCEx_InjectedStart+0x14c>
 8003772:	687b      	ldr	r3, [r7, #4]
 8003774:	681b      	ldr	r3, [r3, #0]
 8003776:	4618      	mov	r0, r3
 8003778:	f7ff fedd 	bl	8003536 <LL_ADC_INJ_StartConversion>
 800377c:	e00a      	b.n	8003794 <HAL_ADCEx_InjectedStart+0x14c>
 800377e:	687b      	ldr	r3, [r7, #4]
 8003780:	6ddb      	ldr	r3, [r3, #92]	; 0x5c
 8003782:	f443 1280 	orr.w	r2, r3, #1048576	; 0x100000
 8003786:	687b      	ldr	r3, [r7, #4]
 8003788:	65da      	str	r2, [r3, #92]	; 0x5c
 800378a:	e003      	b.n	8003794 <HAL_ADCEx_InjectedStart+0x14c>
 800378c:	687b      	ldr	r3, [r7, #4]
 800378e:	2200      	movs	r2, #0
 8003790:	f883 2058 	strb.w	r2, [r3, #88]	; 0x58
 8003794:	7bfb      	ldrb	r3, [r7, #15]
 8003796:	4618      	mov	r0, r3
 8003798:	3718      	adds	r7, #24
 800379a:	46bd      	mov	sp, r7
 800379c:	bd80      	pop	{r7, pc}
 800379e:	bf00      	nop
 80037a0:	50000300 	.word	0x50000300
 80037a4:	50000100 	.word	0x50000100

080037a8 <HAL_ADCEx_InjectedPollForConversion>:
 80037a8:	b580      	push	{r7, lr}
 80037aa:	b08a      	sub	sp, #40	; 0x28
 80037ac:	af00      	add	r7, sp, #0
 80037ae:	6078      	str	r0, [r7, #4]
 80037b0:	6039      	str	r1, [r7, #0]
 80037b2:	485d      	ldr	r0, [pc, #372]	; (8003928 <HAL_ADCEx_InjectedPollForConversion+0x180>)
 80037b4:	f7ff fe4a 	bl	800344c <LL_ADC_GetMultimode>
 80037b8:	61f8      	str	r0, [r7, #28]
 80037ba:	687b      	ldr	r3, [r7, #4]
 80037bc:	699b      	ldr	r3, [r3, #24]
 80037be:	2b08      	cmp	r3, #8
 80037c0:	d102      	bne.n	80037c8 <HAL_ADCEx_InjectedPollForConversion+0x20>
 80037c2:	2340      	movs	r3, #64	; 0x40
 80037c4:	627b      	str	r3, [r7, #36]	; 0x24
 80037c6:	e001      	b.n	80037cc <HAL_ADCEx_InjectedPollForConversion+0x24>
 80037c8:	2320      	movs	r3, #32
 80037ca:	627b      	str	r3, [r7, #36]	; 0x24
 80037cc:	f7fe fbb6 	bl	8001f3c <HAL_GetTick>
 80037d0:	61b8      	str	r0, [r7, #24]
 80037d2:	e021      	b.n	8003818 <HAL_ADCEx_InjectedPollForConversion+0x70>
 80037d4:	683b      	ldr	r3, [r7, #0]
 80037d6:	f1b3 3fff 	cmp.w	r3, #4294967295
 80037da:	d01d      	beq.n	8003818 <HAL_ADCEx_InjectedPollForConversion+0x70>
 80037dc:	f7fe fbae 	bl	8001f3c <HAL_GetTick>
 80037e0:	4602      	mov	r2, r0
 80037e2:	69bb      	ldr	r3, [r7, #24]
 80037e4:	1ad3      	subs	r3, r2, r3
 80037e6:	683a      	ldr	r2, [r7, #0]
 80037e8:	429a      	cmp	r2, r3
 80037ea:	d302      	bcc.n	80037f2 <HAL_ADCEx_InjectedPollForConversion+0x4a>
 80037ec:	683b      	ldr	r3, [r7, #0]
 80037ee:	2b00      	cmp	r3, #0
 80037f0:	d112      	bne.n	8003818 <HAL_ADCEx_InjectedPollForConversion+0x70>
 80037f2:	687b      	ldr	r3, [r7, #4]
 80037f4:	681b      	ldr	r3, [r3, #0]
 80037f6:	681a      	ldr	r2, [r3, #0]
 80037f8:	6a7b      	ldr	r3, [r7, #36]	; 0x24
 80037fa:	4013      	ands	r3, r2
 80037fc:	2b00      	cmp	r3, #0
 80037fe:	d10b      	bne.n	8003818 <HAL_ADCEx_InjectedPollForConversion+0x70>
 8003800:	687b      	ldr	r3, [r7, #4]
 8003802:	6ddb      	ldr	r3, [r3, #92]	; 0x5c
 8003804:	f043 0204 	orr.w	r2, r3, #4
 8003808:	687b      	ldr	r3, [r7, #4]
 800380a:	65da      	str	r2, [r3, #92]	; 0x5c
 800380c:	687b      	ldr	r3, [r7, #4]
 800380e:	2200      	movs	r2, #0
 8003810:	f883 2058 	strb.w	r2, [r3, #88]	; 0x58
 8003814:	2303      	movs	r3, #3
 8003816:	e082      	b.n	800391e <HAL_ADCEx_InjectedPollForConversion+0x176>
 8003818:	687b      	ldr	r3, [r7, #4]
 800381a:	681b      	ldr	r3, [r3, #0]
 800381c:	681a      	ldr	r2, [r3, #0]
 800381e:	6a7b      	ldr	r3, [r7, #36]	; 0x24
 8003820:	4013      	ands	r3, r2
 8003822:	2b00      	cmp	r3, #0
 8003824:	d0d6      	beq.n	80037d4 <HAL_ADCEx_InjectedPollForConversion+0x2c>
 8003826:	687b      	ldr	r3, [r7, #4]
 8003828:	681b      	ldr	r3, [r3, #0]
 800382a:	4618      	mov	r0, r3
 800382c:	f7ff fd99 	bl	8003362 <LL_ADC_INJ_IsTriggerSourceSWStart>
 8003830:	6178      	str	r0, [r7, #20]
 8003832:	687b      	ldr	r3, [r7, #4]
 8003834:	681b      	ldr	r3, [r3, #0]
 8003836:	4618      	mov	r0, r3
 8003838:	f7ff fd80 	bl	800333c <LL_ADC_REG_IsTriggerSourceSWStart>
 800383c:	6138      	str	r0, [r7, #16]
 800383e:	687b      	ldr	r3, [r7, #4]
 8003840:	681b      	ldr	r3, [r3, #0]
 8003842:	4a3a      	ldr	r2, [pc, #232]	; (800392c <HAL_ADCEx_InjectedPollForConversion+0x184>)
 8003844:	4293      	cmp	r3, r2
 8003846:	d002      	beq.n	800384e <HAL_ADCEx_InjectedPollForConversion+0xa6>
 8003848:	687b      	ldr	r3, [r7, #4]
 800384a:	681b      	ldr	r3, [r3, #0]
 800384c:	e001      	b.n	8003852 <HAL_ADCEx_InjectedPollForConversion+0xaa>
 800384e:	f04f 43a0 	mov.w	r3, #1342177280	; 0x50000000
 8003852:	687a      	ldr	r2, [r7, #4]
 8003854:	6812      	ldr	r2, [r2, #0]
 8003856:	4293      	cmp	r3, r2
 8003858:	d008      	beq.n	800386c <HAL_ADCEx_InjectedPollForConversion+0xc4>
 800385a:	69fb      	ldr	r3, [r7, #28]
 800385c:	2b00      	cmp	r3, #0
 800385e:	d005      	beq.n	800386c <HAL_ADCEx_InjectedPollForConversion+0xc4>
 8003860:	69fb      	ldr	r3, [r7, #28]
 8003862:	2b06      	cmp	r3, #6
 8003864:	d002      	beq.n	800386c <HAL_ADCEx_InjectedPollForConversion+0xc4>
 8003866:	69fb      	ldr	r3, [r7, #28]
 8003868:	2b07      	cmp	r3, #7
 800386a:	d104      	bne.n	8003876 <HAL_ADCEx_InjectedPollForConversion+0xce>
 800386c:	687b      	ldr	r3, [r7, #4]
 800386e:	681b      	ldr	r3, [r3, #0]
 8003870:	68db      	ldr	r3, [r3, #12]
 8003872:	623b      	str	r3, [r7, #32]
 8003874:	e00d      	b.n	8003892 <HAL_ADCEx_InjectedPollForConversion+0xea>
 8003876:	687b      	ldr	r3, [r7, #4]
 8003878:	681b      	ldr	r3, [r3, #0]
 800387a:	4a2c      	ldr	r2, [pc, #176]	; (800392c <HAL_ADCEx_InjectedPollForConversion+0x184>)
 800387c:	4293      	cmp	r3, r2
 800387e:	d002      	beq.n	8003886 <HAL_ADCEx_InjectedPollForConversion+0xde>
 8003880:	687b      	ldr	r3, [r7, #4]
 8003882:	681b      	ldr	r3, [r3, #0]
 8003884:	e001      	b.n	800388a <HAL_ADCEx_InjectedPollForConversion+0xe2>
 8003886:	f04f 43a0 	mov.w	r3, #1342177280	; 0x50000000
 800388a:	60fb      	str	r3, [r7, #12]
 800388c:	68fb      	ldr	r3, [r7, #12]
 800388e:	68db      	ldr	r3, [r3, #12]
 8003890:	623b      	str	r3, [r7, #32]
 8003892:	687b      	ldr	r3, [r7, #4]
 8003894:	6ddb      	ldr	r3, [r3, #92]	; 0x5c
 8003896:	f443 5200 	orr.w	r2, r3, #8192	; 0x2000
 800389a:	687b      	ldr	r3, [r7, #4]
 800389c:	65da      	str	r2, [r3, #92]	; 0x5c
 800389e:	697b      	ldr	r3, [r7, #20]
 80038a0:	2b00      	cmp	r3, #0
 80038a2:	d10c      	bne.n	80038be <HAL_ADCEx_InjectedPollForConversion+0x116>
 80038a4:	6a3b      	ldr	r3, [r7, #32]
 80038a6:	f003 7300 	and.w	r3, r3, #33554432	; 0x2000000
 80038aa:	2b00      	cmp	r3, #0
 80038ac:	d125      	bne.n	80038fa <HAL_ADCEx_InjectedPollForConversion+0x152>
 80038ae:	693b      	ldr	r3, [r7, #16]
 80038b0:	2b00      	cmp	r3, #0
 80038b2:	d022      	beq.n	80038fa <HAL_ADCEx_InjectedPollForConversion+0x152>
 80038b4:	6a3b      	ldr	r3, [r7, #32]
 80038b6:	f403 5300 	and.w	r3, r3, #8192	; 0x2000
 80038ba:	2b00      	cmp	r3, #0
 80038bc:	d11d      	bne.n	80038fa <HAL_ADCEx_InjectedPollForConversion+0x152>
 80038be:	687b      	ldr	r3, [r7, #4]
 80038c0:	681b      	ldr	r3, [r3, #0]
 80038c2:	681b      	ldr	r3, [r3, #0]
 80038c4:	f003 0340 	and.w	r3, r3, #64	; 0x40
 80038c8:	2b40      	cmp	r3, #64	; 0x40
 80038ca:	d116      	bne.n	80038fa <HAL_ADCEx_InjectedPollForConversion+0x152>
 80038cc:	6a3b      	ldr	r3, [r7, #32]
 80038ce:	f403 1300 	and.w	r3, r3, #2097152	; 0x200000
 80038d2:	2b00      	cmp	r3, #0
 80038d4:	d111      	bne.n	80038fa <HAL_ADCEx_InjectedPollForConversion+0x152>
 80038d6:	687b      	ldr	r3, [r7, #4]
 80038d8:	6ddb      	ldr	r3, [r3, #92]	; 0x5c
 80038da:	f423 5280 	bic.w	r2, r3, #4096	; 0x1000
 80038de:	687b      	ldr	r3, [r7, #4]
 80038e0:	65da      	str	r2, [r3, #92]	; 0x5c
 80038e2:	687b      	ldr	r3, [r7, #4]
 80038e4:	6ddb      	ldr	r3, [r3, #92]	; 0x5c
 80038e6:	f403 7380 	and.w	r3, r3, #256	; 0x100
 80038ea:	2b00      	cmp	r3, #0
 80038ec:	d105      	bne.n	80038fa <HAL_ADCEx_InjectedPollForConversion+0x152>
 80038ee:	687b      	ldr	r3, [r7, #4]
 80038f0:	6ddb      	ldr	r3, [r3, #92]	; 0x5c
 80038f2:	f043 0201 	orr.w	r2, r3, #1
 80038f6:	687b      	ldr	r3, [r7, #4]
 80038f8:	65da      	str	r2, [r3, #92]	; 0x5c
 80038fa:	6a7b      	ldr	r3, [r7, #36]	; 0x24
 80038fc:	2b40      	cmp	r3, #64	; 0x40
 80038fe:	d109      	bne.n	8003914 <HAL_ADCEx_InjectedPollForConversion+0x16c>
 8003900:	6a3b      	ldr	r3, [r7, #32]
 8003902:	f403 4380 	and.w	r3, r3, #16384	; 0x4000
 8003906:	2b00      	cmp	r3, #0
 8003908:	d108      	bne.n	800391c <HAL_ADCEx_InjectedPollForConversion+0x174>
 800390a:	687b      	ldr	r3, [r7, #4]
 800390c:	681b      	ldr	r3, [r3, #0]
 800390e:	2260      	movs	r2, #96	; 0x60
 8003910:	601a      	str	r2, [r3, #0]
 8003912:	e003      	b.n	800391c <HAL_ADCEx_InjectedPollForConversion+0x174>
 8003914:	687b      	ldr	r3, [r7, #4]
 8003916:	681b      	ldr	r3, [r3, #0]
 8003918:	2220      	movs	r2, #32
 800391a:	601a      	str	r2, [r3, #0]
 800391c:	2300      	movs	r3, #0
 800391e:	4618      	mov	r0, r3
 8003920:	3728      	adds	r7, #40	; 0x28
 8003922:	46bd      	mov	sp, r7
 8003924:	bd80      	pop	{r7, pc}
 8003926:	bf00      	nop
 8003928:	50000300 	.word	0x50000300
 800392c:	50000100 	.word	0x50000100

08003930 <HAL_ADCEx_MultiModeStart_DMA>:
 8003930:	b580      	push	{r7, lr}
 8003932:	b0a2      	sub	sp, #136	; 0x88
 8003934:	af00      	add	r7, sp, #0
 8003936:	60f8      	str	r0, [r7, #12]
 8003938:	60b9      	str	r1, [r7, #8]
 800393a:	607a      	str	r2, [r7, #4]
 800393c:	68fb      	ldr	r3, [r7, #12]
 800393e:	681b      	ldr	r3, [r3, #0]
 8003940:	4618      	mov	r0, r3
 8003942:	f7ff fde5 	bl	8003510 <LL_ADC_REG_IsConversionOngoing>
 8003946:	4603      	mov	r3, r0
 8003948:	2b00      	cmp	r3, #0
 800394a:	d001      	beq.n	8003950 <HAL_ADCEx_MultiModeStart_DMA+0x20>
 800394c:	2302      	movs	r3, #2
 800394e:	e082      	b.n	8003a56 <HAL_ADCEx_MultiModeStart_DMA+0x126>
 8003950:	68fb      	ldr	r3, [r7, #12]
 8003952:	f893 3058 	ldrb.w	r3, [r3, #88]	; 0x58
 8003956:	2b01      	cmp	r3, #1
 8003958:	d101      	bne.n	800395e <HAL_ADCEx_MultiModeStart_DMA+0x2e>
 800395a:	2302      	movs	r3, #2
 800395c:	e07b      	b.n	8003a56 <HAL_ADCEx_MultiModeStart_DMA+0x126>
 800395e:	68fb      	ldr	r3, [r7, #12]
 8003960:	2201      	movs	r2, #1
 8003962:	f883 2058 	strb.w	r2, [r3, #88]	; 0x58
 8003966:	2300      	movs	r3, #0
 8003968:	673b      	str	r3, [r7, #112]	; 0x70
 800396a:	2300      	movs	r3, #0
 800396c:	677b      	str	r3, [r7, #116]	; 0x74
 800396e:	68fb      	ldr	r3, [r7, #12]
 8003970:	681b      	ldr	r3, [r3, #0]
 8003972:	f1b3 4fa0 	cmp.w	r3, #1342177280	; 0x50000000
 8003976:	d102      	bne.n	800397e <HAL_ADCEx_MultiModeStart_DMA+0x4e>
 8003978:	4b39      	ldr	r3, [pc, #228]	; (8003a60 <HAL_ADCEx_MultiModeStart_DMA+0x130>)
 800397a:	617b      	str	r3, [r7, #20]
 800397c:	e001      	b.n	8003982 <HAL_ADCEx_MultiModeStart_DMA+0x52>
 800397e:	2300      	movs	r3, #0
 8003980:	617b      	str	r3, [r7, #20]
 8003982:	697b      	ldr	r3, [r7, #20]
 8003984:	2b00      	cmp	r3, #0
 8003986:	d10b      	bne.n	80039a0 <HAL_ADCEx_MultiModeStart_DMA+0x70>
 8003988:	68fb      	ldr	r3, [r7, #12]
 800398a:	6ddb      	ldr	r3, [r3, #92]	; 0x5c
 800398c:	f043 0220 	orr.w	r2, r3, #32
 8003990:	68fb      	ldr	r3, [r7, #12]
 8003992:	65da      	str	r2, [r3, #92]	; 0x5c
 8003994:	68fb      	ldr	r3, [r7, #12]
 8003996:	2200      	movs	r2, #0
 8003998:	f883 2058 	strb.w	r2, [r3, #88]	; 0x58
 800399c:	2301      	movs	r3, #1
 800399e:	e05a      	b.n	8003a56 <HAL_ADCEx_MultiModeStart_DMA+0x126>
 80039a0:	68f8      	ldr	r0, [r7, #12]
 80039a2:	f7ff fab7 	bl	8002f14 <ADC_Enable>
 80039a6:	4603      	mov	r3, r0
 80039a8:	f887 3087 	strb.w	r3, [r7, #135]	; 0x87
 80039ac:	f897 3087 	ldrb.w	r3, [r7, #135]	; 0x87
 80039b0:	2b00      	cmp	r3, #0
 80039b2:	d107      	bne.n	80039c4 <HAL_ADCEx_MultiModeStart_DMA+0x94>
 80039b4:	f107 0314 	add.w	r3, r7, #20
 80039b8:	4618      	mov	r0, r3
 80039ba:	f7ff faab 	bl	8002f14 <ADC_Enable>
 80039be:	4603      	mov	r3, r0
 80039c0:	f887 3087 	strb.w	r3, [r7, #135]	; 0x87
 80039c4:	f897 3087 	ldrb.w	r3, [r7, #135]	; 0x87
 80039c8:	2b00      	cmp	r3, #0
 80039ca:	d13e      	bne.n	8003a4a <HAL_ADCEx_MultiModeStart_DMA+0x11a>
 80039cc:	68fb      	ldr	r3, [r7, #12]
 80039ce:	6ddb      	ldr	r3, [r3, #92]	; 0x5c
 80039d0:	f423 6370 	bic.w	r3, r3, #3840	; 0xf00
 80039d4:	f023 0301 	bic.w	r3, r3, #1
 80039d8:	f443 7280 	orr.w	r2, r3, #256	; 0x100
 80039dc:	68fb      	ldr	r3, [r7, #12]
 80039de:	65da      	str	r2, [r3, #92]	; 0x5c
 80039e0:	68fb      	ldr	r3, [r7, #12]
 80039e2:	2200      	movs	r2, #0
 80039e4:	661a      	str	r2, [r3, #96]	; 0x60
 80039e6:	68fb      	ldr	r3, [r7, #12]
 80039e8:	6d5b      	ldr	r3, [r3, #84]	; 0x54
 80039ea:	4a1e      	ldr	r2, [pc, #120]	; (8003a64 <HAL_ADCEx_MultiModeStart_DMA+0x134>)
 80039ec:	62da      	str	r2, [r3, #44]	; 0x2c
 80039ee:	68fb      	ldr	r3, [r7, #12]
 80039f0:	6d5b      	ldr	r3, [r3, #84]	; 0x54
 80039f2:	4a1d      	ldr	r2, [pc, #116]	; (8003a68 <HAL_ADCEx_MultiModeStart_DMA+0x138>)
 80039f4:	631a      	str	r2, [r3, #48]	; 0x30
 80039f6:	68fb      	ldr	r3, [r7, #12]
 80039f8:	6d5b      	ldr	r3, [r3, #84]	; 0x54
 80039fa:	4a1c      	ldr	r2, [pc, #112]	; (8003a6c <HAL_ADCEx_MultiModeStart_DMA+0x13c>)
 80039fc:	635a      	str	r2, [r3, #52]	; 0x34
 80039fe:	4b1c      	ldr	r3, [pc, #112]	; (8003a70 <HAL_ADCEx_MultiModeStart_DMA+0x140>)
 8003a00:	f8c7 3080 	str.w	r3, [r7, #128]	; 0x80
 8003a04:	68fb      	ldr	r3, [r7, #12]
 8003a06:	681b      	ldr	r3, [r3, #0]
 8003a08:	221c      	movs	r2, #28
 8003a0a:	601a      	str	r2, [r3, #0]
 8003a0c:	68fb      	ldr	r3, [r7, #12]
 8003a0e:	2200      	movs	r2, #0
 8003a10:	f883 2058 	strb.w	r2, [r3, #88]	; 0x58
 8003a14:	68fb      	ldr	r3, [r7, #12]
 8003a16:	681b      	ldr	r3, [r3, #0]
 8003a18:	685a      	ldr	r2, [r3, #4]
 8003a1a:	68fb      	ldr	r3, [r7, #12]
 8003a1c:	681b      	ldr	r3, [r3, #0]
 8003a1e:	f042 0210 	orr.w	r2, r2, #16
 8003a22:	605a      	str	r2, [r3, #4]
 8003a24:	68fb      	ldr	r3, [r7, #12]
 8003a26:	6d58      	ldr	r0, [r3, #84]	; 0x54
 8003a28:	f8d7 3080 	ldr.w	r3, [r7, #128]	; 0x80
 8003a2c:	330c      	adds	r3, #12
 8003a2e:	4619      	mov	r1, r3
 8003a30:	68ba      	ldr	r2, [r7, #8]
 8003a32:	687b      	ldr	r3, [r7, #4]
 8003a34:	f001 fb28 	bl	8005088 <HAL_DMA_Start_IT>
 8003a38:	4603      	mov	r3, r0
 8003a3a:	f887 3087 	strb.w	r3, [r7, #135]	; 0x87
 8003a3e:	68fb      	ldr	r3, [r7, #12]
 8003a40:	681b      	ldr	r3, [r3, #0]
 8003a42:	4618      	mov	r0, r3
 8003a44:	f7ff fd50 	bl	80034e8 <LL_ADC_REG_StartConversion>
 8003a48:	e003      	b.n	8003a52 <HAL_ADCEx_MultiModeStart_DMA+0x122>
 8003a4a:	68fb      	ldr	r3, [r7, #12]
 8003a4c:	2200      	movs	r2, #0
 8003a4e:	f883 2058 	strb.w	r2, [r3, #88]	; 0x58
 8003a52:	f897 3087 	ldrb.w	r3, [r7, #135]	; 0x87
 8003a56:	4618      	mov	r0, r3
 8003a58:	3788      	adds	r7, #136	; 0x88
 8003a5a:	46bd      	mov	sp, r7
 8003a5c:	bd80      	pop	{r7, pc}
 8003a5e:	bf00      	nop
 8003a60:	50000100 	.word	0x50000100
 8003a64:	08003097 	.word	0x08003097
 8003a68:	0800316f 	.word	0x0800316f
 8003a6c:	0800318b 	.word	0x0800318b
 8003a70:	50000300 	.word	0x50000300

08003a74 <HAL_ADCEx_InjectedGetValue>:
 8003a74:	b480      	push	{r7}
 8003a76:	b085      	sub	sp, #20
 8003a78:	af00      	add	r7, sp, #0
 8003a7a:	6078      	str	r0, [r7, #4]
 8003a7c:	6039      	str	r1, [r7, #0]
 8003a7e:	683b      	ldr	r3, [r7, #0]
 8003a80:	f240 321b 	movw	r2, #795	; 0x31b
 8003a84:	4293      	cmp	r3, r2
 8003a86:	d00e      	beq.n	8003aa6 <HAL_ADCEx_InjectedGetValue+0x32>
 8003a88:	683b      	ldr	r3, [r7, #0]
 8003a8a:	f5b3 7f47 	cmp.w	r3, #796	; 0x31c
 8003a8e:	d21c      	bcs.n	8003aca <HAL_ADCEx_InjectedGetValue+0x56>
 8003a90:	683b      	ldr	r3, [r7, #0]
 8003a92:	f240 120f 	movw	r2, #271	; 0x10f
 8003a96:	4293      	cmp	r3, r2
 8003a98:	d011      	beq.n	8003abe <HAL_ADCEx_InjectedGetValue+0x4a>
 8003a9a:	683b      	ldr	r3, [r7, #0]
 8003a9c:	f240 2215 	movw	r2, #533	; 0x215
 8003aa0:	4293      	cmp	r3, r2
 8003aa2:	d006      	beq.n	8003ab2 <HAL_ADCEx_InjectedGetValue+0x3e>
 8003aa4:	e011      	b.n	8003aca <HAL_ADCEx_InjectedGetValue+0x56>
 8003aa6:	687b      	ldr	r3, [r7, #4]
 8003aa8:	681b      	ldr	r3, [r3, #0]
 8003aaa:	f8d3 308c 	ldr.w	r3, [r3, #140]	; 0x8c
 8003aae:	60fb      	str	r3, [r7, #12]
 8003ab0:	e011      	b.n	8003ad6 <HAL_ADCEx_InjectedGetValue+0x62>
 8003ab2:	687b      	ldr	r3, [r7, #4]
 8003ab4:	681b      	ldr	r3, [r3, #0]
 8003ab6:	f8d3 3088 	ldr.w	r3, [r3, #136]	; 0x88
 8003aba:	60fb      	str	r3, [r7, #12]
 8003abc:	e00b      	b.n	8003ad6 <HAL_ADCEx_InjectedGetValue+0x62>
 8003abe:	687b      	ldr	r3, [r7, #4]
 8003ac0:	681b      	ldr	r3, [r3, #0]
 8003ac2:	f8d3 3084 	ldr.w	r3, [r3, #132]	; 0x84
 8003ac6:	60fb      	str	r3, [r7, #12]
 8003ac8:	e005      	b.n	8003ad6 <HAL_ADCEx_InjectedGetValue+0x62>
 8003aca:	687b      	ldr	r3, [r7, #4]
 8003acc:	681b      	ldr	r3, [r3, #0]
 8003ace:	f8d3 3080 	ldr.w	r3, [r3, #128]	; 0x80
 8003ad2:	60fb      	str	r3, [r7, #12]
 8003ad4:	bf00      	nop
 8003ad6:	68fb      	ldr	r3, [r7, #12]
 8003ad8:	4618      	mov	r0, r3
 8003ada:	3714      	adds	r7, #20
 8003adc:	46bd      	mov	sp, r7
 8003ade:	f85d 7b04 	ldr.w	r7, [sp], #4
 8003ae2:	4770      	bx	lr

08003ae4 <HAL_ADCEx_InjectedConfigChannel>:
 8003ae4:	b580      	push	{r7, lr}
 8003ae6:	b0b6      	sub	sp, #216	; 0xd8
 8003ae8:	af00      	add	r7, sp, #0
 8003aea:	6078      	str	r0, [r7, #4]
 8003aec:	6039      	str	r1, [r7, #0]
 8003aee:	2300      	movs	r3, #0
 8003af0:	f887 30d7 	strb.w	r3, [r7, #215]	; 0xd7
 8003af4:	2300      	movs	r3, #0
 8003af6:	60bb      	str	r3, [r7, #8]
 8003af8:	2300      	movs	r3, #0
 8003afa:	f8c7 30d0 	str.w	r3, [r7, #208]	; 0xd0
 8003afe:	687b      	ldr	r3, [r7, #4]
 8003b00:	f893 3058 	ldrb.w	r3, [r3, #88]	; 0x58
 8003b04:	2b01      	cmp	r3, #1
 8003b06:	d102      	bne.n	8003b0e <HAL_ADCEx_InjectedConfigChannel+0x2a>
 8003b08:	2302      	movs	r3, #2
 8003b0a:	f000 bcb5 	b.w	8004478 <HAL_ADCEx_InjectedConfigChannel+0x994>
 8003b0e:	687b      	ldr	r3, [r7, #4]
 8003b10:	2201      	movs	r2, #1
 8003b12:	f883 2058 	strb.w	r2, [r3, #88]	; 0x58
 8003b16:	687b      	ldr	r3, [r7, #4]
 8003b18:	695b      	ldr	r3, [r3, #20]
 8003b1a:	2b00      	cmp	r3, #0
 8003b1c:	d003      	beq.n	8003b26 <HAL_ADCEx_InjectedConfigChannel+0x42>
 8003b1e:	683b      	ldr	r3, [r7, #0]
 8003b20:	6a1b      	ldr	r3, [r3, #32]
 8003b22:	2b01      	cmp	r3, #1
 8003b24:	d130      	bne.n	8003b88 <HAL_ADCEx_InjectedConfigChannel+0xa4>
 8003b26:	683b      	ldr	r3, [r7, #0]
 8003b28:	685b      	ldr	r3, [r3, #4]
 8003b2a:	2b09      	cmp	r3, #9
 8003b2c:	d179      	bne.n	8003c22 <HAL_ADCEx_InjectedConfigChannel+0x13e>
 8003b2e:	683b      	ldr	r3, [r7, #0]
 8003b30:	6a9b      	ldr	r3, [r3, #40]	; 0x28
 8003b32:	2b00      	cmp	r3, #0
 8003b34:	d010      	beq.n	8003b58 <HAL_ADCEx_InjectedConfigChannel+0x74>
 8003b36:	683b      	ldr	r3, [r7, #0]
 8003b38:	681b      	ldr	r3, [r3, #0]
 8003b3a:	0e9b      	lsrs	r3, r3, #26
 8003b3c:	025b      	lsls	r3, r3, #9
 8003b3e:	f403 5278 	and.w	r2, r3, #15872	; 0x3e00
 8003b42:	683b      	ldr	r3, [r7, #0]
 8003b44:	6a9b      	ldr	r3, [r3, #40]	; 0x28
 8003b46:	f003 037c 	and.w	r3, r3, #124	; 0x7c
 8003b4a:	431a      	orrs	r2, r3
 8003b4c:	683b      	ldr	r3, [r7, #0]
 8003b4e:	6adb      	ldr	r3, [r3, #44]	; 0x2c
 8003b50:	4313      	orrs	r3, r2
 8003b52:	f8c7 30d0 	str.w	r3, [r7, #208]	; 0xd0
 8003b56:	e007      	b.n	8003b68 <HAL_ADCEx_InjectedConfigChannel+0x84>
 8003b58:	683b      	ldr	r3, [r7, #0]
 8003b5a:	681b      	ldr	r3, [r3, #0]
 8003b5c:	0e9b      	lsrs	r3, r3, #26
 8003b5e:	025b      	lsls	r3, r3, #9
 8003b60:	f403 5378 	and.w	r3, r3, #15872	; 0x3e00
 8003b64:	f8c7 30d0 	str.w	r3, [r7, #208]	; 0xd0
 8003b68:	687b      	ldr	r3, [r7, #4]
 8003b6a:	681b      	ldr	r3, [r3, #0]
 8003b6c:	6cda      	ldr	r2, [r3, #76]	; 0x4c
 8003b6e:	4b84      	ldr	r3, [pc, #528]	; (8003d80 <HAL_ADCEx_InjectedConfigChannel+0x29c>)
 8003b70:	4013      	ands	r3, r2
 8003b72:	687a      	ldr	r2, [r7, #4]
 8003b74:	6812      	ldr	r2, [r2, #0]
 8003b76:	f8d7 10d0 	ldr.w	r1, [r7, #208]	; 0xd0
 8003b7a:	430b      	orrs	r3, r1
 8003b7c:	64d3      	str	r3, [r2, #76]	; 0x4c
 8003b7e:	687b      	ldr	r3, [r7, #4]
 8003b80:	f8d7 20d0 	ldr.w	r2, [r7, #208]	; 0xd0
 8003b84:	665a      	str	r2, [r3, #100]	; 0x64
 8003b86:	e04c      	b.n	8003c22 <HAL_ADCEx_InjectedConfigChannel+0x13e>
 8003b88:	687b      	ldr	r3, [r7, #4]
 8003b8a:	6e9b      	ldr	r3, [r3, #104]	; 0x68
 8003b8c:	2b00      	cmp	r3, #0
 8003b8e:	d11d      	bne.n	8003bcc <HAL_ADCEx_InjectedConfigChannel+0xe8>
 8003b90:	683b      	ldr	r3, [r7, #0]
 8003b92:	6a1a      	ldr	r2, [r3, #32]
 8003b94:	687b      	ldr	r3, [r7, #4]
 8003b96:	669a      	str	r2, [r3, #104]	; 0x68
 8003b98:	687b      	ldr	r3, [r7, #4]
 8003b9a:	2200      	movs	r2, #0
 8003b9c:	665a      	str	r2, [r3, #100]	; 0x64
 8003b9e:	683b      	ldr	r3, [r7, #0]
 8003ba0:	6a9b      	ldr	r3, [r3, #40]	; 0x28
 8003ba2:	2b00      	cmp	r3, #0
 8003ba4:	d00d      	beq.n	8003bc2 <HAL_ADCEx_InjectedConfigChannel+0xde>
 8003ba6:	683b      	ldr	r3, [r7, #0]
 8003ba8:	6a1b      	ldr	r3, [r3, #32]
 8003baa:	1e5a      	subs	r2, r3, #1
 8003bac:	683b      	ldr	r3, [r7, #0]
 8003bae:	6a9b      	ldr	r3, [r3, #40]	; 0x28
 8003bb0:	f003 037c 	and.w	r3, r3, #124	; 0x7c
 8003bb4:	431a      	orrs	r2, r3
 8003bb6:	683b      	ldr	r3, [r7, #0]
 8003bb8:	6adb      	ldr	r3, [r3, #44]	; 0x2c
 8003bba:	4313      	orrs	r3, r2
 8003bbc:	f8c7 30d0 	str.w	r3, [r7, #208]	; 0xd0
 8003bc0:	e004      	b.n	8003bcc <HAL_ADCEx_InjectedConfigChannel+0xe8>
 8003bc2:	683b      	ldr	r3, [r7, #0]
 8003bc4:	6a1b      	ldr	r3, [r3, #32]
 8003bc6:	3b01      	subs	r3, #1
 8003bc8:	f8c7 30d0 	str.w	r3, [r7, #208]	; 0xd0
 8003bcc:	683b      	ldr	r3, [r7, #0]
 8003bce:	681b      	ldr	r3, [r3, #0]
 8003bd0:	0e9b      	lsrs	r3, r3, #26
 8003bd2:	f003 021f 	and.w	r2, r3, #31
 8003bd6:	683b      	ldr	r3, [r7, #0]
 8003bd8:	685b      	ldr	r3, [r3, #4]
 8003bda:	f003 031f 	and.w	r3, r3, #31
 8003bde:	fa02 f303 	lsl.w	r3, r2, r3
 8003be2:	f8d7 20d0 	ldr.w	r2, [r7, #208]	; 0xd0
 8003be6:	4313      	orrs	r3, r2
 8003be8:	f8c7 30d0 	str.w	r3, [r7, #208]	; 0xd0
 8003bec:	687b      	ldr	r3, [r7, #4]
 8003bee:	6e9b      	ldr	r3, [r3, #104]	; 0x68
 8003bf0:	1e5a      	subs	r2, r3, #1
 8003bf2:	687b      	ldr	r3, [r7, #4]
 8003bf4:	669a      	str	r2, [r3, #104]	; 0x68
 8003bf6:	687b      	ldr	r3, [r7, #4]
 8003bf8:	6e5a      	ldr	r2, [r3, #100]	; 0x64
 8003bfa:	f8d7 30d0 	ldr.w	r3, [r7, #208]	; 0xd0
 8003bfe:	431a      	orrs	r2, r3
 8003c00:	687b      	ldr	r3, [r7, #4]
 8003c02:	665a      	str	r2, [r3, #100]	; 0x64
 8003c04:	687b      	ldr	r3, [r7, #4]
 8003c06:	6e9b      	ldr	r3, [r3, #104]	; 0x68
 8003c08:	2b00      	cmp	r3, #0
 8003c0a:	d10a      	bne.n	8003c22 <HAL_ADCEx_InjectedConfigChannel+0x13e>
 8003c0c:	687b      	ldr	r3, [r7, #4]
 8003c0e:	681b      	ldr	r3, [r3, #0]
 8003c10:	6cda      	ldr	r2, [r3, #76]	; 0x4c
 8003c12:	4b5b      	ldr	r3, [pc, #364]	; (8003d80 <HAL_ADCEx_InjectedConfigChannel+0x29c>)
 8003c14:	4013      	ands	r3, r2
 8003c16:	687a      	ldr	r2, [r7, #4]
 8003c18:	6e51      	ldr	r1, [r2, #100]	; 0x64
 8003c1a:	687a      	ldr	r2, [r7, #4]
 8003c1c:	6812      	ldr	r2, [r2, #0]
 8003c1e:	430b      	orrs	r3, r1
 8003c20:	64d3      	str	r3, [r2, #76]	; 0x4c
 8003c22:	687b      	ldr	r3, [r7, #4]
 8003c24:	681b      	ldr	r3, [r3, #0]
 8003c26:	4618      	mov	r0, r3
 8003c28:	f7ff fc99 	bl	800355e <LL_ADC_INJ_IsConversionOngoing>
 8003c2c:	4603      	mov	r3, r0
 8003c2e:	2b00      	cmp	r3, #0
 8003c30:	d124      	bne.n	8003c7c <HAL_ADCEx_InjectedConfigChannel+0x198>
 8003c32:	683b      	ldr	r3, [r7, #0]
 8003c34:	f893 3025 	ldrb.w	r3, [r3, #37]	; 0x25
 8003c38:	2b00      	cmp	r3, #0
 8003c3a:	d112      	bne.n	8003c62 <HAL_ADCEx_InjectedConfigChannel+0x17e>
 8003c3c:	687b      	ldr	r3, [r7, #4]
 8003c3e:	681b      	ldr	r3, [r3, #0]
 8003c40:	68db      	ldr	r3, [r3, #12]
 8003c42:	f423 1140 	bic.w	r1, r3, #3145728	; 0x300000
 8003c46:	683b      	ldr	r3, [r7, #0]
 8003c48:	f893 3026 	ldrb.w	r3, [r3, #38]	; 0x26
 8003c4c:	055a      	lsls	r2, r3, #21
 8003c4e:	683b      	ldr	r3, [r7, #0]
 8003c50:	f893 3024 	ldrb.w	r3, [r3, #36]	; 0x24
 8003c54:	051b      	lsls	r3, r3, #20
 8003c56:	431a      	orrs	r2, r3
 8003c58:	687b      	ldr	r3, [r7, #4]
 8003c5a:	681b      	ldr	r3, [r3, #0]
 8003c5c:	430a      	orrs	r2, r1
 8003c5e:	60da      	str	r2, [r3, #12]
 8003c60:	e00c      	b.n	8003c7c <HAL_ADCEx_InjectedConfigChannel+0x198>
 8003c62:	687b      	ldr	r3, [r7, #4]
 8003c64:	681b      	ldr	r3, [r3, #0]
 8003c66:	68db      	ldr	r3, [r3, #12]
 8003c68:	f423 1140 	bic.w	r1, r3, #3145728	; 0x300000
 8003c6c:	683b      	ldr	r3, [r7, #0]
 8003c6e:	f893 3026 	ldrb.w	r3, [r3, #38]	; 0x26
 8003c72:	055a      	lsls	r2, r3, #21
 8003c74:	687b      	ldr	r3, [r7, #4]
 8003c76:	681b      	ldr	r3, [r3, #0]
 8003c78:	430a      	orrs	r2, r1
 8003c7a:	60da      	str	r2, [r3, #12]
 8003c7c:	687b      	ldr	r3, [r7, #4]
 8003c7e:	681b      	ldr	r3, [r3, #0]
 8003c80:	4618      	mov	r0, r3
 8003c82:	f7ff fc45 	bl	8003510 <LL_ADC_REG_IsConversionOngoing>
 8003c86:	f8c7 00cc 	str.w	r0, [r7, #204]	; 0xcc
 8003c8a:	687b      	ldr	r3, [r7, #4]
 8003c8c:	681b      	ldr	r3, [r3, #0]
 8003c8e:	4618      	mov	r0, r3
 8003c90:	f7ff fc65 	bl	800355e <LL_ADC_INJ_IsConversionOngoing>
 8003c94:	f8c7 00c8 	str.w	r0, [r7, #200]	; 0xc8
 8003c98:	f8d7 30cc 	ldr.w	r3, [r7, #204]	; 0xcc
 8003c9c:	2b00      	cmp	r3, #0
 8003c9e:	f040 822e 	bne.w	80040fe <HAL_ADCEx_InjectedConfigChannel+0x61a>
 8003ca2:	f8d7 30c8 	ldr.w	r3, [r7, #200]	; 0xc8
 8003ca6:	2b00      	cmp	r3, #0
 8003ca8:	f040 8229 	bne.w	80040fe <HAL_ADCEx_InjectedConfigChannel+0x61a>
 8003cac:	683b      	ldr	r3, [r7, #0]
 8003cae:	6a9b      	ldr	r3, [r3, #40]	; 0x28
 8003cb0:	2b00      	cmp	r3, #0
 8003cb2:	d003      	beq.n	8003cbc <HAL_ADCEx_InjectedConfigChannel+0x1d8>
 8003cb4:	683b      	ldr	r3, [r7, #0]
 8003cb6:	6adb      	ldr	r3, [r3, #44]	; 0x2c
 8003cb8:	2b00      	cmp	r3, #0
 8003cba:	d116      	bne.n	8003cea <HAL_ADCEx_InjectedConfigChannel+0x206>
 8003cbc:	683b      	ldr	r3, [r7, #0]
 8003cbe:	f893 3025 	ldrb.w	r3, [r3, #37]	; 0x25
 8003cc2:	2b01      	cmp	r3, #1
 8003cc4:	d108      	bne.n	8003cd8 <HAL_ADCEx_InjectedConfigChannel+0x1f4>
 8003cc6:	687b      	ldr	r3, [r7, #4]
 8003cc8:	681b      	ldr	r3, [r3, #0]
 8003cca:	68da      	ldr	r2, [r3, #12]
 8003ccc:	687b      	ldr	r3, [r7, #4]
 8003cce:	681b      	ldr	r3, [r3, #0]
 8003cd0:	f042 7200 	orr.w	r2, r2, #33554432	; 0x2000000
 8003cd4:	60da      	str	r2, [r3, #12]
 8003cd6:	e01f      	b.n	8003d18 <HAL_ADCEx_InjectedConfigChannel+0x234>
 8003cd8:	687b      	ldr	r3, [r7, #4]
 8003cda:	681b      	ldr	r3, [r3, #0]
 8003cdc:	68da      	ldr	r2, [r3, #12]
 8003cde:	687b      	ldr	r3, [r7, #4]
 8003ce0:	681b      	ldr	r3, [r3, #0]
 8003ce2:	f022 7200 	bic.w	r2, r2, #33554432	; 0x2000000
 8003ce6:	60da      	str	r2, [r3, #12]
 8003ce8:	e016      	b.n	8003d18 <HAL_ADCEx_InjectedConfigChannel+0x234>
 8003cea:	683b      	ldr	r3, [r7, #0]
 8003cec:	f893 3025 	ldrb.w	r3, [r3, #37]	; 0x25
 8003cf0:	2b01      	cmp	r3, #1
 8003cf2:	d109      	bne.n	8003d08 <HAL_ADCEx_InjectedConfigChannel+0x224>
 8003cf4:	687b      	ldr	r3, [r7, #4]
 8003cf6:	6ddb      	ldr	r3, [r3, #92]	; 0x5c
 8003cf8:	f043 0220 	orr.w	r2, r3, #32
 8003cfc:	687b      	ldr	r3, [r7, #4]
 8003cfe:	65da      	str	r2, [r3, #92]	; 0x5c
 8003d00:	2301      	movs	r3, #1
 8003d02:	f887 30d7 	strb.w	r3, [r7, #215]	; 0xd7
 8003d06:	e007      	b.n	8003d18 <HAL_ADCEx_InjectedConfigChannel+0x234>
 8003d08:	687b      	ldr	r3, [r7, #4]
 8003d0a:	681b      	ldr	r3, [r3, #0]
 8003d0c:	68da      	ldr	r2, [r3, #12]
 8003d0e:	687b      	ldr	r3, [r7, #4]
 8003d10:	681b      	ldr	r3, [r3, #0]
 8003d12:	f022 7200 	bic.w	r2, r2, #33554432	; 0x2000000
 8003d16:	60da      	str	r2, [r3, #12]
 8003d18:	683b      	ldr	r3, [r7, #0]
 8003d1a:	f893 3030 	ldrb.w	r3, [r3, #48]	; 0x30
 8003d1e:	2b01      	cmp	r3, #1
 8003d20:	d110      	bne.n	8003d44 <HAL_ADCEx_InjectedConfigChannel+0x260>
 8003d22:	687b      	ldr	r3, [r7, #4]
 8003d24:	681b      	ldr	r3, [r3, #0]
 8003d26:	691b      	ldr	r3, [r3, #16]
 8003d28:	f423 72ff 	bic.w	r2, r3, #510	; 0x1fe
 8003d2c:	683b      	ldr	r3, [r7, #0]
 8003d2e:	6b59      	ldr	r1, [r3, #52]	; 0x34
 8003d30:	683b      	ldr	r3, [r7, #0]
 8003d32:	6b9b      	ldr	r3, [r3, #56]	; 0x38
 8003d34:	430b      	orrs	r3, r1
 8003d36:	431a      	orrs	r2, r3
 8003d38:	687b      	ldr	r3, [r7, #4]
 8003d3a:	681b      	ldr	r3, [r3, #0]
 8003d3c:	f042 0202 	orr.w	r2, r2, #2
 8003d40:	611a      	str	r2, [r3, #16]
 8003d42:	e007      	b.n	8003d54 <HAL_ADCEx_InjectedConfigChannel+0x270>
 8003d44:	687b      	ldr	r3, [r7, #4]
 8003d46:	681b      	ldr	r3, [r3, #0]
 8003d48:	691a      	ldr	r2, [r3, #16]
 8003d4a:	687b      	ldr	r3, [r7, #4]
 8003d4c:	681b      	ldr	r3, [r3, #0]
 8003d4e:	f022 0202 	bic.w	r2, r2, #2
 8003d52:	611a      	str	r2, [r3, #16]
 8003d54:	683b      	ldr	r3, [r7, #0]
 8003d56:	689b      	ldr	r3, [r3, #8]
 8003d58:	f1b3 4f00 	cmp.w	r3, #2147483648	; 0x80000000
 8003d5c:	d112      	bne.n	8003d84 <HAL_ADCEx_InjectedConfigChannel+0x2a0>
 8003d5e:	687b      	ldr	r3, [r7, #4]
 8003d60:	6818      	ldr	r0, [r3, #0]
 8003d62:	683b      	ldr	r3, [r7, #0]
 8003d64:	681b      	ldr	r3, [r3, #0]
 8003d66:	2200      	movs	r2, #0
 8003d68:	4619      	mov	r1, r3
 8003d6a:	f7ff fb1b 	bl	80033a4 <LL_ADC_SetChannelSamplingTime>
 8003d6e:	687b      	ldr	r3, [r7, #4]
 8003d70:	681b      	ldr	r3, [r3, #0]
 8003d72:	f04f 4100 	mov.w	r1, #2147483648	; 0x80000000
 8003d76:	4618      	mov	r0, r3
 8003d78:	f7ff facd 	bl	8003316 <LL_ADC_SetSamplingTimeCommonConfig>
 8003d7c:	e011      	b.n	8003da2 <HAL_ADCEx_InjectedConfigChannel+0x2be>
 8003d7e:	bf00      	nop
 8003d80:	04104000 	.word	0x04104000
 8003d84:	687b      	ldr	r3, [r7, #4]
 8003d86:	6818      	ldr	r0, [r3, #0]
 8003d88:	683b      	ldr	r3, [r7, #0]
 8003d8a:	6819      	ldr	r1, [r3, #0]
 8003d8c:	683b      	ldr	r3, [r7, #0]
 8003d8e:	689b      	ldr	r3, [r3, #8]
 8003d90:	461a      	mov	r2, r3
 8003d92:	f7ff fb07 	bl	80033a4 <LL_ADC_SetChannelSamplingTime>
 8003d96:	687b      	ldr	r3, [r7, #4]
 8003d98:	681b      	ldr	r3, [r3, #0]
 8003d9a:	2100      	movs	r1, #0
 8003d9c:	4618      	mov	r0, r3
 8003d9e:	f7ff faba 	bl	8003316 <LL_ADC_SetSamplingTimeCommonConfig>
 8003da2:	683b      	ldr	r3, [r7, #0]
 8003da4:	695a      	ldr	r2, [r3, #20]
 8003da6:	687b      	ldr	r3, [r7, #4]
 8003da8:	681b      	ldr	r3, [r3, #0]
 8003daa:	68db      	ldr	r3, [r3, #12]
 8003dac:	08db      	lsrs	r3, r3, #3
 8003dae:	f003 0303 	and.w	r3, r3, #3
 8003db2:	005b      	lsls	r3, r3, #1
 8003db4:	fa02 f303 	lsl.w	r3, r2, r3
 8003db8:	f8c7 30c4 	str.w	r3, [r7, #196]	; 0xc4
 8003dbc:	683b      	ldr	r3, [r7, #0]
 8003dbe:	691b      	ldr	r3, [r3, #16]
 8003dc0:	2b04      	cmp	r3, #4
 8003dc2:	d022      	beq.n	8003e0a <HAL_ADCEx_InjectedConfigChannel+0x326>
 8003dc4:	687b      	ldr	r3, [r7, #4]
 8003dc6:	6818      	ldr	r0, [r3, #0]
 8003dc8:	683b      	ldr	r3, [r7, #0]
 8003dca:	6919      	ldr	r1, [r3, #16]
 8003dcc:	683b      	ldr	r3, [r7, #0]
 8003dce:	681a      	ldr	r2, [r3, #0]
 8003dd0:	f8d7 30c4 	ldr.w	r3, [r7, #196]	; 0xc4
 8003dd4:	f7ff fa14 	bl	8003200 <LL_ADC_SetOffset>
 8003dd8:	687b      	ldr	r3, [r7, #4]
 8003dda:	6818      	ldr	r0, [r3, #0]
 8003ddc:	683b      	ldr	r3, [r7, #0]
 8003dde:	6919      	ldr	r1, [r3, #16]
 8003de0:	683b      	ldr	r3, [r7, #0]
 8003de2:	699b      	ldr	r3, [r3, #24]
 8003de4:	461a      	mov	r2, r3
 8003de6:	f7ff fa60 	bl	80032aa <LL_ADC_SetOffsetSign>
 8003dea:	687b      	ldr	r3, [r7, #4]
 8003dec:	6818      	ldr	r0, [r3, #0]
 8003dee:	683b      	ldr	r3, [r7, #0]
 8003df0:	6919      	ldr	r1, [r3, #16]
 8003df2:	683b      	ldr	r3, [r7, #0]
 8003df4:	7f1b      	ldrb	r3, [r3, #28]
 8003df6:	2b01      	cmp	r3, #1
 8003df8:	d102      	bne.n	8003e00 <HAL_ADCEx_InjectedConfigChannel+0x31c>
 8003dfa:	f04f 7300 	mov.w	r3, #33554432	; 0x2000000
 8003dfe:	e000      	b.n	8003e02 <HAL_ADCEx_InjectedConfigChannel+0x31e>
 8003e00:	2300      	movs	r3, #0
 8003e02:	461a      	mov	r2, r3
 8003e04:	f7ff fa6c 	bl	80032e0 <LL_ADC_SetOffsetSaturation>
 8003e08:	e179      	b.n	80040fe <HAL_ADCEx_InjectedConfigChannel+0x61a>
 8003e0a:	687b      	ldr	r3, [r7, #4]
 8003e0c:	681b      	ldr	r3, [r3, #0]
 8003e0e:	2100      	movs	r1, #0
 8003e10:	4618      	mov	r0, r3
 8003e12:	f7ff fa19 	bl	8003248 <LL_ADC_GetOffsetChannel>
 8003e16:	4603      	mov	r3, r0
 8003e18:	f3c3 0312 	ubfx	r3, r3, #0, #19
 8003e1c:	2b00      	cmp	r3, #0
 8003e1e:	d10a      	bne.n	8003e36 <HAL_ADCEx_InjectedConfigChannel+0x352>
 8003e20:	687b      	ldr	r3, [r7, #4]
 8003e22:	681b      	ldr	r3, [r3, #0]
 8003e24:	2100      	movs	r1, #0
 8003e26:	4618      	mov	r0, r3
 8003e28:	f7ff fa0e 	bl	8003248 <LL_ADC_GetOffsetChannel>
 8003e2c:	4603      	mov	r3, r0
 8003e2e:	0e9b      	lsrs	r3, r3, #26
 8003e30:	f003 021f 	and.w	r2, r3, #31
 8003e34:	e01e      	b.n	8003e74 <HAL_ADCEx_InjectedConfigChannel+0x390>
 8003e36:	687b      	ldr	r3, [r7, #4]
 8003e38:	681b      	ldr	r3, [r3, #0]
 8003e3a:	2100      	movs	r1, #0
 8003e3c:	4618      	mov	r0, r3
 8003e3e:	f7ff fa03 	bl	8003248 <LL_ADC_GetOffsetChannel>
 8003e42:	4603      	mov	r3, r0
 8003e44:	f8c7 30b8 	str.w	r3, [r7, #184]	; 0xb8
 8003e48:	f8d7 30b8 	ldr.w	r3, [r7, #184]	; 0xb8
 8003e4c:	fa93 f3a3 	rbit	r3, r3
 8003e50:	f8c7 30b4 	str.w	r3, [r7, #180]	; 0xb4
 8003e54:	f8d7 30b4 	ldr.w	r3, [r7, #180]	; 0xb4
 8003e58:	f8c7 30bc 	str.w	r3, [r7, #188]	; 0xbc
 8003e5c:	f8d7 30bc 	ldr.w	r3, [r7, #188]	; 0xbc
 8003e60:	2b00      	cmp	r3, #0
 8003e62:	d101      	bne.n	8003e68 <HAL_ADCEx_InjectedConfigChannel+0x384>
 8003e64:	2320      	movs	r3, #32
 8003e66:	e004      	b.n	8003e72 <HAL_ADCEx_InjectedConfigChannel+0x38e>
 8003e68:	f8d7 30bc 	ldr.w	r3, [r7, #188]	; 0xbc
 8003e6c:	fab3 f383 	clz	r3, r3
 8003e70:	b2db      	uxtb	r3, r3
 8003e72:	461a      	mov	r2, r3
 8003e74:	683b      	ldr	r3, [r7, #0]
 8003e76:	681b      	ldr	r3, [r3, #0]
 8003e78:	f3c3 0312 	ubfx	r3, r3, #0, #19
 8003e7c:	2b00      	cmp	r3, #0
 8003e7e:	d105      	bne.n	8003e8c <HAL_ADCEx_InjectedConfigChannel+0x3a8>
 8003e80:	683b      	ldr	r3, [r7, #0]
 8003e82:	681b      	ldr	r3, [r3, #0]
 8003e84:	0e9b      	lsrs	r3, r3, #26
 8003e86:	f003 031f 	and.w	r3, r3, #31
 8003e8a:	e018      	b.n	8003ebe <HAL_ADCEx_InjectedConfigChannel+0x3da>
 8003e8c:	683b      	ldr	r3, [r7, #0]
 8003e8e:	681b      	ldr	r3, [r3, #0]
 8003e90:	f8c7 30ac 	str.w	r3, [r7, #172]	; 0xac
 8003e94:	f8d7 30ac 	ldr.w	r3, [r7, #172]	; 0xac
 8003e98:	fa93 f3a3 	rbit	r3, r3
 8003e9c:	f8c7 30a8 	str.w	r3, [r7, #168]	; 0xa8
 8003ea0:	f8d7 30a8 	ldr.w	r3, [r7, #168]	; 0xa8
 8003ea4:	f8c7 30b0 	str.w	r3, [r7, #176]	; 0xb0
 8003ea8:	f8d7 30b0 	ldr.w	r3, [r7, #176]	; 0xb0
 8003eac:	2b00      	cmp	r3, #0
 8003eae:	d101      	bne.n	8003eb4 <HAL_ADCEx_InjectedConfigChannel+0x3d0>
 8003eb0:	2320      	movs	r3, #32
 8003eb2:	e004      	b.n	8003ebe <HAL_ADCEx_InjectedConfigChannel+0x3da>
 8003eb4:	f8d7 30b0 	ldr.w	r3, [r7, #176]	; 0xb0
 8003eb8:	fab3 f383 	clz	r3, r3
 8003ebc:	b2db      	uxtb	r3, r3
 8003ebe:	429a      	cmp	r2, r3
 8003ec0:	d106      	bne.n	8003ed0 <HAL_ADCEx_InjectedConfigChannel+0x3ec>
 8003ec2:	687b      	ldr	r3, [r7, #4]
 8003ec4:	681b      	ldr	r3, [r3, #0]
 8003ec6:	2200      	movs	r2, #0
 8003ec8:	2100      	movs	r1, #0
 8003eca:	4618      	mov	r0, r3
 8003ecc:	f7ff f9d2 	bl	8003274 <LL_ADC_SetOffsetState>
 8003ed0:	687b      	ldr	r3, [r7, #4]
 8003ed2:	681b      	ldr	r3, [r3, #0]
 8003ed4:	2101      	movs	r1, #1
 8003ed6:	4618      	mov	r0, r3
 8003ed8:	f7ff f9b6 	bl	8003248 <LL_ADC_GetOffsetChannel>
 8003edc:	4603      	mov	r3, r0
 8003ede:	f3c3 0312 	ubfx	r3, r3, #0, #19
 8003ee2:	2b00      	cmp	r3, #0
 8003ee4:	d10a      	bne.n	8003efc <HAL_ADCEx_InjectedConfigChannel+0x418>
 8003ee6:	687b      	ldr	r3, [r7, #4]
 8003ee8:	681b      	ldr	r3, [r3, #0]
 8003eea:	2101      	movs	r1, #1
 8003eec:	4618      	mov	r0, r3
 8003eee:	f7ff f9ab 	bl	8003248 <LL_ADC_GetOffsetChannel>
 8003ef2:	4603      	mov	r3, r0
 8003ef4:	0e9b      	lsrs	r3, r3, #26
 8003ef6:	f003 021f 	and.w	r2, r3, #31
 8003efa:	e01e      	b.n	8003f3a <HAL_ADCEx_InjectedConfigChannel+0x456>
 8003efc:	687b      	ldr	r3, [r7, #4]
 8003efe:	681b      	ldr	r3, [r3, #0]
 8003f00:	2101      	movs	r1, #1
 8003f02:	4618      	mov	r0, r3
 8003f04:	f7ff f9a0 	bl	8003248 <LL_ADC_GetOffsetChannel>
 8003f08:	4603      	mov	r3, r0
 8003f0a:	f8c7 30a0 	str.w	r3, [r7, #160]	; 0xa0
 8003f0e:	f8d7 30a0 	ldr.w	r3, [r7, #160]	; 0xa0
 8003f12:	fa93 f3a3 	rbit	r3, r3
 8003f16:	f8c7 309c 	str.w	r3, [r7, #156]	; 0x9c
 8003f1a:	f8d7 309c 	ldr.w	r3, [r7, #156]	; 0x9c
 8003f1e:	f8c7 30a4 	str.w	r3, [r7, #164]	; 0xa4
 8003f22:	f8d7 30a4 	ldr.w	r3, [r7, #164]	; 0xa4
 8003f26:	2b00      	cmp	r3, #0
 8003f28:	d101      	bne.n	8003f2e <HAL_ADCEx_InjectedConfigChannel+0x44a>
 8003f2a:	2320      	movs	r3, #32
 8003f2c:	e004      	b.n	8003f38 <HAL_ADCEx_InjectedConfigChannel+0x454>
 8003f2e:	f8d7 30a4 	ldr.w	r3, [r7, #164]	; 0xa4
 8003f32:	fab3 f383 	clz	r3, r3
 8003f36:	b2db      	uxtb	r3, r3
 8003f38:	461a      	mov	r2, r3
 8003f3a:	683b      	ldr	r3, [r7, #0]
 8003f3c:	681b      	ldr	r3, [r3, #0]
 8003f3e:	f3c3 0312 	ubfx	r3, r3, #0, #19
 8003f42:	2b00      	cmp	r3, #0
 8003f44:	d105      	bne.n	8003f52 <HAL_ADCEx_InjectedConfigChannel+0x46e>
 8003f46:	683b      	ldr	r3, [r7, #0]
 8003f48:	681b      	ldr	r3, [r3, #0]
 8003f4a:	0e9b      	lsrs	r3, r3, #26
 8003f4c:	f003 031f 	and.w	r3, r3, #31
 8003f50:	e018      	b.n	8003f84 <HAL_ADCEx_InjectedConfigChannel+0x4a0>
 8003f52:	683b      	ldr	r3, [r7, #0]
 8003f54:	681b      	ldr	r3, [r3, #0]
 8003f56:	f8c7 3094 	str.w	r3, [r7, #148]	; 0x94
 8003f5a:	f8d7 3094 	ldr.w	r3, [r7, #148]	; 0x94
 8003f5e:	fa93 f3a3 	rbit	r3, r3
 8003f62:	f8c7 3090 	str.w	r3, [r7, #144]	; 0x90
 8003f66:	f8d7 3090 	ldr.w	r3, [r7, #144]	; 0x90
 8003f6a:	f8c7 3098 	str.w	r3, [r7, #152]	; 0x98
 8003f6e:	f8d7 3098 	ldr.w	r3, [r7, #152]	; 0x98
 8003f72:	2b00      	cmp	r3, #0
 8003f74:	d101      	bne.n	8003f7a <HAL_ADCEx_InjectedConfigChannel+0x496>
 8003f76:	2320      	movs	r3, #32
 8003f78:	e004      	b.n	8003f84 <HAL_ADCEx_InjectedConfigChannel+0x4a0>
 8003f7a:	f8d7 3098 	ldr.w	r3, [r7, #152]	; 0x98
 8003f7e:	fab3 f383 	clz	r3, r3
 8003f82:	b2db      	uxtb	r3, r3
 8003f84:	429a      	cmp	r2, r3
 8003f86:	d106      	bne.n	8003f96 <HAL_ADCEx_InjectedConfigChannel+0x4b2>
 8003f88:	687b      	ldr	r3, [r7, #4]
 8003f8a:	681b      	ldr	r3, [r3, #0]
 8003f8c:	2200      	movs	r2, #0
 8003f8e:	2101      	movs	r1, #1
 8003f90:	4618      	mov	r0, r3
 8003f92:	f7ff f96f 	bl	8003274 <LL_ADC_SetOffsetState>
 8003f96:	687b      	ldr	r3, [r7, #4]
 8003f98:	681b      	ldr	r3, [r3, #0]
 8003f9a:	2102      	movs	r1, #2
 8003f9c:	4618      	mov	r0, r3
 8003f9e:	f7ff f953 	bl	8003248 <LL_ADC_GetOffsetChannel>
 8003fa2:	4603      	mov	r3, r0
 8003fa4:	f3c3 0312 	ubfx	r3, r3, #0, #19
 8003fa8:	2b00      	cmp	r3, #0
 8003faa:	d10a      	bne.n	8003fc2 <HAL_ADCEx_InjectedConfigChannel+0x4de>
 8003fac:	687b      	ldr	r3, [r7, #4]
 8003fae:	681b      	ldr	r3, [r3, #0]
 8003fb0:	2102      	movs	r1, #2
 8003fb2:	4618      	mov	r0, r3
 8003fb4:	f7ff f948 	bl	8003248 <LL_ADC_GetOffsetChannel>
 8003fb8:	4603      	mov	r3, r0
 8003fba:	0e9b      	lsrs	r3, r3, #26
 8003fbc:	f003 021f 	and.w	r2, r3, #31
 8003fc0:	e01e      	b.n	8004000 <HAL_ADCEx_InjectedConfigChannel+0x51c>
 8003fc2:	687b      	ldr	r3, [r7, #4]
 8003fc4:	681b      	ldr	r3, [r3, #0]
 8003fc6:	2102      	movs	r1, #2
 8003fc8:	4618      	mov	r0, r3
 8003fca:	f7ff f93d 	bl	8003248 <LL_ADC_GetOffsetChannel>
 8003fce:	4603      	mov	r3, r0
 8003fd0:	f8c7 3088 	str.w	r3, [r7, #136]	; 0x88
 8003fd4:	f8d7 3088 	ldr.w	r3, [r7, #136]	; 0x88
 8003fd8:	fa93 f3a3 	rbit	r3, r3
 8003fdc:	f8c7 3084 	str.w	r3, [r7, #132]	; 0x84
 8003fe0:	f8d7 3084 	ldr.w	r3, [r7, #132]	; 0x84
 8003fe4:	f8c7 308c 	str.w	r3, [r7, #140]	; 0x8c
 8003fe8:	f8d7 308c 	ldr.w	r3, [r7, #140]	; 0x8c
 8003fec:	2b00      	cmp	r3, #0
 8003fee:	d101      	bne.n	8003ff4 <HAL_ADCEx_InjectedConfigChannel+0x510>
 8003ff0:	2320      	movs	r3, #32
 8003ff2:	e004      	b.n	8003ffe <HAL_ADCEx_InjectedConfigChannel+0x51a>
 8003ff4:	f8d7 308c 	ldr.w	r3, [r7, #140]	; 0x8c
 8003ff8:	fab3 f383 	clz	r3, r3
 8003ffc:	b2db      	uxtb	r3, r3
 8003ffe:	461a      	mov	r2, r3
 8004000:	683b      	ldr	r3, [r7, #0]
 8004002:	681b      	ldr	r3, [r3, #0]
 8004004:	f3c3 0312 	ubfx	r3, r3, #0, #19
 8004008:	2b00      	cmp	r3, #0
 800400a:	d105      	bne.n	8004018 <HAL_ADCEx_InjectedConfigChannel+0x534>
 800400c:	683b      	ldr	r3, [r7, #0]
 800400e:	681b      	ldr	r3, [r3, #0]
 8004010:	0e9b      	lsrs	r3, r3, #26
 8004012:	f003 031f 	and.w	r3, r3, #31
 8004016:	e014      	b.n	8004042 <HAL_ADCEx_InjectedConfigChannel+0x55e>
 8004018:	683b      	ldr	r3, [r7, #0]
 800401a:	681b      	ldr	r3, [r3, #0]
 800401c:	67fb      	str	r3, [r7, #124]	; 0x7c
 800401e:	6ffb      	ldr	r3, [r7, #124]	; 0x7c
 8004020:	fa93 f3a3 	rbit	r3, r3
 8004024:	67bb      	str	r3, [r7, #120]	; 0x78
 8004026:	6fbb      	ldr	r3, [r7, #120]	; 0x78
 8004028:	f8c7 3080 	str.w	r3, [r7, #128]	; 0x80
 800402c:	f8d7 3080 	ldr.w	r3, [r7, #128]	; 0x80
 8004030:	2b00      	cmp	r3, #0
 8004032:	d101      	bne.n	8004038 <HAL_ADCEx_InjectedConfigChannel+0x554>
 8004034:	2320      	movs	r3, #32
 8004036:	e004      	b.n	8004042 <HAL_ADCEx_InjectedConfigChannel+0x55e>
 8004038:	f8d7 3080 	ldr.w	r3, [r7, #128]	; 0x80
 800403c:	fab3 f383 	clz	r3, r3
 8004040:	b2db      	uxtb	r3, r3
 8004042:	429a      	cmp	r2, r3
 8004044:	d106      	bne.n	8004054 <HAL_ADCEx_InjectedConfigChannel+0x570>
 8004046:	687b      	ldr	r3, [r7, #4]
 8004048:	681b      	ldr	r3, [r3, #0]
 800404a:	2200      	movs	r2, #0
 800404c:	2102      	movs	r1, #2
 800404e:	4618      	mov	r0, r3
 8004050:	f7ff f910 	bl	8003274 <LL_ADC_SetOffsetState>
 8004054:	687b      	ldr	r3, [r7, #4]
 8004056:	681b      	ldr	r3, [r3, #0]
 8004058:	2103      	movs	r1, #3
 800405a:	4618      	mov	r0, r3
 800405c:	f7ff f8f4 	bl	8003248 <LL_ADC_GetOffsetChannel>
 8004060:	4603      	mov	r3, r0
 8004062:	f3c3 0312 	ubfx	r3, r3, #0, #19
 8004066:	2b00      	cmp	r3, #0
 8004068:	d10a      	bne.n	8004080 <HAL_ADCEx_InjectedConfigChannel+0x59c>
 800406a:	687b      	ldr	r3, [r7, #4]
 800406c:	681b      	ldr	r3, [r3, #0]
 800406e:	2103      	movs	r1, #3
 8004070:	4618      	mov	r0, r3
 8004072:	f7ff f8e9 	bl	8003248 <LL_ADC_GetOffsetChannel>
 8004076:	4603      	mov	r3, r0
 8004078:	0e9b      	lsrs	r3, r3, #26
 800407a:	f003 021f 	and.w	r2, r3, #31
 800407e:	e017      	b.n	80040b0 <HAL_ADCEx_InjectedConfigChannel+0x5cc>
 8004080:	687b      	ldr	r3, [r7, #4]
 8004082:	681b      	ldr	r3, [r3, #0]
 8004084:	2103      	movs	r1, #3
 8004086:	4618      	mov	r0, r3
 8004088:	f7ff f8de 	bl	8003248 <LL_ADC_GetOffsetChannel>
 800408c:	4603      	mov	r3, r0
 800408e:	673b      	str	r3, [r7, #112]	; 0x70
 8004090:	6f3b      	ldr	r3, [r7, #112]	; 0x70
 8004092:	fa93 f3a3 	rbit	r3, r3
 8004096:	66fb      	str	r3, [r7, #108]	; 0x6c
 8004098:	6efb      	ldr	r3, [r7, #108]	; 0x6c
 800409a:	677b      	str	r3, [r7, #116]	; 0x74
 800409c:	6f7b      	ldr	r3, [r7, #116]	; 0x74
 800409e:	2b00      	cmp	r3, #0
 80040a0:	d101      	bne.n	80040a6 <HAL_ADCEx_InjectedConfigChannel+0x5c2>
 80040a2:	2320      	movs	r3, #32
 80040a4:	e003      	b.n	80040ae <HAL_ADCEx_InjectedConfigChannel+0x5ca>
 80040a6:	6f7b      	ldr	r3, [r7, #116]	; 0x74
 80040a8:	fab3 f383 	clz	r3, r3
 80040ac:	b2db      	uxtb	r3, r3
 80040ae:	461a      	mov	r2, r3
 80040b0:	683b      	ldr	r3, [r7, #0]
 80040b2:	681b      	ldr	r3, [r3, #0]
 80040b4:	f3c3 0312 	ubfx	r3, r3, #0, #19
 80040b8:	2b00      	cmp	r3, #0
 80040ba:	d105      	bne.n	80040c8 <HAL_ADCEx_InjectedConfigChannel+0x5e4>
 80040bc:	683b      	ldr	r3, [r7, #0]
 80040be:	681b      	ldr	r3, [r3, #0]
 80040c0:	0e9b      	lsrs	r3, r3, #26
 80040c2:	f003 031f 	and.w	r3, r3, #31
 80040c6:	e011      	b.n	80040ec <HAL_ADCEx_InjectedConfigChannel+0x608>
 80040c8:	683b      	ldr	r3, [r7, #0]
 80040ca:	681b      	ldr	r3, [r3, #0]
 80040cc:	667b      	str	r3, [r7, #100]	; 0x64
 80040ce:	6e7b      	ldr	r3, [r7, #100]	; 0x64
 80040d0:	fa93 f3a3 	rbit	r3, r3
 80040d4:	663b      	str	r3, [r7, #96]	; 0x60
 80040d6:	6e3b      	ldr	r3, [r7, #96]	; 0x60
 80040d8:	66bb      	str	r3, [r7, #104]	; 0x68
 80040da:	6ebb      	ldr	r3, [r7, #104]	; 0x68
 80040dc:	2b00      	cmp	r3, #0
 80040de:	d101      	bne.n	80040e4 <HAL_ADCEx_InjectedConfigChannel+0x600>
 80040e0:	2320      	movs	r3, #32
 80040e2:	e003      	b.n	80040ec <HAL_ADCEx_InjectedConfigChannel+0x608>
 80040e4:	6ebb      	ldr	r3, [r7, #104]	; 0x68
 80040e6:	fab3 f383 	clz	r3, r3
 80040ea:	b2db      	uxtb	r3, r3
 80040ec:	429a      	cmp	r2, r3
 80040ee:	d106      	bne.n	80040fe <HAL_ADCEx_InjectedConfigChannel+0x61a>
 80040f0:	687b      	ldr	r3, [r7, #4]
 80040f2:	681b      	ldr	r3, [r3, #0]
 80040f4:	2200      	movs	r2, #0
 80040f6:	2103      	movs	r1, #3
 80040f8:	4618      	mov	r0, r3
 80040fa:	f7ff f8bb 	bl	8003274 <LL_ADC_SetOffsetState>
 80040fe:	687b      	ldr	r3, [r7, #4]
 8004100:	681b      	ldr	r3, [r3, #0]
 8004102:	4618      	mov	r0, r3
 8004104:	f7ff f9b0 	bl	8003468 <LL_ADC_IsEnabled>
 8004108:	4603      	mov	r3, r0
 800410a:	2b00      	cmp	r3, #0
 800410c:	f040 8140 	bne.w	8004390 <HAL_ADCEx_InjectedConfigChannel+0x8ac>
 8004110:	687b      	ldr	r3, [r7, #4]
 8004112:	6818      	ldr	r0, [r3, #0]
 8004114:	683b      	ldr	r3, [r7, #0]
 8004116:	6819      	ldr	r1, [r3, #0]
 8004118:	683b      	ldr	r3, [r7, #0]
 800411a:	68db      	ldr	r3, [r3, #12]
 800411c:	461a      	mov	r2, r3
 800411e:	f7ff f96d 	bl	80033fc <LL_ADC_SetChannelSingleDiff>
 8004122:	683b      	ldr	r3, [r7, #0]
 8004124:	68db      	ldr	r3, [r3, #12]
 8004126:	4a8f      	ldr	r2, [pc, #572]	; (8004364 <HAL_ADCEx_InjectedConfigChannel+0x880>)
 8004128:	4293      	cmp	r3, r2
 800412a:	f040 8131 	bne.w	8004390 <HAL_ADCEx_InjectedConfigChannel+0x8ac>
 800412e:	687b      	ldr	r3, [r7, #4]
 8004130:	6818      	ldr	r0, [r3, #0]
 8004132:	683b      	ldr	r3, [r7, #0]
 8004134:	681b      	ldr	r3, [r3, #0]
 8004136:	f3c3 0312 	ubfx	r3, r3, #0, #19
 800413a:	2b00      	cmp	r3, #0
 800413c:	d10b      	bne.n	8004156 <HAL_ADCEx_InjectedConfigChannel+0x672>
 800413e:	683b      	ldr	r3, [r7, #0]
 8004140:	681b      	ldr	r3, [r3, #0]
 8004142:	0e9b      	lsrs	r3, r3, #26
 8004144:	3301      	adds	r3, #1
 8004146:	f003 031f 	and.w	r3, r3, #31
 800414a:	2b09      	cmp	r3, #9
 800414c:	bf94      	ite	ls
 800414e:	2301      	movls	r3, #1
 8004150:	2300      	movhi	r3, #0
 8004152:	b2db      	uxtb	r3, r3
 8004154:	e019      	b.n	800418a <HAL_ADCEx_InjectedConfigChannel+0x6a6>
 8004156:	683b      	ldr	r3, [r7, #0]
 8004158:	681b      	ldr	r3, [r3, #0]
 800415a:	65bb      	str	r3, [r7, #88]	; 0x58
 800415c:	6dbb      	ldr	r3, [r7, #88]	; 0x58
 800415e:	fa93 f3a3 	rbit	r3, r3
 8004162:	657b      	str	r3, [r7, #84]	; 0x54
 8004164:	6d7b      	ldr	r3, [r7, #84]	; 0x54
 8004166:	65fb      	str	r3, [r7, #92]	; 0x5c
 8004168:	6dfb      	ldr	r3, [r7, #92]	; 0x5c
 800416a:	2b00      	cmp	r3, #0
 800416c:	d101      	bne.n	8004172 <HAL_ADCEx_InjectedConfigChannel+0x68e>
 800416e:	2320      	movs	r3, #32
 8004170:	e003      	b.n	800417a <HAL_ADCEx_InjectedConfigChannel+0x696>
 8004172:	6dfb      	ldr	r3, [r7, #92]	; 0x5c
 8004174:	fab3 f383 	clz	r3, r3
 8004178:	b2db      	uxtb	r3, r3
 800417a:	3301      	adds	r3, #1
 800417c:	f003 031f 	and.w	r3, r3, #31
 8004180:	2b09      	cmp	r3, #9
 8004182:	bf94      	ite	ls
 8004184:	2301      	movls	r3, #1
 8004186:	2300      	movhi	r3, #0
 8004188:	b2db      	uxtb	r3, r3
 800418a:	2b00      	cmp	r3, #0
 800418c:	d079      	beq.n	8004282 <HAL_ADCEx_InjectedConfigChannel+0x79e>
 800418e:	683b      	ldr	r3, [r7, #0]
 8004190:	681b      	ldr	r3, [r3, #0]
 8004192:	f3c3 0312 	ubfx	r3, r3, #0, #19
 8004196:	2b00      	cmp	r3, #0
 8004198:	d107      	bne.n	80041aa <HAL_ADCEx_InjectedConfigChannel+0x6c6>
 800419a:	683b      	ldr	r3, [r7, #0]
 800419c:	681b      	ldr	r3, [r3, #0]
 800419e:	0e9b      	lsrs	r3, r3, #26
 80041a0:	3301      	adds	r3, #1
 80041a2:	069b      	lsls	r3, r3, #26
 80041a4:	f003 42f8 	and.w	r2, r3, #2080374784	; 0x7c000000
 80041a8:	e015      	b.n	80041d6 <HAL_ADCEx_InjectedConfigChannel+0x6f2>
 80041aa:	683b      	ldr	r3, [r7, #0]
 80041ac:	681b      	ldr	r3, [r3, #0]
 80041ae:	64fb      	str	r3, [r7, #76]	; 0x4c
 80041b0:	6cfb      	ldr	r3, [r7, #76]	; 0x4c
 80041b2:	fa93 f3a3 	rbit	r3, r3
 80041b6:	64bb      	str	r3, [r7, #72]	; 0x48
 80041b8:	6cbb      	ldr	r3, [r7, #72]	; 0x48
 80041ba:	653b      	str	r3, [r7, #80]	; 0x50
 80041bc:	6d3b      	ldr	r3, [r7, #80]	; 0x50
 80041be:	2b00      	cmp	r3, #0
 80041c0:	d101      	bne.n	80041c6 <HAL_ADCEx_InjectedConfigChannel+0x6e2>
 80041c2:	2320      	movs	r3, #32
 80041c4:	e003      	b.n	80041ce <HAL_ADCEx_InjectedConfigChannel+0x6ea>
 80041c6:	6d3b      	ldr	r3, [r7, #80]	; 0x50
 80041c8:	fab3 f383 	clz	r3, r3
 80041cc:	b2db      	uxtb	r3, r3
 80041ce:	3301      	adds	r3, #1
 80041d0:	069b      	lsls	r3, r3, #26
 80041d2:	f003 42f8 	and.w	r2, r3, #2080374784	; 0x7c000000
 80041d6:	683b      	ldr	r3, [r7, #0]
 80041d8:	681b      	ldr	r3, [r3, #0]
 80041da:	f3c3 0312 	ubfx	r3, r3, #0, #19
 80041de:	2b00      	cmp	r3, #0
 80041e0:	d109      	bne.n	80041f6 <HAL_ADCEx_InjectedConfigChannel+0x712>
 80041e2:	683b      	ldr	r3, [r7, #0]
 80041e4:	681b      	ldr	r3, [r3, #0]
 80041e6:	0e9b      	lsrs	r3, r3, #26
 80041e8:	3301      	adds	r3, #1
 80041ea:	f003 031f 	and.w	r3, r3, #31
 80041ee:	2101      	movs	r1, #1
 80041f0:	fa01 f303 	lsl.w	r3, r1, r3
 80041f4:	e017      	b.n	8004226 <HAL_ADCEx_InjectedConfigChannel+0x742>
 80041f6:	683b      	ldr	r3, [r7, #0]
 80041f8:	681b      	ldr	r3, [r3, #0]
 80041fa:	643b      	str	r3, [r7, #64]	; 0x40
 80041fc:	6c3b      	ldr	r3, [r7, #64]	; 0x40
 80041fe:	fa93 f3a3 	rbit	r3, r3
 8004202:	63fb      	str	r3, [r7, #60]	; 0x3c
 8004204:	6bfb      	ldr	r3, [r7, #60]	; 0x3c
 8004206:	647b      	str	r3, [r7, #68]	; 0x44
 8004208:	6c7b      	ldr	r3, [r7, #68]	; 0x44
 800420a:	2b00      	cmp	r3, #0
 800420c:	d101      	bne.n	8004212 <HAL_ADCEx_InjectedConfigChannel+0x72e>
 800420e:	2320      	movs	r3, #32
 8004210:	e003      	b.n	800421a <HAL_ADCEx_InjectedConfigChannel+0x736>
 8004212:	6c7b      	ldr	r3, [r7, #68]	; 0x44
 8004214:	fab3 f383 	clz	r3, r3
 8004218:	b2db      	uxtb	r3, r3
 800421a:	3301      	adds	r3, #1
 800421c:	f003 031f 	and.w	r3, r3, #31
 8004220:	2101      	movs	r1, #1
 8004222:	fa01 f303 	lsl.w	r3, r1, r3
 8004226:	ea42 0103 	orr.w	r1, r2, r3
 800422a:	683b      	ldr	r3, [r7, #0]
 800422c:	681b      	ldr	r3, [r3, #0]
 800422e:	f3c3 0312 	ubfx	r3, r3, #0, #19
 8004232:	2b00      	cmp	r3, #0
 8004234:	d10a      	bne.n	800424c <HAL_ADCEx_InjectedConfigChannel+0x768>
 8004236:	683b      	ldr	r3, [r7, #0]
 8004238:	681b      	ldr	r3, [r3, #0]
 800423a:	0e9b      	lsrs	r3, r3, #26
 800423c:	3301      	adds	r3, #1
 800423e:	f003 021f 	and.w	r2, r3, #31
 8004242:	4613      	mov	r3, r2
 8004244:	005b      	lsls	r3, r3, #1
 8004246:	4413      	add	r3, r2
 8004248:	051b      	lsls	r3, r3, #20
 800424a:	e018      	b.n	800427e <HAL_ADCEx_InjectedConfigChannel+0x79a>
 800424c:	683b      	ldr	r3, [r7, #0]
 800424e:	681b      	ldr	r3, [r3, #0]
 8004250:	637b      	str	r3, [r7, #52]	; 0x34
 8004252:	6b7b      	ldr	r3, [r7, #52]	; 0x34
 8004254:	fa93 f3a3 	rbit	r3, r3
 8004258:	633b      	str	r3, [r7, #48]	; 0x30
 800425a:	6b3b      	ldr	r3, [r7, #48]	; 0x30
 800425c:	63bb      	str	r3, [r7, #56]	; 0x38
 800425e:	6bbb      	ldr	r3, [r7, #56]	; 0x38
 8004260:	2b00      	cmp	r3, #0
 8004262:	d101      	bne.n	8004268 <HAL_ADCEx_InjectedConfigChannel+0x784>
 8004264:	2320      	movs	r3, #32
 8004266:	e003      	b.n	8004270 <HAL_ADCEx_InjectedConfigChannel+0x78c>
 8004268:	6bbb      	ldr	r3, [r7, #56]	; 0x38
 800426a:	fab3 f383 	clz	r3, r3
 800426e:	b2db      	uxtb	r3, r3
 8004270:	3301      	adds	r3, #1
 8004272:	f003 021f 	and.w	r2, r3, #31
 8004276:	4613      	mov	r3, r2
 8004278:	005b      	lsls	r3, r3, #1
 800427a:	4413      	add	r3, r2
 800427c:	051b      	lsls	r3, r3, #20
 800427e:	430b      	orrs	r3, r1
 8004280:	e081      	b.n	8004386 <HAL_ADCEx_InjectedConfigChannel+0x8a2>
 8004282:	683b      	ldr	r3, [r7, #0]
 8004284:	681b      	ldr	r3, [r3, #0]
 8004286:	f3c3 0312 	ubfx	r3, r3, #0, #19
 800428a:	2b00      	cmp	r3, #0
 800428c:	d107      	bne.n	800429e <HAL_ADCEx_InjectedConfigChannel+0x7ba>
 800428e:	683b      	ldr	r3, [r7, #0]
 8004290:	681b      	ldr	r3, [r3, #0]
 8004292:	0e9b      	lsrs	r3, r3, #26
 8004294:	3301      	adds	r3, #1
 8004296:	069b      	lsls	r3, r3, #26
 8004298:	f003 42f8 	and.w	r2, r3, #2080374784	; 0x7c000000
 800429c:	e015      	b.n	80042ca <HAL_ADCEx_InjectedConfigChannel+0x7e6>
 800429e:	683b      	ldr	r3, [r7, #0]
 80042a0:	681b      	ldr	r3, [r3, #0]
 80042a2:	62bb      	str	r3, [r7, #40]	; 0x28
 80042a4:	6abb      	ldr	r3, [r7, #40]	; 0x28
 80042a6:	fa93 f3a3 	rbit	r3, r3
 80042aa:	627b      	str	r3, [r7, #36]	; 0x24
 80042ac:	6a7b      	ldr	r3, [r7, #36]	; 0x24
 80042ae:	62fb      	str	r3, [r7, #44]	; 0x2c
 80042b0:	6afb      	ldr	r3, [r7, #44]	; 0x2c
 80042b2:	2b00      	cmp	r3, #0
 80042b4:	d101      	bne.n	80042ba <HAL_ADCEx_InjectedConfigChannel+0x7d6>
 80042b6:	2320      	movs	r3, #32
 80042b8:	e003      	b.n	80042c2 <HAL_ADCEx_InjectedConfigChannel+0x7de>
 80042ba:	6afb      	ldr	r3, [r7, #44]	; 0x2c
 80042bc:	fab3 f383 	clz	r3, r3
 80042c0:	b2db      	uxtb	r3, r3
 80042c2:	3301      	adds	r3, #1
 80042c4:	069b      	lsls	r3, r3, #26
 80042c6:	f003 42f8 	and.w	r2, r3, #2080374784	; 0x7c000000
 80042ca:	683b      	ldr	r3, [r7, #0]
 80042cc:	681b      	ldr	r3, [r3, #0]
 80042ce:	f3c3 0312 	ubfx	r3, r3, #0, #19
 80042d2:	2b00      	cmp	r3, #0
 80042d4:	d109      	bne.n	80042ea <HAL_ADCEx_InjectedConfigChannel+0x806>
 80042d6:	683b      	ldr	r3, [r7, #0]
 80042d8:	681b      	ldr	r3, [r3, #0]
 80042da:	0e9b      	lsrs	r3, r3, #26
 80042dc:	3301      	adds	r3, #1
 80042de:	f003 031f 	and.w	r3, r3, #31
 80042e2:	2101      	movs	r1, #1
 80042e4:	fa01 f303 	lsl.w	r3, r1, r3
 80042e8:	e017      	b.n	800431a <HAL_ADCEx_InjectedConfigChannel+0x836>
 80042ea:	683b      	ldr	r3, [r7, #0]
 80042ec:	681b      	ldr	r3, [r3, #0]
 80042ee:	61fb      	str	r3, [r7, #28]
 80042f0:	69fb      	ldr	r3, [r7, #28]
 80042f2:	fa93 f3a3 	rbit	r3, r3
 80042f6:	61bb      	str	r3, [r7, #24]
 80042f8:	69bb      	ldr	r3, [r7, #24]
 80042fa:	623b      	str	r3, [r7, #32]
 80042fc:	6a3b      	ldr	r3, [r7, #32]
 80042fe:	2b00      	cmp	r3, #0
 8004300:	d101      	bne.n	8004306 <HAL_ADCEx_InjectedConfigChannel+0x822>
 8004302:	2320      	movs	r3, #32
 8004304:	e003      	b.n	800430e <HAL_ADCEx_InjectedConfigChannel+0x82a>
 8004306:	6a3b      	ldr	r3, [r7, #32]
 8004308:	fab3 f383 	clz	r3, r3
 800430c:	b2db      	uxtb	r3, r3
 800430e:	3301      	adds	r3, #1
 8004310:	f003 031f 	and.w	r3, r3, #31
 8004314:	2101      	movs	r1, #1
 8004316:	fa01 f303 	lsl.w	r3, r1, r3
 800431a:	ea42 0103 	orr.w	r1, r2, r3
 800431e:	683b      	ldr	r3, [r7, #0]
 8004320:	681b      	ldr	r3, [r3, #0]
 8004322:	f3c3 0312 	ubfx	r3, r3, #0, #19
 8004326:	2b00      	cmp	r3, #0
 8004328:	d10d      	bne.n	8004346 <HAL_ADCEx_InjectedConfigChannel+0x862>
 800432a:	683b      	ldr	r3, [r7, #0]
 800432c:	681b      	ldr	r3, [r3, #0]
 800432e:	0e9b      	lsrs	r3, r3, #26
 8004330:	3301      	adds	r3, #1
 8004332:	f003 021f 	and.w	r2, r3, #31
 8004336:	4613      	mov	r3, r2
 8004338:	005b      	lsls	r3, r3, #1
 800433a:	4413      	add	r3, r2
 800433c:	3b1e      	subs	r3, #30
 800433e:	051b      	lsls	r3, r3, #20
 8004340:	f043 7300 	orr.w	r3, r3, #33554432	; 0x2000000
 8004344:	e01e      	b.n	8004384 <HAL_ADCEx_InjectedConfigChannel+0x8a0>
 8004346:	683b      	ldr	r3, [r7, #0]
 8004348:	681b      	ldr	r3, [r3, #0]
 800434a:	613b      	str	r3, [r7, #16]
 800434c:	693b      	ldr	r3, [r7, #16]
 800434e:	fa93 f3a3 	rbit	r3, r3
 8004352:	60fb      	str	r3, [r7, #12]
 8004354:	68fb      	ldr	r3, [r7, #12]
 8004356:	617b      	str	r3, [r7, #20]
 8004358:	697b      	ldr	r3, [r7, #20]
 800435a:	2b00      	cmp	r3, #0
 800435c:	d104      	bne.n	8004368 <HAL_ADCEx_InjectedConfigChannel+0x884>
 800435e:	2320      	movs	r3, #32
 8004360:	e006      	b.n	8004370 <HAL_ADCEx_InjectedConfigChannel+0x88c>
 8004362:	bf00      	nop
 8004364:	407f0000 	.word	0x407f0000
 8004368:	697b      	ldr	r3, [r7, #20]
 800436a:	fab3 f383 	clz	r3, r3
 800436e:	b2db      	uxtb	r3, r3
 8004370:	3301      	adds	r3, #1
 8004372:	f003 021f 	and.w	r2, r3, #31
 8004376:	4613      	mov	r3, r2
 8004378:	005b      	lsls	r3, r3, #1
 800437a:	4413      	add	r3, r2
 800437c:	3b1e      	subs	r3, #30
 800437e:	051b      	lsls	r3, r3, #20
 8004380:	f043 7300 	orr.w	r3, r3, #33554432	; 0x2000000
 8004384:	430b      	orrs	r3, r1
 8004386:	683a      	ldr	r2, [r7, #0]
 8004388:	6892      	ldr	r2, [r2, #8]
 800438a:	4619      	mov	r1, r3
 800438c:	f7ff f80a 	bl	80033a4 <LL_ADC_SetChannelSamplingTime>
 8004390:	683b      	ldr	r3, [r7, #0]
 8004392:	681a      	ldr	r2, [r3, #0]
 8004394:	4b3a      	ldr	r3, [pc, #232]	; (8004480 <HAL_ADCEx_InjectedConfigChannel+0x99c>)
 8004396:	4013      	ands	r3, r2
 8004398:	2b00      	cmp	r3, #0
 800439a:	d067      	beq.n	800446c <HAL_ADCEx_InjectedConfigChannel+0x988>
 800439c:	4839      	ldr	r0, [pc, #228]	; (8004484 <HAL_ADCEx_InjectedConfigChannel+0x9a0>)
 800439e:	f7fe ff21 	bl	80031e4 <LL_ADC_GetCommonPathInternalCh>
 80043a2:	f8c7 00c0 	str.w	r0, [r7, #192]	; 0xc0
 80043a6:	683b      	ldr	r3, [r7, #0]
 80043a8:	681b      	ldr	r3, [r3, #0]
 80043aa:	4a37      	ldr	r2, [pc, #220]	; (8004488 <HAL_ADCEx_InjectedConfigChannel+0x9a4>)
 80043ac:	4293      	cmp	r3, r2
 80043ae:	d004      	beq.n	80043ba <HAL_ADCEx_InjectedConfigChannel+0x8d6>
 80043b0:	683b      	ldr	r3, [r7, #0]
 80043b2:	681b      	ldr	r3, [r3, #0]
 80043b4:	4a35      	ldr	r2, [pc, #212]	; (800448c <HAL_ADCEx_InjectedConfigChannel+0x9a8>)
 80043b6:	4293      	cmp	r3, r2
 80043b8:	d127      	bne.n	800440a <HAL_ADCEx_InjectedConfigChannel+0x926>
 80043ba:	f8d7 30c0 	ldr.w	r3, [r7, #192]	; 0xc0
 80043be:	f403 0300 	and.w	r3, r3, #8388608	; 0x800000
 80043c2:	2b00      	cmp	r3, #0
 80043c4:	d121      	bne.n	800440a <HAL_ADCEx_InjectedConfigChannel+0x926>
 80043c6:	687b      	ldr	r3, [r7, #4]
 80043c8:	681b      	ldr	r3, [r3, #0]
 80043ca:	f1b3 4fa0 	cmp.w	r3, #1342177280	; 0x50000000
 80043ce:	d14d      	bne.n	800446c <HAL_ADCEx_InjectedConfigChannel+0x988>
 80043d0:	f8d7 30c0 	ldr.w	r3, [r7, #192]	; 0xc0
 80043d4:	f443 0300 	orr.w	r3, r3, #8388608	; 0x800000
 80043d8:	4619      	mov	r1, r3
 80043da:	482a      	ldr	r0, [pc, #168]	; (8004484 <HAL_ADCEx_InjectedConfigChannel+0x9a0>)
 80043dc:	f7fe feef 	bl	80031be <LL_ADC_SetCommonPathInternalCh>
 80043e0:	4b2b      	ldr	r3, [pc, #172]	; (8004490 <HAL_ADCEx_InjectedConfigChannel+0x9ac>)
 80043e2:	681b      	ldr	r3, [r3, #0]
 80043e4:	099b      	lsrs	r3, r3, #6
 80043e6:	4a2b      	ldr	r2, [pc, #172]	; (8004494 <HAL_ADCEx_InjectedConfigChannel+0x9b0>)
 80043e8:	fba2 2303 	umull	r2, r3, r2, r3
 80043ec:	099a      	lsrs	r2, r3, #6
 80043ee:	4613      	mov	r3, r2
 80043f0:	005b      	lsls	r3, r3, #1
 80043f2:	4413      	add	r3, r2
 80043f4:	009b      	lsls	r3, r3, #2
 80043f6:	3318      	adds	r3, #24
 80043f8:	60bb      	str	r3, [r7, #8]
 80043fa:	e002      	b.n	8004402 <HAL_ADCEx_InjectedConfigChannel+0x91e>
 80043fc:	68bb      	ldr	r3, [r7, #8]
 80043fe:	3b01      	subs	r3, #1
 8004400:	60bb      	str	r3, [r7, #8]
 8004402:	68bb      	ldr	r3, [r7, #8]
 8004404:	2b00      	cmp	r3, #0
 8004406:	d1f9      	bne.n	80043fc <HAL_ADCEx_InjectedConfigChannel+0x918>
 8004408:	e030      	b.n	800446c <HAL_ADCEx_InjectedConfigChannel+0x988>
 800440a:	683b      	ldr	r3, [r7, #0]
 800440c:	681b      	ldr	r3, [r3, #0]
 800440e:	4a22      	ldr	r2, [pc, #136]	; (8004498 <HAL_ADCEx_InjectedConfigChannel+0x9b4>)
 8004410:	4293      	cmp	r3, r2
 8004412:	d113      	bne.n	800443c <HAL_ADCEx_InjectedConfigChannel+0x958>
 8004414:	f8d7 30c0 	ldr.w	r3, [r7, #192]	; 0xc0
 8004418:	f003 7380 	and.w	r3, r3, #16777216	; 0x1000000
 800441c:	2b00      	cmp	r3, #0
 800441e:	d10d      	bne.n	800443c <HAL_ADCEx_InjectedConfigChannel+0x958>
 8004420:	687b      	ldr	r3, [r7, #4]
 8004422:	681b      	ldr	r3, [r3, #0]
 8004424:	4a1d      	ldr	r2, [pc, #116]	; (800449c <HAL_ADCEx_InjectedConfigChannel+0x9b8>)
 8004426:	4293      	cmp	r3, r2
 8004428:	d020      	beq.n	800446c <HAL_ADCEx_InjectedConfigChannel+0x988>
 800442a:	f8d7 30c0 	ldr.w	r3, [r7, #192]	; 0xc0
 800442e:	f043 7380 	orr.w	r3, r3, #16777216	; 0x1000000
 8004432:	4619      	mov	r1, r3
 8004434:	4813      	ldr	r0, [pc, #76]	; (8004484 <HAL_ADCEx_InjectedConfigChannel+0x9a0>)
 8004436:	f7fe fec2 	bl	80031be <LL_ADC_SetCommonPathInternalCh>
 800443a:	e017      	b.n	800446c <HAL_ADCEx_InjectedConfigChannel+0x988>
 800443c:	683b      	ldr	r3, [r7, #0]
 800443e:	681b      	ldr	r3, [r3, #0]
 8004440:	4a17      	ldr	r2, [pc, #92]	; (80044a0 <HAL_ADCEx_InjectedConfigChannel+0x9bc>)
 8004442:	4293      	cmp	r3, r2
 8004444:	d112      	bne.n	800446c <HAL_ADCEx_InjectedConfigChannel+0x988>
 8004446:	f8d7 30c0 	ldr.w	r3, [r7, #192]	; 0xc0
 800444a:	f403 0380 	and.w	r3, r3, #4194304	; 0x400000
 800444e:	2b00      	cmp	r3, #0
 8004450:	d10c      	bne.n	800446c <HAL_ADCEx_InjectedConfigChannel+0x988>
 8004452:	687b      	ldr	r3, [r7, #4]
 8004454:	681b      	ldr	r3, [r3, #0]
 8004456:	4a11      	ldr	r2, [pc, #68]	; (800449c <HAL_ADCEx_InjectedConfigChannel+0x9b8>)
 8004458:	4293      	cmp	r3, r2
 800445a:	d007      	beq.n	800446c <HAL_ADCEx_InjectedConfigChannel+0x988>
 800445c:	f8d7 30c0 	ldr.w	r3, [r7, #192]	; 0xc0
 8004460:	f443 0380 	orr.w	r3, r3, #4194304	; 0x400000
 8004464:	4619      	mov	r1, r3
 8004466:	4807      	ldr	r0, [pc, #28]	; (8004484 <HAL_ADCEx_InjectedConfigChannel+0x9a0>)
 8004468:	f7fe fea9 	bl	80031be <LL_ADC_SetCommonPathInternalCh>
 800446c:	687b      	ldr	r3, [r7, #4]
 800446e:	2200      	movs	r2, #0
 8004470:	f883 2058 	strb.w	r2, [r3, #88]	; 0x58
 8004474:	f897 30d7 	ldrb.w	r3, [r7, #215]	; 0xd7
 8004478:	4618      	mov	r0, r3
 800447a:	37d8      	adds	r7, #216	; 0xd8
 800447c:	46bd      	mov	sp, r7
 800447e:	bd80      	pop	{r7, pc}
 8004480:	80080000 	.word	0x80080000
 8004484:	50000300 	.word	0x50000300
 8004488:	c3210000 	.word	0xc3210000
 800448c:	90c00010 	.word	0x90c00010
 8004490:	20000008 	.word	0x20000008
 8004494:	053e2d63 	.word	0x053e2d63
 8004498:	c7520000 	.word	0xc7520000
 800449c:	50000100 	.word	0x50000100
 80044a0:	cb840000 	.word	0xcb840000

080044a4 <HAL_ADCEx_MultiModeConfigChannel>:
 80044a4:	b590      	push	{r4, r7, lr}
 80044a6:	b0a1      	sub	sp, #132	; 0x84
 80044a8:	af00      	add	r7, sp, #0
 80044aa:	6078      	str	r0, [r7, #4]
 80044ac:	6039      	str	r1, [r7, #0]
 80044ae:	2300      	movs	r3, #0
 80044b0:	f887 307f 	strb.w	r3, [r7, #127]	; 0x7f
 80044b4:	687b      	ldr	r3, [r7, #4]
 80044b6:	f893 3058 	ldrb.w	r3, [r3, #88]	; 0x58
 80044ba:	2b01      	cmp	r3, #1
 80044bc:	d101      	bne.n	80044c2 <HAL_ADCEx_MultiModeConfigChannel+0x1e>
 80044be:	2302      	movs	r3, #2
 80044c0:	e08b      	b.n	80045da <HAL_ADCEx_MultiModeConfigChannel+0x136>
 80044c2:	687b      	ldr	r3, [r7, #4]
 80044c4:	2201      	movs	r2, #1
 80044c6:	f883 2058 	strb.w	r2, [r3, #88]	; 0x58
 80044ca:	2300      	movs	r3, #0
 80044cc:	667b      	str	r3, [r7, #100]	; 0x64
 80044ce:	2300      	movs	r3, #0
 80044d0:	66bb      	str	r3, [r7, #104]	; 0x68
 80044d2:	687b      	ldr	r3, [r7, #4]
 80044d4:	681b      	ldr	r3, [r3, #0]
 80044d6:	f1b3 4fa0 	cmp.w	r3, #1342177280	; 0x50000000
 80044da:	d102      	bne.n	80044e2 <HAL_ADCEx_MultiModeConfigChannel+0x3e>
 80044dc:	4b41      	ldr	r3, [pc, #260]	; (80045e4 <HAL_ADCEx_MultiModeConfigChannel+0x140>)
 80044de:	60bb      	str	r3, [r7, #8]
 80044e0:	e001      	b.n	80044e6 <HAL_ADCEx_MultiModeConfigChannel+0x42>
 80044e2:	2300      	movs	r3, #0
 80044e4:	60bb      	str	r3, [r7, #8]
 80044e6:	68bb      	ldr	r3, [r7, #8]
 80044e8:	2b00      	cmp	r3, #0
 80044ea:	d10b      	bne.n	8004504 <HAL_ADCEx_MultiModeConfigChannel+0x60>
 80044ec:	687b      	ldr	r3, [r7, #4]
 80044ee:	6ddb      	ldr	r3, [r3, #92]	; 0x5c
 80044f0:	f043 0220 	orr.w	r2, r3, #32
 80044f4:	687b      	ldr	r3, [r7, #4]
 80044f6:	65da      	str	r2, [r3, #92]	; 0x5c
 80044f8:	687b      	ldr	r3, [r7, #4]
 80044fa:	2200      	movs	r2, #0
 80044fc:	f883 2058 	strb.w	r2, [r3, #88]	; 0x58
 8004500:	2301      	movs	r3, #1
 8004502:	e06a      	b.n	80045da <HAL_ADCEx_MultiModeConfigChannel+0x136>
 8004504:	68bb      	ldr	r3, [r7, #8]
 8004506:	4618      	mov	r0, r3
 8004508:	f7ff f802 	bl	8003510 <LL_ADC_REG_IsConversionOngoing>
 800450c:	67b8      	str	r0, [r7, #120]	; 0x78
 800450e:	687b      	ldr	r3, [r7, #4]
 8004510:	681b      	ldr	r3, [r3, #0]
 8004512:	4618      	mov	r0, r3
 8004514:	f7fe fffc 	bl	8003510 <LL_ADC_REG_IsConversionOngoing>
 8004518:	4603      	mov	r3, r0
 800451a:	2b00      	cmp	r3, #0
 800451c:	d14c      	bne.n	80045b8 <HAL_ADCEx_MultiModeConfigChannel+0x114>
 800451e:	6fbb      	ldr	r3, [r7, #120]	; 0x78
 8004520:	2b00      	cmp	r3, #0
 8004522:	d149      	bne.n	80045b8 <HAL_ADCEx_MultiModeConfigChannel+0x114>
 8004524:	4b30      	ldr	r3, [pc, #192]	; (80045e8 <HAL_ADCEx_MultiModeConfigChannel+0x144>)
 8004526:	677b      	str	r3, [r7, #116]	; 0x74
 8004528:	683b      	ldr	r3, [r7, #0]
 800452a:	681b      	ldr	r3, [r3, #0]
 800452c:	2b00      	cmp	r3, #0
 800452e:	d028      	beq.n	8004582 <HAL_ADCEx_MultiModeConfigChannel+0xde>
 8004530:	6f7b      	ldr	r3, [r7, #116]	; 0x74
 8004532:	689b      	ldr	r3, [r3, #8]
 8004534:	f423 4260 	bic.w	r2, r3, #57344	; 0xe000
 8004538:	683b      	ldr	r3, [r7, #0]
 800453a:	6859      	ldr	r1, [r3, #4]
 800453c:	687b      	ldr	r3, [r7, #4]
 800453e:	f893 3038 	ldrb.w	r3, [r3, #56]	; 0x38
 8004542:	035b      	lsls	r3, r3, #13
 8004544:	430b      	orrs	r3, r1
 8004546:	431a      	orrs	r2, r3
 8004548:	6f7b      	ldr	r3, [r7, #116]	; 0x74
 800454a:	609a      	str	r2, [r3, #8]
 800454c:	f04f 40a0 	mov.w	r0, #1342177280	; 0x50000000
 8004550:	f7fe ff8a 	bl	8003468 <LL_ADC_IsEnabled>
 8004554:	4604      	mov	r4, r0
 8004556:	4823      	ldr	r0, [pc, #140]	; (80045e4 <HAL_ADCEx_MultiModeConfigChannel+0x140>)
 8004558:	f7fe ff86 	bl	8003468 <LL_ADC_IsEnabled>
 800455c:	4603      	mov	r3, r0
 800455e:	4323      	orrs	r3, r4
 8004560:	2b00      	cmp	r3, #0
 8004562:	d133      	bne.n	80045cc <HAL_ADCEx_MultiModeConfigChannel+0x128>
 8004564:	6f7b      	ldr	r3, [r7, #116]	; 0x74
 8004566:	689b      	ldr	r3, [r3, #8]
 8004568:	f423 6371 	bic.w	r3, r3, #3856	; 0xf10
 800456c:	f023 030f 	bic.w	r3, r3, #15
 8004570:	683a      	ldr	r2, [r7, #0]
 8004572:	6811      	ldr	r1, [r2, #0]
 8004574:	683a      	ldr	r2, [r7, #0]
 8004576:	6892      	ldr	r2, [r2, #8]
 8004578:	430a      	orrs	r2, r1
 800457a:	431a      	orrs	r2, r3
 800457c:	6f7b      	ldr	r3, [r7, #116]	; 0x74
 800457e:	609a      	str	r2, [r3, #8]
 8004580:	e024      	b.n	80045cc <HAL_ADCEx_MultiModeConfigChannel+0x128>
 8004582:	6f7b      	ldr	r3, [r7, #116]	; 0x74
 8004584:	689b      	ldr	r3, [r3, #8]
 8004586:	f423 4260 	bic.w	r2, r3, #57344	; 0xe000
 800458a:	6f7b      	ldr	r3, [r7, #116]	; 0x74
 800458c:	609a      	str	r2, [r3, #8]
 800458e:	f04f 40a0 	mov.w	r0, #1342177280	; 0x50000000
 8004592:	f7fe ff69 	bl	8003468 <LL_ADC_IsEnabled>
 8004596:	4604      	mov	r4, r0
 8004598:	4812      	ldr	r0, [pc, #72]	; (80045e4 <HAL_ADCEx_MultiModeConfigChannel+0x140>)
 800459a:	f7fe ff65 	bl	8003468 <LL_ADC_IsEnabled>
 800459e:	4603      	mov	r3, r0
 80045a0:	4323      	orrs	r3, r4
 80045a2:	2b00      	cmp	r3, #0
 80045a4:	d112      	bne.n	80045cc <HAL_ADCEx_MultiModeConfigChannel+0x128>
 80045a6:	6f7b      	ldr	r3, [r7, #116]	; 0x74
 80045a8:	689b      	ldr	r3, [r3, #8]
 80045aa:	f423 6371 	bic.w	r3, r3, #3856	; 0xf10
 80045ae:	f023 030f 	bic.w	r3, r3, #15
 80045b2:	6f7a      	ldr	r2, [r7, #116]	; 0x74
 80045b4:	6093      	str	r3, [r2, #8]
 80045b6:	e009      	b.n	80045cc <HAL_ADCEx_MultiModeConfigChannel+0x128>
 80045b8:	687b      	ldr	r3, [r7, #4]
 80045ba:	6ddb      	ldr	r3, [r3, #92]	; 0x5c
 80045bc:	f043 0220 	orr.w	r2, r3, #32
 80045c0:	687b      	ldr	r3, [r7, #4]
 80045c2:	65da      	str	r2, [r3, #92]	; 0x5c
 80045c4:	2301      	movs	r3, #1
 80045c6:	f887 307f 	strb.w	r3, [r7, #127]	; 0x7f
 80045ca:	e000      	b.n	80045ce <HAL_ADCEx_MultiModeConfigChannel+0x12a>
 80045cc:	bf00      	nop
 80045ce:	687b      	ldr	r3, [r7, #4]
 80045d0:	2200      	movs	r2, #0
 80045d2:	f883 2058 	strb.w	r2, [r3, #88]	; 0x58
 80045d6:	f897 307f 	ldrb.w	r3, [r7, #127]	; 0x7f
 80045da:	4618      	mov	r0, r3
 80045dc:	3784      	adds	r7, #132	; 0x84
 80045de:	46bd      	mov	sp, r7
 80045e0:	bd90      	pop	{r4, r7, pc}
 80045e2:	bf00      	nop
 80045e4:	50000100 	.word	0x50000100
 80045e8:	50000300 	.word	0x50000300

080045ec <LL_EXTI_EnableIT_0_31>:
 80045ec:	b480      	push	{r7}
 80045ee:	b083      	sub	sp, #12
 80045f0:	af00      	add	r7, sp, #0
 80045f2:	6078      	str	r0, [r7, #4]
 80045f4:	4b05      	ldr	r3, [pc, #20]	; (800460c <LL_EXTI_EnableIT_0_31+0x20>)
 80045f6:	681a      	ldr	r2, [r3, #0]
 80045f8:	4904      	ldr	r1, [pc, #16]	; (800460c <LL_EXTI_EnableIT_0_31+0x20>)
 80045fa:	687b      	ldr	r3, [r7, #4]
 80045fc:	4313      	orrs	r3, r2
 80045fe:	600b      	str	r3, [r1, #0]
 8004600:	bf00      	nop
 8004602:	370c      	adds	r7, #12
 8004604:	46bd      	mov	sp, r7
 8004606:	f85d 7b04 	ldr.w	r7, [sp], #4
 800460a:	4770      	bx	lr
 800460c:	40010400 	.word	0x40010400

08004610 <LL_EXTI_DisableIT_0_31>:
 8004610:	b480      	push	{r7}
 8004612:	b083      	sub	sp, #12
 8004614:	af00      	add	r7, sp, #0
 8004616:	6078      	str	r0, [r7, #4]
 8004618:	4b06      	ldr	r3, [pc, #24]	; (8004634 <LL_EXTI_DisableIT_0_31+0x24>)
 800461a:	681a      	ldr	r2, [r3, #0]
 800461c:	687b      	ldr	r3, [r7, #4]
 800461e:	43db      	mvns	r3, r3
 8004620:	4904      	ldr	r1, [pc, #16]	; (8004634 <LL_EXTI_DisableIT_0_31+0x24>)
 8004622:	4013      	ands	r3, r2
 8004624:	600b      	str	r3, [r1, #0]
 8004626:	bf00      	nop
 8004628:	370c      	adds	r7, #12
 800462a:	46bd      	mov	sp, r7
 800462c:	f85d 7b04 	ldr.w	r7, [sp], #4
 8004630:	4770      	bx	lr
 8004632:	bf00      	nop
 8004634:	40010400 	.word	0x40010400

08004638 <LL_EXTI_EnableEvent_0_31>:
 8004638:	b480      	push	{r7}
 800463a:	b083      	sub	sp, #12
 800463c:	af00      	add	r7, sp, #0
 800463e:	6078      	str	r0, [r7, #4]
 8004640:	4b05      	ldr	r3, [pc, #20]	; (8004658 <LL_EXTI_EnableEvent_0_31+0x20>)
 8004642:	685a      	ldr	r2, [r3, #4]
 8004644:	4904      	ldr	r1, [pc, #16]	; (8004658 <LL_EXTI_EnableEvent_0_31+0x20>)
 8004646:	687b      	ldr	r3, [r7, #4]
 8004648:	4313      	orrs	r3, r2
 800464a:	604b      	str	r3, [r1, #4]
 800464c:	bf00      	nop
 800464e:	370c      	adds	r7, #12
 8004650:	46bd      	mov	sp, r7
 8004652:	f85d 7b04 	ldr.w	r7, [sp], #4
 8004656:	4770      	bx	lr
 8004658:	40010400 	.word	0x40010400

0800465c <LL_EXTI_DisableEvent_0_31>:
 800465c:	b480      	push	{r7}
 800465e:	b083      	sub	sp, #12
 8004660:	af00      	add	r7, sp, #0
 8004662:	6078      	str	r0, [r7, #4]
 8004664:	4b06      	ldr	r3, [pc, #24]	; (8004680 <LL_EXTI_DisableEvent_0_31+0x24>)
 8004666:	685a      	ldr	r2, [r3, #4]
 8004668:	687b      	ldr	r3, [r7, #4]
 800466a:	43db      	mvns	r3, r3
 800466c:	4904      	ldr	r1, [pc, #16]	; (8004680 <LL_EXTI_DisableEvent_0_31+0x24>)
 800466e:	4013      	ands	r3, r2
 8004670:	604b      	str	r3, [r1, #4]
 8004672:	bf00      	nop
 8004674:	370c      	adds	r7, #12
 8004676:	46bd      	mov	sp, r7
 8004678:	f85d 7b04 	ldr.w	r7, [sp], #4
 800467c:	4770      	bx	lr
 800467e:	bf00      	nop
 8004680:	40010400 	.word	0x40010400

08004684 <LL_EXTI_EnableRisingTrig_0_31>:
 8004684:	b480      	push	{r7}
 8004686:	b083      	sub	sp, #12
 8004688:	af00      	add	r7, sp, #0
 800468a:	6078      	str	r0, [r7, #4]
 800468c:	4b05      	ldr	r3, [pc, #20]	; (80046a4 <LL_EXTI_EnableRisingTrig_0_31+0x20>)
 800468e:	689a      	ldr	r2, [r3, #8]
 8004690:	4904      	ldr	r1, [pc, #16]	; (80046a4 <LL_EXTI_EnableRisingTrig_0_31+0x20>)
 8004692:	687b      	ldr	r3, [r7, #4]
 8004694:	4313      	orrs	r3, r2
 8004696:	608b      	str	r3, [r1, #8]
 8004698:	bf00      	nop
 800469a:	370c      	adds	r7, #12
 800469c:	46bd      	mov	sp, r7
 800469e:	f85d 7b04 	ldr.w	r7, [sp], #4
 80046a2:	4770      	bx	lr
 80046a4:	40010400 	.word	0x40010400

080046a8 <LL_EXTI_DisableRisingTrig_0_31>:
 80046a8:	b480      	push	{r7}
 80046aa:	b083      	sub	sp, #12
 80046ac:	af00      	add	r7, sp, #0
 80046ae:	6078      	str	r0, [r7, #4]
 80046b0:	4b06      	ldr	r3, [pc, #24]	; (80046cc <LL_EXTI_DisableRisingTrig_0_31+0x24>)
 80046b2:	689a      	ldr	r2, [r3, #8]
 80046b4:	687b      	ldr	r3, [r7, #4]
 80046b6:	43db      	mvns	r3, r3
 80046b8:	4904      	ldr	r1, [pc, #16]	; (80046cc <LL_EXTI_DisableRisingTrig_0_31+0x24>)
 80046ba:	4013      	ands	r3, r2
 80046bc:	608b      	str	r3, [r1, #8]
 80046be:	bf00      	nop
 80046c0:	370c      	adds	r7, #12
 80046c2:	46bd      	mov	sp, r7
 80046c4:	f85d 7b04 	ldr.w	r7, [sp], #4
 80046c8:	4770      	bx	lr
 80046ca:	bf00      	nop
 80046cc:	40010400 	.word	0x40010400

080046d0 <LL_EXTI_EnableFallingTrig_0_31>:
 80046d0:	b480      	push	{r7}
 80046d2:	b083      	sub	sp, #12
 80046d4:	af00      	add	r7, sp, #0
 80046d6:	6078      	str	r0, [r7, #4]
 80046d8:	4b05      	ldr	r3, [pc, #20]	; (80046f0 <LL_EXTI_EnableFallingTrig_0_31+0x20>)
 80046da:	68da      	ldr	r2, [r3, #12]
 80046dc:	4904      	ldr	r1, [pc, #16]	; (80046f0 <LL_EXTI_EnableFallingTrig_0_31+0x20>)
 80046de:	687b      	ldr	r3, [r7, #4]
 80046e0:	4313      	orrs	r3, r2
 80046e2:	60cb      	str	r3, [r1, #12]
 80046e4:	bf00      	nop
 80046e6:	370c      	adds	r7, #12
 80046e8:	46bd      	mov	sp, r7
 80046ea:	f85d 7b04 	ldr.w	r7, [sp], #4
 80046ee:	4770      	bx	lr
 80046f0:	40010400 	.word	0x40010400

080046f4 <LL_EXTI_DisableFallingTrig_0_31>:
 80046f4:	b480      	push	{r7}
 80046f6:	b083      	sub	sp, #12
 80046f8:	af00      	add	r7, sp, #0
 80046fa:	6078      	str	r0, [r7, #4]
 80046fc:	4b06      	ldr	r3, [pc, #24]	; (8004718 <LL_EXTI_DisableFallingTrig_0_31+0x24>)
 80046fe:	68da      	ldr	r2, [r3, #12]
 8004700:	687b      	ldr	r3, [r7, #4]
 8004702:	43db      	mvns	r3, r3
 8004704:	4904      	ldr	r1, [pc, #16]	; (8004718 <LL_EXTI_DisableFallingTrig_0_31+0x24>)
 8004706:	4013      	ands	r3, r2
 8004708:	60cb      	str	r3, [r1, #12]
 800470a:	bf00      	nop
 800470c:	370c      	adds	r7, #12
 800470e:	46bd      	mov	sp, r7
 8004710:	f85d 7b04 	ldr.w	r7, [sp], #4
 8004714:	4770      	bx	lr
 8004716:	bf00      	nop
 8004718:	40010400 	.word	0x40010400

0800471c <LL_EXTI_ClearFlag_0_31>:
 800471c:	b480      	push	{r7}
 800471e:	b083      	sub	sp, #12
 8004720:	af00      	add	r7, sp, #0
 8004722:	6078      	str	r0, [r7, #4]
 8004724:	4a04      	ldr	r2, [pc, #16]	; (8004738 <LL_EXTI_ClearFlag_0_31+0x1c>)
 8004726:	687b      	ldr	r3, [r7, #4]
 8004728:	6153      	str	r3, [r2, #20]
 800472a:	bf00      	nop
 800472c:	370c      	adds	r7, #12
 800472e:	46bd      	mov	sp, r7
 8004730:	f85d 7b04 	ldr.w	r7, [sp], #4
 8004734:	4770      	bx	lr
 8004736:	bf00      	nop
 8004738:	40010400 	.word	0x40010400

0800473c <HAL_COMP_Init>:
 800473c:	b580      	push	{r7, lr}
 800473e:	b088      	sub	sp, #32
 8004740:	af00      	add	r7, sp, #0
 8004742:	6078      	str	r0, [r7, #4]
 8004744:	2300      	movs	r3, #0
 8004746:	60fb      	str	r3, [r7, #12]
 8004748:	2300      	movs	r3, #0
 800474a:	77fb      	strb	r3, [r7, #31]
 800474c:	687b      	ldr	r3, [r7, #4]
 800474e:	2b00      	cmp	r3, #0
 8004750:	d102      	bne.n	8004758 <HAL_COMP_Init+0x1c>
 8004752:	2301      	movs	r3, #1
 8004754:	77fb      	strb	r3, [r7, #31]
 8004756:	e0bc      	b.n	80048d2 <HAL_COMP_Init+0x196>
 8004758:	687b      	ldr	r3, [r7, #4]
 800475a:	681b      	ldr	r3, [r3, #0]
 800475c:	681b      	ldr	r3, [r3, #0]
 800475e:	f003 4300 	and.w	r3, r3, #2147483648	; 0x80000000
 8004762:	f1b3 4f00 	cmp.w	r3, #2147483648	; 0x80000000
 8004766:	d102      	bne.n	800476e <HAL_COMP_Init+0x32>
 8004768:	2301      	movs	r3, #1
 800476a:	77fb      	strb	r3, [r7, #31]
 800476c:	e0b1      	b.n	80048d2 <HAL_COMP_Init+0x196>
 800476e:	687b      	ldr	r3, [r7, #4]
 8004770:	7f5b      	ldrb	r3, [r3, #29]
 8004772:	b2db      	uxtb	r3, r3
 8004774:	2b00      	cmp	r3, #0
 8004776:	d108      	bne.n	800478a <HAL_COMP_Init+0x4e>
 8004778:	687b      	ldr	r3, [r7, #4]
 800477a:	2200      	movs	r2, #0
 800477c:	771a      	strb	r2, [r3, #28]
 800477e:	687b      	ldr	r3, [r7, #4]
 8004780:	2200      	movs	r2, #0
 8004782:	621a      	str	r2, [r3, #32]
 8004784:	6878      	ldr	r0, [r7, #4]
 8004786:	f7fd f933 	bl	80019f0 <HAL_COMP_MspInit>
 800478a:	687b      	ldr	r3, [r7, #4]
 800478c:	681b      	ldr	r3, [r3, #0]
 800478e:	681b      	ldr	r3, [r3, #0]
 8004790:	f403 0300 	and.w	r3, r3, #8388608	; 0x800000
 8004794:	61bb      	str	r3, [r7, #24]
 8004796:	687b      	ldr	r3, [r7, #4]
 8004798:	689a      	ldr	r2, [r3, #8]
 800479a:	687b      	ldr	r3, [r7, #4]
 800479c:	685b      	ldr	r3, [r3, #4]
 800479e:	431a      	orrs	r2, r3
 80047a0:	687b      	ldr	r3, [r7, #4]
 80047a2:	695b      	ldr	r3, [r3, #20]
 80047a4:	431a      	orrs	r2, r3
 80047a6:	687b      	ldr	r3, [r7, #4]
 80047a8:	68db      	ldr	r3, [r3, #12]
 80047aa:	431a      	orrs	r2, r3
 80047ac:	687b      	ldr	r3, [r7, #4]
 80047ae:	691b      	ldr	r3, [r3, #16]
 80047b0:	4313      	orrs	r3, r2
 80047b2:	617b      	str	r3, [r7, #20]
 80047b4:	687b      	ldr	r3, [r7, #4]
 80047b6:	681b      	ldr	r3, [r3, #0]
 80047b8:	681a      	ldr	r2, [r3, #0]
 80047ba:	4b48      	ldr	r3, [pc, #288]	; (80048dc <HAL_COMP_Init+0x1a0>)
 80047bc:	4013      	ands	r3, r2
 80047be:	687a      	ldr	r2, [r7, #4]
 80047c0:	6812      	ldr	r2, [r2, #0]
 80047c2:	6979      	ldr	r1, [r7, #20]
 80047c4:	430b      	orrs	r3, r1
 80047c6:	6013      	str	r3, [r2, #0]
 80047c8:	687b      	ldr	r3, [r7, #4]
 80047ca:	681b      	ldr	r3, [r3, #0]
 80047cc:	681b      	ldr	r3, [r3, #0]
 80047ce:	f403 0300 	and.w	r3, r3, #8388608	; 0x800000
 80047d2:	2b00      	cmp	r3, #0
 80047d4:	d016      	beq.n	8004804 <HAL_COMP_Init+0xc8>
 80047d6:	69bb      	ldr	r3, [r7, #24]
 80047d8:	2b00      	cmp	r3, #0
 80047da:	d113      	bne.n	8004804 <HAL_COMP_Init+0xc8>
 80047dc:	4b40      	ldr	r3, [pc, #256]	; (80048e0 <HAL_COMP_Init+0x1a4>)
 80047de:	681b      	ldr	r3, [r3, #0]
 80047e0:	099b      	lsrs	r3, r3, #6
 80047e2:	4a40      	ldr	r2, [pc, #256]	; (80048e4 <HAL_COMP_Init+0x1a8>)
 80047e4:	fba2 2303 	umull	r2, r3, r2, r3
 80047e8:	099b      	lsrs	r3, r3, #6
 80047ea:	1c5a      	adds	r2, r3, #1
 80047ec:	4613      	mov	r3, r2
 80047ee:	009b      	lsls	r3, r3, #2
 80047f0:	4413      	add	r3, r2
 80047f2:	009b      	lsls	r3, r3, #2
 80047f4:	60fb      	str	r3, [r7, #12]
 80047f6:	e002      	b.n	80047fe <HAL_COMP_Init+0xc2>
 80047f8:	68fb      	ldr	r3, [r7, #12]
 80047fa:	3b01      	subs	r3, #1
 80047fc:	60fb      	str	r3, [r7, #12]
 80047fe:	68fb      	ldr	r3, [r7, #12]
 8004800:	2b00      	cmp	r3, #0
 8004802:	d1f9      	bne.n	80047f8 <HAL_COMP_Init+0xbc>
 8004804:	687b      	ldr	r3, [r7, #4]
 8004806:	681b      	ldr	r3, [r3, #0]
 8004808:	4a37      	ldr	r2, [pc, #220]	; (80048e8 <HAL_COMP_Init+0x1ac>)
 800480a:	4293      	cmp	r3, r2
 800480c:	d012      	beq.n	8004834 <HAL_COMP_Init+0xf8>
 800480e:	687b      	ldr	r3, [r7, #4]
 8004810:	681b      	ldr	r3, [r3, #0]
 8004812:	4a36      	ldr	r2, [pc, #216]	; (80048ec <HAL_COMP_Init+0x1b0>)
 8004814:	4293      	cmp	r3, r2
 8004816:	d00a      	beq.n	800482e <HAL_COMP_Init+0xf2>
 8004818:	687b      	ldr	r3, [r7, #4]
 800481a:	681b      	ldr	r3, [r3, #0]
 800481c:	4a34      	ldr	r2, [pc, #208]	; (80048f0 <HAL_COMP_Init+0x1b4>)
 800481e:	4293      	cmp	r3, r2
 8004820:	d102      	bne.n	8004828 <HAL_COMP_Init+0xec>
 8004822:	f04f 5300 	mov.w	r3, #536870912	; 0x20000000
 8004826:	e007      	b.n	8004838 <HAL_COMP_Init+0xfc>
 8004828:	f04f 4380 	mov.w	r3, #1073741824	; 0x40000000
 800482c:	e004      	b.n	8004838 <HAL_COMP_Init+0xfc>
 800482e:	f44f 0380 	mov.w	r3, #4194304	; 0x400000
 8004832:	e001      	b.n	8004838 <HAL_COMP_Init+0xfc>
 8004834:	f44f 1300 	mov.w	r3, #2097152	; 0x200000
 8004838:	613b      	str	r3, [r7, #16]
 800483a:	687b      	ldr	r3, [r7, #4]
 800483c:	699b      	ldr	r3, [r3, #24]
 800483e:	f003 0303 	and.w	r3, r3, #3
 8004842:	2b00      	cmp	r3, #0
 8004844:	d037      	beq.n	80048b6 <HAL_COMP_Init+0x17a>
 8004846:	687b      	ldr	r3, [r7, #4]
 8004848:	699b      	ldr	r3, [r3, #24]
 800484a:	f003 0310 	and.w	r3, r3, #16
 800484e:	2b00      	cmp	r3, #0
 8004850:	d003      	beq.n	800485a <HAL_COMP_Init+0x11e>
 8004852:	6938      	ldr	r0, [r7, #16]
 8004854:	f7ff ff16 	bl	8004684 <LL_EXTI_EnableRisingTrig_0_31>
 8004858:	e002      	b.n	8004860 <HAL_COMP_Init+0x124>
 800485a:	6938      	ldr	r0, [r7, #16]
 800485c:	f7ff ff24 	bl	80046a8 <LL_EXTI_DisableRisingTrig_0_31>
 8004860:	687b      	ldr	r3, [r7, #4]
 8004862:	699b      	ldr	r3, [r3, #24]
 8004864:	f003 0320 	and.w	r3, r3, #32
 8004868:	2b00      	cmp	r3, #0
 800486a:	d003      	beq.n	8004874 <HAL_COMP_Init+0x138>
 800486c:	6938      	ldr	r0, [r7, #16]
 800486e:	f7ff ff2f 	bl	80046d0 <LL_EXTI_EnableFallingTrig_0_31>
 8004872:	e002      	b.n	800487a <HAL_COMP_Init+0x13e>
 8004874:	6938      	ldr	r0, [r7, #16]
 8004876:	f7ff ff3d 	bl	80046f4 <LL_EXTI_DisableFallingTrig_0_31>
 800487a:	6938      	ldr	r0, [r7, #16]
 800487c:	f7ff ff4e 	bl	800471c <LL_EXTI_ClearFlag_0_31>
 8004880:	687b      	ldr	r3, [r7, #4]
 8004882:	699b      	ldr	r3, [r3, #24]
 8004884:	f003 0302 	and.w	r3, r3, #2
 8004888:	2b00      	cmp	r3, #0
 800488a:	d003      	beq.n	8004894 <HAL_COMP_Init+0x158>
 800488c:	6938      	ldr	r0, [r7, #16]
 800488e:	f7ff fed3 	bl	8004638 <LL_EXTI_EnableEvent_0_31>
 8004892:	e002      	b.n	800489a <HAL_COMP_Init+0x15e>
 8004894:	6938      	ldr	r0, [r7, #16]
 8004896:	f7ff fee1 	bl	800465c <LL_EXTI_DisableEvent_0_31>
 800489a:	687b      	ldr	r3, [r7, #4]
 800489c:	699b      	ldr	r3, [r3, #24]
 800489e:	f003 0301 	and.w	r3, r3, #1
 80048a2:	2b00      	cmp	r3, #0
 80048a4:	d003      	beq.n	80048ae <HAL_COMP_Init+0x172>
 80048a6:	6938      	ldr	r0, [r7, #16]
 80048a8:	f7ff fea0 	bl	80045ec <LL_EXTI_EnableIT_0_31>
 80048ac:	e009      	b.n	80048c2 <HAL_COMP_Init+0x186>
 80048ae:	6938      	ldr	r0, [r7, #16]
 80048b0:	f7ff feae 	bl	8004610 <LL_EXTI_DisableIT_0_31>
 80048b4:	e005      	b.n	80048c2 <HAL_COMP_Init+0x186>
 80048b6:	6938      	ldr	r0, [r7, #16]
 80048b8:	f7ff fed0 	bl	800465c <LL_EXTI_DisableEvent_0_31>
 80048bc:	6938      	ldr	r0, [r7, #16]
 80048be:	f7ff fea7 	bl	8004610 <LL_EXTI_DisableIT_0_31>
 80048c2:	687b      	ldr	r3, [r7, #4]
 80048c4:	7f5b      	ldrb	r3, [r3, #29]
 80048c6:	b2db      	uxtb	r3, r3
 80048c8:	2b00      	cmp	r3, #0
 80048ca:	d102      	bne.n	80048d2 <HAL_COMP_Init+0x196>
 80048cc:	687b      	ldr	r3, [r7, #4]
 80048ce:	2201      	movs	r2, #1
 80048d0:	775a      	strb	r2, [r3, #29]
 80048d2:	7ffb      	ldrb	r3, [r7, #31]
 80048d4:	4618      	mov	r0, r3
 80048d6:	3720      	adds	r7, #32
 80048d8:	46bd      	mov	sp, r7
 80048da:	bd80      	pop	{r7, pc}
 80048dc:	ff007e0f 	.word	0xff007e0f
 80048e0:	20000008 	.word	0x20000008
 80048e4:	053e2d63 	.word	0x053e2d63
 80048e8:	40010200 	.word	0x40010200
 80048ec:	40010204 	.word	0x40010204
 80048f0:	40010208 	.word	0x40010208

080048f4 <HAL_COMP_Start>:
 80048f4:	b480      	push	{r7}
 80048f6:	b085      	sub	sp, #20
 80048f8:	af00      	add	r7, sp, #0
 80048fa:	6078      	str	r0, [r7, #4]
 80048fc:	2300      	movs	r3, #0
 80048fe:	60bb      	str	r3, [r7, #8]
 8004900:	2300      	movs	r3, #0
 8004902:	73fb      	strb	r3, [r7, #15]
 8004904:	687b      	ldr	r3, [r7, #4]
 8004906:	2b00      	cmp	r3, #0
 8004908:	d102      	bne.n	8004910 <HAL_COMP_Start+0x1c>
 800490a:	2301      	movs	r3, #1
 800490c:	73fb      	strb	r3, [r7, #15]
 800490e:	e02e      	b.n	800496e <HAL_COMP_Start+0x7a>
 8004910:	687b      	ldr	r3, [r7, #4]
 8004912:	681b      	ldr	r3, [r3, #0]
 8004914:	681b      	ldr	r3, [r3, #0]
 8004916:	f003 4300 	and.w	r3, r3, #2147483648	; 0x80000000
 800491a:	f1b3 4f00 	cmp.w	r3, #2147483648	; 0x80000000
 800491e:	d102      	bne.n	8004926 <HAL_COMP_Start+0x32>
 8004920:	2301      	movs	r3, #1
 8004922:	73fb      	strb	r3, [r7, #15]
 8004924:	e023      	b.n	800496e <HAL_COMP_Start+0x7a>
 8004926:	687b      	ldr	r3, [r7, #4]
 8004928:	7f5b      	ldrb	r3, [r3, #29]
 800492a:	b2db      	uxtb	r3, r3
 800492c:	2b01      	cmp	r3, #1
 800492e:	d11c      	bne.n	800496a <HAL_COMP_Start+0x76>
 8004930:	687b      	ldr	r3, [r7, #4]
 8004932:	681b      	ldr	r3, [r3, #0]
 8004934:	681a      	ldr	r2, [r3, #0]
 8004936:	687b      	ldr	r3, [r7, #4]
 8004938:	681b      	ldr	r3, [r3, #0]
 800493a:	f042 0201 	orr.w	r2, r2, #1
 800493e:	601a      	str	r2, [r3, #0]
 8004940:	687b      	ldr	r3, [r7, #4]
 8004942:	2202      	movs	r2, #2
 8004944:	775a      	strb	r2, [r3, #29]
 8004946:	4b0d      	ldr	r3, [pc, #52]	; (800497c <HAL_COMP_Start+0x88>)
 8004948:	681b      	ldr	r3, [r3, #0]
 800494a:	4a0d      	ldr	r2, [pc, #52]	; (8004980 <HAL_COMP_Start+0x8c>)
 800494c:	fba2 2303 	umull	r2, r3, r2, r3
 8004950:	0cda      	lsrs	r2, r3, #19
 8004952:	4613      	mov	r3, r2
 8004954:	009b      	lsls	r3, r3, #2
 8004956:	4413      	add	r3, r2
 8004958:	60bb      	str	r3, [r7, #8]
 800495a:	e002      	b.n	8004962 <HAL_COMP_Start+0x6e>
 800495c:	68bb      	ldr	r3, [r7, #8]
 800495e:	3b01      	subs	r3, #1
 8004960:	60bb      	str	r3, [r7, #8]
 8004962:	68bb      	ldr	r3, [r7, #8]
 8004964:	2b00      	cmp	r3, #0
 8004966:	d1f9      	bne.n	800495c <HAL_COMP_Start+0x68>
 8004968:	e001      	b.n	800496e <HAL_COMP_Start+0x7a>
 800496a:	2301      	movs	r3, #1
 800496c:	73fb      	strb	r3, [r7, #15]
 800496e:	7bfb      	ldrb	r3, [r7, #15]
 8004970:	4618      	mov	r0, r3
 8004972:	3714      	adds	r7, #20
 8004974:	46bd      	mov	sp, r7
 8004976:	f85d 7b04 	ldr.w	r7, [sp], #4
 800497a:	4770      	bx	lr
 800497c:	20000008 	.word	0x20000008
 8004980:	431bde83 	.word	0x431bde83

08004984 <__NVIC_SetPriorityGrouping>:
 8004984:	b480      	push	{r7}
 8004986:	b085      	sub	sp, #20
 8004988:	af00      	add	r7, sp, #0
 800498a:	6078      	str	r0, [r7, #4]
 800498c:	687b      	ldr	r3, [r7, #4]
 800498e:	f003 0307 	and.w	r3, r3, #7
 8004992:	60fb      	str	r3, [r7, #12]
 8004994:	4b0c      	ldr	r3, [pc, #48]	; (80049c8 <__NVIC_SetPriorityGrouping+0x44>)
 8004996:	68db      	ldr	r3, [r3, #12]
 8004998:	60bb      	str	r3, [r7, #8]
 800499a:	68ba      	ldr	r2, [r7, #8]
 800499c:	f64f 03ff 	movw	r3, #63743	; 0xf8ff
 80049a0:	4013      	ands	r3, r2
 80049a2:	60bb      	str	r3, [r7, #8]
 80049a4:	68fb      	ldr	r3, [r7, #12]
 80049a6:	021a      	lsls	r2, r3, #8
 80049a8:	68bb      	ldr	r3, [r7, #8]
 80049aa:	4313      	orrs	r3, r2
 80049ac:	f043 63bf 	orr.w	r3, r3, #100139008	; 0x5f80000
 80049b0:	f443 3300 	orr.w	r3, r3, #131072	; 0x20000
 80049b4:	60bb      	str	r3, [r7, #8]
 80049b6:	4a04      	ldr	r2, [pc, #16]	; (80049c8 <__NVIC_SetPriorityGrouping+0x44>)
 80049b8:	68bb      	ldr	r3, [r7, #8]
 80049ba:	60d3      	str	r3, [r2, #12]
 80049bc:	bf00      	nop
 80049be:	3714      	adds	r7, #20
 80049c0:	46bd      	mov	sp, r7
 80049c2:	f85d 7b04 	ldr.w	r7, [sp], #4
 80049c6:	4770      	bx	lr
 80049c8:	e000ed00 	.word	0xe000ed00

080049cc <__NVIC_GetPriorityGrouping>:
 80049cc:	b480      	push	{r7}
 80049ce:	af00      	add	r7, sp, #0
 80049d0:	4b04      	ldr	r3, [pc, #16]	; (80049e4 <__NVIC_GetPriorityGrouping+0x18>)
 80049d2:	68db      	ldr	r3, [r3, #12]
 80049d4:	0a1b      	lsrs	r3, r3, #8
 80049d6:	f003 0307 	and.w	r3, r3, #7
 80049da:	4618      	mov	r0, r3
 80049dc:	46bd      	mov	sp, r7
 80049de:	f85d 7b04 	ldr.w	r7, [sp], #4
 80049e2:	4770      	bx	lr
 80049e4:	e000ed00 	.word	0xe000ed00

080049e8 <__NVIC_EnableIRQ>:
 80049e8:	b480      	push	{r7}
 80049ea:	b083      	sub	sp, #12
 80049ec:	af00      	add	r7, sp, #0
 80049ee:	4603      	mov	r3, r0
 80049f0:	71fb      	strb	r3, [r7, #7]
 80049f2:	f997 3007 	ldrsb.w	r3, [r7, #7]
 80049f6:	2b00      	cmp	r3, #0
 80049f8:	db0b      	blt.n	8004a12 <__NVIC_EnableIRQ+0x2a>
 80049fa:	79fb      	ldrb	r3, [r7, #7]
 80049fc:	f003 021f 	and.w	r2, r3, #31
 8004a00:	4907      	ldr	r1, [pc, #28]	; (8004a20 <__NVIC_EnableIRQ+0x38>)
 8004a02:	f997 3007 	ldrsb.w	r3, [r7, #7]
 8004a06:	095b      	lsrs	r3, r3, #5
 8004a08:	2001      	movs	r0, #1
 8004a0a:	fa00 f202 	lsl.w	r2, r0, r2
 8004a0e:	f841 2023 	str.w	r2, [r1, r3, lsl #2]
 8004a12:	bf00      	nop
 8004a14:	370c      	adds	r7, #12
 8004a16:	46bd      	mov	sp, r7
 8004a18:	f85d 7b04 	ldr.w	r7, [sp], #4
 8004a1c:	4770      	bx	lr
 8004a1e:	bf00      	nop
 8004a20:	e000e100 	.word	0xe000e100

08004a24 <__NVIC_SetPriority>:
 8004a24:	b480      	push	{r7}
 8004a26:	b083      	sub	sp, #12
 8004a28:	af00      	add	r7, sp, #0
 8004a2a:	4603      	mov	r3, r0
 8004a2c:	6039      	str	r1, [r7, #0]
 8004a2e:	71fb      	strb	r3, [r7, #7]
 8004a30:	f997 3007 	ldrsb.w	r3, [r7, #7]
 8004a34:	2b00      	cmp	r3, #0
 8004a36:	db0a      	blt.n	8004a4e <__NVIC_SetPriority+0x2a>
 8004a38:	683b      	ldr	r3, [r7, #0]
 8004a3a:	b2da      	uxtb	r2, r3
 8004a3c:	490c      	ldr	r1, [pc, #48]	; (8004a70 <__NVIC_SetPriority+0x4c>)
 8004a3e:	f997 3007 	ldrsb.w	r3, [r7, #7]
 8004a42:	0112      	lsls	r2, r2, #4
 8004a44:	b2d2      	uxtb	r2, r2
 8004a46:	440b      	add	r3, r1
 8004a48:	f883 2300 	strb.w	r2, [r3, #768]	; 0x300
 8004a4c:	e00a      	b.n	8004a64 <__NVIC_SetPriority+0x40>
 8004a4e:	683b      	ldr	r3, [r7, #0]
 8004a50:	b2da      	uxtb	r2, r3
 8004a52:	4908      	ldr	r1, [pc, #32]	; (8004a74 <__NVIC_SetPriority+0x50>)
 8004a54:	79fb      	ldrb	r3, [r7, #7]
 8004a56:	f003 030f 	and.w	r3, r3, #15
 8004a5a:	3b04      	subs	r3, #4
 8004a5c:	0112      	lsls	r2, r2, #4
 8004a5e:	b2d2      	uxtb	r2, r2
 8004a60:	440b      	add	r3, r1
 8004a62:	761a      	strb	r2, [r3, #24]
 8004a64:	bf00      	nop
 8004a66:	370c      	adds	r7, #12
 8004a68:	46bd      	mov	sp, r7
 8004a6a:	f85d 7b04 	ldr.w	r7, [sp], #4
 8004a6e:	4770      	bx	lr
 8004a70:	e000e100 	.word	0xe000e100
 8004a74:	e000ed00 	.word	0xe000ed00

08004a78 <NVIC_EncodePriority>:
 8004a78:	b480      	push	{r7}
 8004a7a:	b089      	sub	sp, #36	; 0x24
 8004a7c:	af00      	add	r7, sp, #0
 8004a7e:	60f8      	str	r0, [r7, #12]
 8004a80:	60b9      	str	r1, [r7, #8]
 8004a82:	607a      	str	r2, [r7, #4]
 8004a84:	68fb      	ldr	r3, [r7, #12]
 8004a86:	f003 0307 	and.w	r3, r3, #7
 8004a8a:	61fb      	str	r3, [r7, #28]
 8004a8c:	69fb      	ldr	r3, [r7, #28]
 8004a8e:	f1c3 0307 	rsb	r3, r3, #7
 8004a92:	2b04      	cmp	r3, #4
 8004a94:	bf28      	it	cs
 8004a96:	2304      	movcs	r3, #4
 8004a98:	61bb      	str	r3, [r7, #24]
 8004a9a:	69fb      	ldr	r3, [r7, #28]
 8004a9c:	3304      	adds	r3, #4
 8004a9e:	2b06      	cmp	r3, #6
 8004aa0:	d902      	bls.n	8004aa8 <NVIC_EncodePriority+0x30>
 8004aa2:	69fb      	ldr	r3, [r7, #28]
 8004aa4:	3b03      	subs	r3, #3
 8004aa6:	e000      	b.n	8004aaa <NVIC_EncodePriority+0x32>
 8004aa8:	2300      	movs	r3, #0
 8004aaa:	617b      	str	r3, [r7, #20]
 8004aac:	f04f 32ff 	mov.w	r2, #4294967295
 8004ab0:	69bb      	ldr	r3, [r7, #24]
 8004ab2:	fa02 f303 	lsl.w	r3, r2, r3
 8004ab6:	43da      	mvns	r2, r3
 8004ab8:	68bb      	ldr	r3, [r7, #8]
 8004aba:	401a      	ands	r2, r3
 8004abc:	697b      	ldr	r3, [r7, #20]
 8004abe:	409a      	lsls	r2, r3
 8004ac0:	f04f 31ff 	mov.w	r1, #4294967295
 8004ac4:	697b      	ldr	r3, [r7, #20]
 8004ac6:	fa01 f303 	lsl.w	r3, r1, r3
 8004aca:	43d9      	mvns	r1, r3
 8004acc:	687b      	ldr	r3, [r7, #4]
 8004ace:	400b      	ands	r3, r1
 8004ad0:	4313      	orrs	r3, r2
 8004ad2:	4618      	mov	r0, r3
 8004ad4:	3724      	adds	r7, #36	; 0x24
 8004ad6:	46bd      	mov	sp, r7
 8004ad8:	f85d 7b04 	ldr.w	r7, [sp], #4
 8004adc:	4770      	bx	lr
	...

08004ae0 <SysTick_Config>:
 8004ae0:	b580      	push	{r7, lr}
 8004ae2:	b082      	sub	sp, #8
 8004ae4:	af00      	add	r7, sp, #0
 8004ae6:	6078      	str	r0, [r7, #4]
 8004ae8:	687b      	ldr	r3, [r7, #4]
 8004aea:	3b01      	subs	r3, #1
 8004aec:	f1b3 7f80 	cmp.w	r3, #16777216	; 0x1000000
 8004af0:	d301      	bcc.n	8004af6 <SysTick_Config+0x16>
 8004af2:	2301      	movs	r3, #1
 8004af4:	e00f      	b.n	8004b16 <SysTick_Config+0x36>
 8004af6:	4a0a      	ldr	r2, [pc, #40]	; (8004b20 <SysTick_Config+0x40>)
 8004af8:	687b      	ldr	r3, [r7, #4]
 8004afa:	3b01      	subs	r3, #1
 8004afc:	6053      	str	r3, [r2, #4]
 8004afe:	210f      	movs	r1, #15
 8004b00:	f04f 30ff 	mov.w	r0, #4294967295
 8004b04:	f7ff ff8e 	bl	8004a24 <__NVIC_SetPriority>
 8004b08:	4b05      	ldr	r3, [pc, #20]	; (8004b20 <SysTick_Config+0x40>)
 8004b0a:	2200      	movs	r2, #0
 8004b0c:	609a      	str	r2, [r3, #8]
 8004b0e:	4b04      	ldr	r3, [pc, #16]	; (8004b20 <SysTick_Config+0x40>)
 8004b10:	2207      	movs	r2, #7
 8004b12:	601a      	str	r2, [r3, #0]
 8004b14:	2300      	movs	r3, #0
 8004b16:	4618      	mov	r0, r3
 8004b18:	3708      	adds	r7, #8
 8004b1a:	46bd      	mov	sp, r7
 8004b1c:	bd80      	pop	{r7, pc}
 8004b1e:	bf00      	nop
 8004b20:	e000e010 	.word	0xe000e010

08004b24 <HAL_NVIC_SetPriorityGrouping>:
 8004b24:	b580      	push	{r7, lr}
 8004b26:	b082      	sub	sp, #8
 8004b28:	af00      	add	r7, sp, #0
 8004b2a:	6078      	str	r0, [r7, #4]
 8004b2c:	6878      	ldr	r0, [r7, #4]
 8004b2e:	f7ff ff29 	bl	8004984 <__NVIC_SetPriorityGrouping>
 8004b32:	bf00      	nop
 8004b34:	3708      	adds	r7, #8
 8004b36:	46bd      	mov	sp, r7
 8004b38:	bd80      	pop	{r7, pc}

08004b3a <HAL_NVIC_SetPriority>:
 8004b3a:	b580      	push	{r7, lr}
 8004b3c:	b086      	sub	sp, #24
 8004b3e:	af00      	add	r7, sp, #0
 8004b40:	4603      	mov	r3, r0
 8004b42:	60b9      	str	r1, [r7, #8]
 8004b44:	607a      	str	r2, [r7, #4]
 8004b46:	73fb      	strb	r3, [r7, #15]
 8004b48:	f7ff ff40 	bl	80049cc <__NVIC_GetPriorityGrouping>
 8004b4c:	6178      	str	r0, [r7, #20]
 8004b4e:	687a      	ldr	r2, [r7, #4]
 8004b50:	68b9      	ldr	r1, [r7, #8]
 8004b52:	6978      	ldr	r0, [r7, #20]
 8004b54:	f7ff ff90 	bl	8004a78 <NVIC_EncodePriority>
 8004b58:	4602      	mov	r2, r0
 8004b5a:	f997 300f 	ldrsb.w	r3, [r7, #15]
 8004b5e:	4611      	mov	r1, r2
 8004b60:	4618      	mov	r0, r3
 8004b62:	f7ff ff5f 	bl	8004a24 <__NVIC_SetPriority>
 8004b66:	bf00      	nop
 8004b68:	3718      	adds	r7, #24
 8004b6a:	46bd      	mov	sp, r7
 8004b6c:	bd80      	pop	{r7, pc}

08004b6e <HAL_NVIC_EnableIRQ>:
 8004b6e:	b580      	push	{r7, lr}
 8004b70:	b082      	sub	sp, #8
 8004b72:	af00      	add	r7, sp, #0
 8004b74:	4603      	mov	r3, r0
 8004b76:	71fb      	strb	r3, [r7, #7]
 8004b78:	f997 3007 	ldrsb.w	r3, [r7, #7]
 8004b7c:	4618      	mov	r0, r3
 8004b7e:	f7ff ff33 	bl	80049e8 <__NVIC_EnableIRQ>
 8004b82:	bf00      	nop
 8004b84:	3708      	adds	r7, #8
 8004b86:	46bd      	mov	sp, r7
 8004b88:	bd80      	pop	{r7, pc}

08004b8a <HAL_SYSTICK_Config>:
 8004b8a:	b580      	push	{r7, lr}
 8004b8c:	b082      	sub	sp, #8
 8004b8e:	af00      	add	r7, sp, #0
 8004b90:	6078      	str	r0, [r7, #4]
 8004b92:	6878      	ldr	r0, [r7, #4]
 8004b94:	f7ff ffa4 	bl	8004ae0 <SysTick_Config>
 8004b98:	4603      	mov	r3, r0
 8004b9a:	4618      	mov	r0, r3
 8004b9c:	3708      	adds	r7, #8
 8004b9e:	46bd      	mov	sp, r7
 8004ba0:	bd80      	pop	{r7, pc}

08004ba2 <HAL_DAC_Init>:
 8004ba2:	b580      	push	{r7, lr}
 8004ba4:	b082      	sub	sp, #8
 8004ba6:	af00      	add	r7, sp, #0
 8004ba8:	6078      	str	r0, [r7, #4]
 8004baa:	687b      	ldr	r3, [r7, #4]
 8004bac:	2b00      	cmp	r3, #0
 8004bae:	d101      	bne.n	8004bb4 <HAL_DAC_Init+0x12>
 8004bb0:	2301      	movs	r3, #1
 8004bb2:	e014      	b.n	8004bde <HAL_DAC_Init+0x3c>
 8004bb4:	687b      	ldr	r3, [r7, #4]
 8004bb6:	791b      	ldrb	r3, [r3, #4]
 8004bb8:	b2db      	uxtb	r3, r3
 8004bba:	2b00      	cmp	r3, #0
 8004bbc:	d105      	bne.n	8004bca <HAL_DAC_Init+0x28>
 8004bbe:	687b      	ldr	r3, [r7, #4]
 8004bc0:	2200      	movs	r2, #0
 8004bc2:	715a      	strb	r2, [r3, #5]
 8004bc4:	6878      	ldr	r0, [r7, #4]
 8004bc6:	f7fc ff89 	bl	8001adc <HAL_DAC_MspInit>
 8004bca:	687b      	ldr	r3, [r7, #4]
 8004bcc:	2202      	movs	r2, #2
 8004bce:	711a      	strb	r2, [r3, #4]
 8004bd0:	687b      	ldr	r3, [r7, #4]
 8004bd2:	2200      	movs	r2, #0
 8004bd4:	611a      	str	r2, [r3, #16]
 8004bd6:	687b      	ldr	r3, [r7, #4]
 8004bd8:	2201      	movs	r2, #1
 8004bda:	711a      	strb	r2, [r3, #4]
 8004bdc:	2300      	movs	r3, #0
 8004bde:	4618      	mov	r0, r3
 8004be0:	3708      	adds	r7, #8
 8004be2:	46bd      	mov	sp, r7
 8004be4:	bd80      	pop	{r7, pc}
	...

08004be8 <HAL_DAC_ConfigChannel>:
 8004be8:	b580      	push	{r7, lr}
 8004bea:	b08a      	sub	sp, #40	; 0x28
 8004bec:	af00      	add	r7, sp, #0
 8004bee:	60f8      	str	r0, [r7, #12]
 8004bf0:	60b9      	str	r1, [r7, #8]
 8004bf2:	607a      	str	r2, [r7, #4]
 8004bf4:	68fb      	ldr	r3, [r7, #12]
 8004bf6:	795b      	ldrb	r3, [r3, #5]
 8004bf8:	2b01      	cmp	r3, #1
 8004bfa:	d101      	bne.n	8004c00 <HAL_DAC_ConfigChannel+0x18>
 8004bfc:	2302      	movs	r3, #2
 8004bfe:	e192      	b.n	8004f26 <HAL_DAC_ConfigChannel+0x33e>
 8004c00:	68fb      	ldr	r3, [r7, #12]
 8004c02:	2201      	movs	r2, #1
 8004c04:	715a      	strb	r2, [r3, #5]
 8004c06:	68fb      	ldr	r3, [r7, #12]
 8004c08:	2202      	movs	r2, #2
 8004c0a:	711a      	strb	r2, [r3, #4]
 8004c0c:	68bb      	ldr	r3, [r7, #8]
 8004c0e:	689b      	ldr	r3, [r3, #8]
 8004c10:	2b04      	cmp	r3, #4
 8004c12:	d174      	bne.n	8004cfe <HAL_DAC_ConfigChannel+0x116>
 8004c14:	f7fd f992 	bl	8001f3c <HAL_GetTick>
 8004c18:	61f8      	str	r0, [r7, #28]
 8004c1a:	687b      	ldr	r3, [r7, #4]
 8004c1c:	2b00      	cmp	r3, #0
 8004c1e:	d134      	bne.n	8004c8a <HAL_DAC_ConfigChannel+0xa2>
 8004c20:	e011      	b.n	8004c46 <HAL_DAC_ConfigChannel+0x5e>
 8004c22:	f7fd f98b 	bl	8001f3c <HAL_GetTick>
 8004c26:	4602      	mov	r2, r0
 8004c28:	69fb      	ldr	r3, [r7, #28]
 8004c2a:	1ad3      	subs	r3, r2, r3
 8004c2c:	2b01      	cmp	r3, #1
 8004c2e:	d90a      	bls.n	8004c46 <HAL_DAC_ConfigChannel+0x5e>
 8004c30:	68fb      	ldr	r3, [r7, #12]
 8004c32:	691b      	ldr	r3, [r3, #16]
 8004c34:	f043 0208 	orr.w	r2, r3, #8
 8004c38:	68fb      	ldr	r3, [r7, #12]
 8004c3a:	611a      	str	r2, [r3, #16]
 8004c3c:	68fb      	ldr	r3, [r7, #12]
 8004c3e:	2203      	movs	r2, #3
 8004c40:	711a      	strb	r2, [r3, #4]
 8004c42:	2303      	movs	r3, #3
 8004c44:	e16f      	b.n	8004f26 <HAL_DAC_ConfigChannel+0x33e>
 8004c46:	68fb      	ldr	r3, [r7, #12]
 8004c48:	681b      	ldr	r3, [r3, #0]
 8004c4a:	6b5b      	ldr	r3, [r3, #52]	; 0x34
 8004c4c:	f403 4300 	and.w	r3, r3, #32768	; 0x8000
 8004c50:	2b00      	cmp	r3, #0
 8004c52:	d1e6      	bne.n	8004c22 <HAL_DAC_ConfigChannel+0x3a>
 8004c54:	2001      	movs	r0, #1
 8004c56:	f7fd f97d 	bl	8001f54 <HAL_Delay>
 8004c5a:	68fb      	ldr	r3, [r7, #12]
 8004c5c:	681b      	ldr	r3, [r3, #0]
 8004c5e:	68ba      	ldr	r2, [r7, #8]
 8004c60:	6a52      	ldr	r2, [r2, #36]	; 0x24
 8004c62:	641a      	str	r2, [r3, #64]	; 0x40
 8004c64:	e01e      	b.n	8004ca4 <HAL_DAC_ConfigChannel+0xbc>
 8004c66:	f7fd f969 	bl	8001f3c <HAL_GetTick>
 8004c6a:	4602      	mov	r2, r0
 8004c6c:	69fb      	ldr	r3, [r7, #28]
 8004c6e:	1ad3      	subs	r3, r2, r3
 8004c70:	2b01      	cmp	r3, #1
 8004c72:	d90a      	bls.n	8004c8a <HAL_DAC_ConfigChannel+0xa2>
 8004c74:	68fb      	ldr	r3, [r7, #12]
 8004c76:	691b      	ldr	r3, [r3, #16]
 8004c78:	f043 0208 	orr.w	r2, r3, #8
 8004c7c:	68fb      	ldr	r3, [r7, #12]
 8004c7e:	611a      	str	r2, [r3, #16]
 8004c80:	68fb      	ldr	r3, [r7, #12]
 8004c82:	2203      	movs	r2, #3
 8004c84:	711a      	strb	r2, [r3, #4]
 8004c86:	2303      	movs	r3, #3
 8004c88:	e14d      	b.n	8004f26 <HAL_DAC_ConfigChannel+0x33e>
 8004c8a:	68fb      	ldr	r3, [r7, #12]
 8004c8c:	681b      	ldr	r3, [r3, #0]
 8004c8e:	6b5b      	ldr	r3, [r3, #52]	; 0x34
 8004c90:	2b00      	cmp	r3, #0
 8004c92:	dbe8      	blt.n	8004c66 <HAL_DAC_ConfigChannel+0x7e>
 8004c94:	2001      	movs	r0, #1
 8004c96:	f7fd f95d 	bl	8001f54 <HAL_Delay>
 8004c9a:	68fb      	ldr	r3, [r7, #12]
 8004c9c:	681b      	ldr	r3, [r3, #0]
 8004c9e:	68ba      	ldr	r2, [r7, #8]
 8004ca0:	6a52      	ldr	r2, [r2, #36]	; 0x24
 8004ca2:	645a      	str	r2, [r3, #68]	; 0x44
 8004ca4:	68fb      	ldr	r3, [r7, #12]
 8004ca6:	681b      	ldr	r3, [r3, #0]
 8004ca8:	6c9a      	ldr	r2, [r3, #72]	; 0x48
 8004caa:	687b      	ldr	r3, [r7, #4]
 8004cac:	f003 0310 	and.w	r3, r3, #16
 8004cb0:	f240 31ff 	movw	r1, #1023	; 0x3ff
 8004cb4:	fa01 f303 	lsl.w	r3, r1, r3
 8004cb8:	43db      	mvns	r3, r3
 8004cba:	ea02 0103 	and.w	r1, r2, r3
 8004cbe:	68bb      	ldr	r3, [r7, #8]
 8004cc0:	6a9a      	ldr	r2, [r3, #40]	; 0x28
 8004cc2:	687b      	ldr	r3, [r7, #4]
 8004cc4:	f003 0310 	and.w	r3, r3, #16
 8004cc8:	409a      	lsls	r2, r3
 8004cca:	68fb      	ldr	r3, [r7, #12]
 8004ccc:	681b      	ldr	r3, [r3, #0]
 8004cce:	430a      	orrs	r2, r1
 8004cd0:	649a      	str	r2, [r3, #72]	; 0x48
 8004cd2:	68fb      	ldr	r3, [r7, #12]
 8004cd4:	681b      	ldr	r3, [r3, #0]
 8004cd6:	6cda      	ldr	r2, [r3, #76]	; 0x4c
 8004cd8:	687b      	ldr	r3, [r7, #4]
 8004cda:	f003 0310 	and.w	r3, r3, #16
 8004cde:	21ff      	movs	r1, #255	; 0xff
 8004ce0:	fa01 f303 	lsl.w	r3, r1, r3
 8004ce4:	43db      	mvns	r3, r3
 8004ce6:	ea02 0103 	and.w	r1, r2, r3
 8004cea:	68bb      	ldr	r3, [r7, #8]
 8004cec:	6ada      	ldr	r2, [r3, #44]	; 0x2c
 8004cee:	687b      	ldr	r3, [r7, #4]
 8004cf0:	f003 0310 	and.w	r3, r3, #16
 8004cf4:	409a      	lsls	r2, r3
 8004cf6:	68fb      	ldr	r3, [r7, #12]
 8004cf8:	681b      	ldr	r3, [r3, #0]
 8004cfa:	430a      	orrs	r2, r1
 8004cfc:	64da      	str	r2, [r3, #76]	; 0x4c
 8004cfe:	68bb      	ldr	r3, [r7, #8]
 8004d00:	69db      	ldr	r3, [r3, #28]
 8004d02:	2b01      	cmp	r3, #1
 8004d04:	d11d      	bne.n	8004d42 <HAL_DAC_ConfigChannel+0x15a>
 8004d06:	68fb      	ldr	r3, [r7, #12]
 8004d08:	681b      	ldr	r3, [r3, #0]
 8004d0a:	6b9b      	ldr	r3, [r3, #56]	; 0x38
 8004d0c:	627b      	str	r3, [r7, #36]	; 0x24
 8004d0e:	687b      	ldr	r3, [r7, #4]
 8004d10:	f003 0310 	and.w	r3, r3, #16
 8004d14:	221f      	movs	r2, #31
 8004d16:	fa02 f303 	lsl.w	r3, r2, r3
 8004d1a:	43db      	mvns	r3, r3
 8004d1c:	6a7a      	ldr	r2, [r7, #36]	; 0x24
 8004d1e:	4013      	ands	r3, r2
 8004d20:	627b      	str	r3, [r7, #36]	; 0x24
 8004d22:	68bb      	ldr	r3, [r7, #8]
 8004d24:	6a1b      	ldr	r3, [r3, #32]
 8004d26:	61bb      	str	r3, [r7, #24]
 8004d28:	687b      	ldr	r3, [r7, #4]
 8004d2a:	f003 0310 	and.w	r3, r3, #16
 8004d2e:	69ba      	ldr	r2, [r7, #24]
 8004d30:	fa02 f303 	lsl.w	r3, r2, r3
 8004d34:	6a7a      	ldr	r2, [r7, #36]	; 0x24
 8004d36:	4313      	orrs	r3, r2
 8004d38:	627b      	str	r3, [r7, #36]	; 0x24
 8004d3a:	68fb      	ldr	r3, [r7, #12]
 8004d3c:	681b      	ldr	r3, [r3, #0]
 8004d3e:	6a7a      	ldr	r2, [r7, #36]	; 0x24
 8004d40:	639a      	str	r2, [r3, #56]	; 0x38
 8004d42:	68fb      	ldr	r3, [r7, #12]
 8004d44:	681b      	ldr	r3, [r3, #0]
 8004d46:	6bdb      	ldr	r3, [r3, #60]	; 0x3c
 8004d48:	627b      	str	r3, [r7, #36]	; 0x24
 8004d4a:	687b      	ldr	r3, [r7, #4]
 8004d4c:	f003 0310 	and.w	r3, r3, #16
 8004d50:	2207      	movs	r2, #7
 8004d52:	fa02 f303 	lsl.w	r3, r2, r3
 8004d56:	43db      	mvns	r3, r3
 8004d58:	6a7a      	ldr	r2, [r7, #36]	; 0x24
 8004d5a:	4013      	ands	r3, r2
 8004d5c:	627b      	str	r3, [r7, #36]	; 0x24
 8004d5e:	68bb      	ldr	r3, [r7, #8]
 8004d60:	699b      	ldr	r3, [r3, #24]
 8004d62:	2b01      	cmp	r3, #1
 8004d64:	d102      	bne.n	8004d6c <HAL_DAC_ConfigChannel+0x184>
 8004d66:	2300      	movs	r3, #0
 8004d68:	623b      	str	r3, [r7, #32]
 8004d6a:	e00f      	b.n	8004d8c <HAL_DAC_ConfigChannel+0x1a4>
 8004d6c:	68bb      	ldr	r3, [r7, #8]
 8004d6e:	699b      	ldr	r3, [r3, #24]
 8004d70:	2b02      	cmp	r3, #2
 8004d72:	d102      	bne.n	8004d7a <HAL_DAC_ConfigChannel+0x192>
 8004d74:	2301      	movs	r3, #1
 8004d76:	623b      	str	r3, [r7, #32]
 8004d78:	e008      	b.n	8004d8c <HAL_DAC_ConfigChannel+0x1a4>
 8004d7a:	68bb      	ldr	r3, [r7, #8]
 8004d7c:	695b      	ldr	r3, [r3, #20]
 8004d7e:	2b00      	cmp	r3, #0
 8004d80:	d102      	bne.n	8004d88 <HAL_DAC_ConfigChannel+0x1a0>
 8004d82:	2301      	movs	r3, #1
 8004d84:	623b      	str	r3, [r7, #32]
 8004d86:	e001      	b.n	8004d8c <HAL_DAC_ConfigChannel+0x1a4>
 8004d88:	2300      	movs	r3, #0
 8004d8a:	623b      	str	r3, [r7, #32]
 8004d8c:	68bb      	ldr	r3, [r7, #8]
 8004d8e:	689a      	ldr	r2, [r3, #8]
 8004d90:	68bb      	ldr	r3, [r7, #8]
 8004d92:	695b      	ldr	r3, [r3, #20]
 8004d94:	4313      	orrs	r3, r2
 8004d96:	6a3a      	ldr	r2, [r7, #32]
 8004d98:	4313      	orrs	r3, r2
 8004d9a:	61bb      	str	r3, [r7, #24]
 8004d9c:	687b      	ldr	r3, [r7, #4]
 8004d9e:	f003 0310 	and.w	r3, r3, #16
 8004da2:	f44f 7280 	mov.w	r2, #256	; 0x100
 8004da6:	fa02 f303 	lsl.w	r3, r2, r3
 8004daa:	43db      	mvns	r3, r3
 8004dac:	6a7a      	ldr	r2, [r7, #36]	; 0x24
 8004dae:	4013      	ands	r3, r2
 8004db0:	627b      	str	r3, [r7, #36]	; 0x24
 8004db2:	68bb      	ldr	r3, [r7, #8]
 8004db4:	791b      	ldrb	r3, [r3, #4]
 8004db6:	2b01      	cmp	r3, #1
 8004db8:	d102      	bne.n	8004dc0 <HAL_DAC_ConfigChannel+0x1d8>
 8004dba:	f44f 7380 	mov.w	r3, #256	; 0x100
 8004dbe:	e000      	b.n	8004dc2 <HAL_DAC_ConfigChannel+0x1da>
 8004dc0:	2300      	movs	r3, #0
 8004dc2:	69ba      	ldr	r2, [r7, #24]
 8004dc4:	4313      	orrs	r3, r2
 8004dc6:	61bb      	str	r3, [r7, #24]
 8004dc8:	687b      	ldr	r3, [r7, #4]
 8004dca:	f003 0310 	and.w	r3, r3, #16
 8004dce:	f44f 7200 	mov.w	r2, #512	; 0x200
 8004dd2:	fa02 f303 	lsl.w	r3, r2, r3
 8004dd6:	43db      	mvns	r3, r3
 8004dd8:	6a7a      	ldr	r2, [r7, #36]	; 0x24
 8004dda:	4013      	ands	r3, r2
 8004ddc:	627b      	str	r3, [r7, #36]	; 0x24
 8004dde:	68bb      	ldr	r3, [r7, #8]
 8004de0:	795b      	ldrb	r3, [r3, #5]
 8004de2:	2b01      	cmp	r3, #1
 8004de4:	d102      	bne.n	8004dec <HAL_DAC_ConfigChannel+0x204>
 8004de6:	f44f 7300 	mov.w	r3, #512	; 0x200
 8004dea:	e000      	b.n	8004dee <HAL_DAC_ConfigChannel+0x206>
 8004dec:	2300      	movs	r3, #0
 8004dee:	69ba      	ldr	r2, [r7, #24]
 8004df0:	4313      	orrs	r3, r2
 8004df2:	61bb      	str	r3, [r7, #24]
 8004df4:	6a7b      	ldr	r3, [r7, #36]	; 0x24
 8004df6:	f423 4340 	bic.w	r3, r3, #49152	; 0xc000
 8004dfa:	627b      	str	r3, [r7, #36]	; 0x24
 8004dfc:	68bb      	ldr	r3, [r7, #8]
 8004dfe:	681b      	ldr	r3, [r3, #0]
 8004e00:	2b02      	cmp	r3, #2
 8004e02:	d114      	bne.n	8004e2e <HAL_DAC_ConfigChannel+0x246>
 8004e04:	f001 fa7c 	bl	8006300 <HAL_RCC_GetHCLKFreq>
 8004e08:	6178      	str	r0, [r7, #20]
 8004e0a:	697b      	ldr	r3, [r7, #20]
 8004e0c:	4a48      	ldr	r2, [pc, #288]	; (8004f30 <HAL_DAC_ConfigChannel+0x348>)
 8004e0e:	4293      	cmp	r3, r2
 8004e10:	d904      	bls.n	8004e1c <HAL_DAC_ConfigChannel+0x234>
 8004e12:	6a7b      	ldr	r3, [r7, #36]	; 0x24
 8004e14:	f443 4300 	orr.w	r3, r3, #32768	; 0x8000
 8004e18:	627b      	str	r3, [r7, #36]	; 0x24
 8004e1a:	e00f      	b.n	8004e3c <HAL_DAC_ConfigChannel+0x254>
 8004e1c:	697b      	ldr	r3, [r7, #20]
 8004e1e:	4a45      	ldr	r2, [pc, #276]	; (8004f34 <HAL_DAC_ConfigChannel+0x34c>)
 8004e20:	4293      	cmp	r3, r2
 8004e22:	d90a      	bls.n	8004e3a <HAL_DAC_ConfigChannel+0x252>
 8004e24:	6a7b      	ldr	r3, [r7, #36]	; 0x24
 8004e26:	f443 4380 	orr.w	r3, r3, #16384	; 0x4000
 8004e2a:	627b      	str	r3, [r7, #36]	; 0x24
 8004e2c:	e006      	b.n	8004e3c <HAL_DAC_ConfigChannel+0x254>
 8004e2e:	68bb      	ldr	r3, [r7, #8]
 8004e30:	681b      	ldr	r3, [r3, #0]
 8004e32:	6a7a      	ldr	r2, [r7, #36]	; 0x24
 8004e34:	4313      	orrs	r3, r2
 8004e36:	627b      	str	r3, [r7, #36]	; 0x24
 8004e38:	e000      	b.n	8004e3c <HAL_DAC_ConfigChannel+0x254>
 8004e3a:	bf00      	nop
 8004e3c:	687b      	ldr	r3, [r7, #4]
 8004e3e:	f003 0310 	and.w	r3, r3, #16
 8004e42:	69ba      	ldr	r2, [r7, #24]
 8004e44:	fa02 f303 	lsl.w	r3, r2, r3
 8004e48:	6a7a      	ldr	r2, [r7, #36]	; 0x24
 8004e4a:	4313      	orrs	r3, r2
 8004e4c:	627b      	str	r3, [r7, #36]	; 0x24
 8004e4e:	68fb      	ldr	r3, [r7, #12]
 8004e50:	681b      	ldr	r3, [r3, #0]
 8004e52:	6a7a      	ldr	r2, [r7, #36]	; 0x24
 8004e54:	63da      	str	r2, [r3, #60]	; 0x3c
 8004e56:	68fb      	ldr	r3, [r7, #12]
 8004e58:	681b      	ldr	r3, [r3, #0]
 8004e5a:	6819      	ldr	r1, [r3, #0]
 8004e5c:	687b      	ldr	r3, [r7, #4]
 8004e5e:	f003 0310 	and.w	r3, r3, #16
 8004e62:	f44f 4280 	mov.w	r2, #16384	; 0x4000
 8004e66:	fa02 f303 	lsl.w	r3, r2, r3
 8004e6a:	43da      	mvns	r2, r3
 8004e6c:	68fb      	ldr	r3, [r7, #12]
 8004e6e:	681b      	ldr	r3, [r3, #0]
 8004e70:	400a      	ands	r2, r1
 8004e72:	601a      	str	r2, [r3, #0]
 8004e74:	68fb      	ldr	r3, [r7, #12]
 8004e76:	681b      	ldr	r3, [r3, #0]
 8004e78:	681b      	ldr	r3, [r3, #0]
 8004e7a:	627b      	str	r3, [r7, #36]	; 0x24
 8004e7c:	687b      	ldr	r3, [r7, #4]
 8004e7e:	f003 0310 	and.w	r3, r3, #16
 8004e82:	f640 72fe 	movw	r2, #4094	; 0xffe
 8004e86:	fa02 f303 	lsl.w	r3, r2, r3
 8004e8a:	43db      	mvns	r3, r3
 8004e8c:	6a7a      	ldr	r2, [r7, #36]	; 0x24
 8004e8e:	4013      	ands	r3, r2
 8004e90:	627b      	str	r3, [r7, #36]	; 0x24
 8004e92:	68bb      	ldr	r3, [r7, #8]
 8004e94:	68db      	ldr	r3, [r3, #12]
 8004e96:	61bb      	str	r3, [r7, #24]
 8004e98:	687b      	ldr	r3, [r7, #4]
 8004e9a:	f003 0310 	and.w	r3, r3, #16
 8004e9e:	69ba      	ldr	r2, [r7, #24]
 8004ea0:	fa02 f303 	lsl.w	r3, r2, r3
 8004ea4:	6a7a      	ldr	r2, [r7, #36]	; 0x24
 8004ea6:	4313      	orrs	r3, r2
 8004ea8:	627b      	str	r3, [r7, #36]	; 0x24
 8004eaa:	68fb      	ldr	r3, [r7, #12]
 8004eac:	681b      	ldr	r3, [r3, #0]
 8004eae:	6a7a      	ldr	r2, [r7, #36]	; 0x24
 8004eb0:	601a      	str	r2, [r3, #0]
 8004eb2:	68fb      	ldr	r3, [r7, #12]
 8004eb4:	681b      	ldr	r3, [r3, #0]
 8004eb6:	6819      	ldr	r1, [r3, #0]
 8004eb8:	687b      	ldr	r3, [r7, #4]
 8004eba:	f003 0310 	and.w	r3, r3, #16
 8004ebe:	22c0      	movs	r2, #192	; 0xc0
 8004ec0:	fa02 f303 	lsl.w	r3, r2, r3
 8004ec4:	43da      	mvns	r2, r3
 8004ec6:	68fb      	ldr	r3, [r7, #12]
 8004ec8:	681b      	ldr	r3, [r3, #0]
 8004eca:	400a      	ands	r2, r1
 8004ecc:	601a      	str	r2, [r3, #0]
 8004ece:	68bb      	ldr	r3, [r7, #8]
 8004ed0:	68db      	ldr	r3, [r3, #12]
 8004ed2:	089b      	lsrs	r3, r3, #2
 8004ed4:	f003 030f 	and.w	r3, r3, #15
 8004ed8:	61bb      	str	r3, [r7, #24]
 8004eda:	68bb      	ldr	r3, [r7, #8]
 8004edc:	691b      	ldr	r3, [r3, #16]
 8004ede:	089b      	lsrs	r3, r3, #2
 8004ee0:	021b      	lsls	r3, r3, #8
 8004ee2:	f403 6370 	and.w	r3, r3, #3840	; 0xf00
 8004ee6:	69ba      	ldr	r2, [r7, #24]
 8004ee8:	4313      	orrs	r3, r2
 8004eea:	61bb      	str	r3, [r7, #24]
 8004eec:	68fb      	ldr	r3, [r7, #12]
 8004eee:	681b      	ldr	r3, [r3, #0]
 8004ef0:	6e1a      	ldr	r2, [r3, #96]	; 0x60
 8004ef2:	687b      	ldr	r3, [r7, #4]
 8004ef4:	f003 0310 	and.w	r3, r3, #16
 8004ef8:	f640 710f 	movw	r1, #3855	; 0xf0f
 8004efc:	fa01 f303 	lsl.w	r3, r1, r3
 8004f00:	43db      	mvns	r3, r3
 8004f02:	ea02 0103 	and.w	r1, r2, r3
 8004f06:	687b      	ldr	r3, [r7, #4]
 8004f08:	f003 0310 	and.w	r3, r3, #16
 8004f0c:	69ba      	ldr	r2, [r7, #24]
 8004f0e:	409a      	lsls	r2, r3
 8004f10:	68fb      	ldr	r3, [r7, #12]
 8004f12:	681b      	ldr	r3, [r3, #0]
 8004f14:	430a      	orrs	r2, r1
 8004f16:	661a      	str	r2, [r3, #96]	; 0x60
 8004f18:	68fb      	ldr	r3, [r7, #12]
 8004f1a:	2201      	movs	r2, #1
 8004f1c:	711a      	strb	r2, [r3, #4]
 8004f1e:	68fb      	ldr	r3, [r7, #12]
 8004f20:	2200      	movs	r2, #0
 8004f22:	715a      	strb	r2, [r3, #5]
 8004f24:	2300      	movs	r3, #0
 8004f26:	4618      	mov	r0, r3
 8004f28:	3728      	adds	r7, #40	; 0x28
 8004f2a:	46bd      	mov	sp, r7
 8004f2c:	bd80      	pop	{r7, pc}
 8004f2e:	bf00      	nop
 8004f30:	09896800 	.word	0x09896800
 8004f34:	04c4b400 	.word	0x04c4b400

08004f38 <HAL_DMA_Init>:
 8004f38:	b580      	push	{r7, lr}
 8004f3a:	b084      	sub	sp, #16
 8004f3c:	af00      	add	r7, sp, #0
 8004f3e:	6078      	str	r0, [r7, #4]
 8004f40:	687b      	ldr	r3, [r7, #4]
 8004f42:	2b00      	cmp	r3, #0
 8004f44:	d101      	bne.n	8004f4a <HAL_DMA_Init+0x12>
 8004f46:	2301      	movs	r3, #1
 8004f48:	e08d      	b.n	8005066 <HAL_DMA_Init+0x12e>
 8004f4a:	687b      	ldr	r3, [r7, #4]
 8004f4c:	681b      	ldr	r3, [r3, #0]
 8004f4e:	461a      	mov	r2, r3
 8004f50:	4b47      	ldr	r3, [pc, #284]	; (8005070 <HAL_DMA_Init+0x138>)
 8004f52:	429a      	cmp	r2, r3
 8004f54:	d80f      	bhi.n	8004f76 <HAL_DMA_Init+0x3e>
 8004f56:	687b      	ldr	r3, [r7, #4]
 8004f58:	681b      	ldr	r3, [r3, #0]
 8004f5a:	461a      	mov	r2, r3
 8004f5c:	4b45      	ldr	r3, [pc, #276]	; (8005074 <HAL_DMA_Init+0x13c>)
 8004f5e:	4413      	add	r3, r2
 8004f60:	4a45      	ldr	r2, [pc, #276]	; (8005078 <HAL_DMA_Init+0x140>)
 8004f62:	fba2 2303 	umull	r2, r3, r2, r3
 8004f66:	091b      	lsrs	r3, r3, #4
 8004f68:	009a      	lsls	r2, r3, #2
 8004f6a:	687b      	ldr	r3, [r7, #4]
 8004f6c:	645a      	str	r2, [r3, #68]	; 0x44
 8004f6e:	687b      	ldr	r3, [r7, #4]
 8004f70:	4a42      	ldr	r2, [pc, #264]	; (800507c <HAL_DMA_Init+0x144>)
 8004f72:	641a      	str	r2, [r3, #64]	; 0x40
 8004f74:	e00e      	b.n	8004f94 <HAL_DMA_Init+0x5c>
 8004f76:	687b      	ldr	r3, [r7, #4]
 8004f78:	681b      	ldr	r3, [r3, #0]
 8004f7a:	461a      	mov	r2, r3
 8004f7c:	4b40      	ldr	r3, [pc, #256]	; (8005080 <HAL_DMA_Init+0x148>)
 8004f7e:	4413      	add	r3, r2
 8004f80:	4a3d      	ldr	r2, [pc, #244]	; (8005078 <HAL_DMA_Init+0x140>)
 8004f82:	fba2 2303 	umull	r2, r3, r2, r3
 8004f86:	091b      	lsrs	r3, r3, #4
 8004f88:	009a      	lsls	r2, r3, #2
 8004f8a:	687b      	ldr	r3, [r7, #4]
 8004f8c:	645a      	str	r2, [r3, #68]	; 0x44
 8004f8e:	687b      	ldr	r3, [r7, #4]
 8004f90:	4a3c      	ldr	r2, [pc, #240]	; (8005084 <HAL_DMA_Init+0x14c>)
 8004f92:	641a      	str	r2, [r3, #64]	; 0x40
 8004f94:	687b      	ldr	r3, [r7, #4]
 8004f96:	2202      	movs	r2, #2
 8004f98:	f883 2025 	strb.w	r2, [r3, #37]	; 0x25
 8004f9c:	687b      	ldr	r3, [r7, #4]
 8004f9e:	681b      	ldr	r3, [r3, #0]
 8004fa0:	681b      	ldr	r3, [r3, #0]
 8004fa2:	60fb      	str	r3, [r7, #12]
 8004fa4:	68fb      	ldr	r3, [r7, #12]
 8004fa6:	f423 43ff 	bic.w	r3, r3, #32640	; 0x7f80
 8004faa:	f023 0370 	bic.w	r3, r3, #112	; 0x70
 8004fae:	60fb      	str	r3, [r7, #12]
 8004fb0:	687b      	ldr	r3, [r7, #4]
 8004fb2:	689a      	ldr	r2, [r3, #8]
 8004fb4:	687b      	ldr	r3, [r7, #4]
 8004fb6:	68db      	ldr	r3, [r3, #12]
 8004fb8:	431a      	orrs	r2, r3
 8004fba:	687b      	ldr	r3, [r7, #4]
 8004fbc:	691b      	ldr	r3, [r3, #16]
 8004fbe:	431a      	orrs	r2, r3
 8004fc0:	687b      	ldr	r3, [r7, #4]
 8004fc2:	695b      	ldr	r3, [r3, #20]
 8004fc4:	431a      	orrs	r2, r3
 8004fc6:	687b      	ldr	r3, [r7, #4]
 8004fc8:	699b      	ldr	r3, [r3, #24]
 8004fca:	431a      	orrs	r2, r3
 8004fcc:	687b      	ldr	r3, [r7, #4]
 8004fce:	69db      	ldr	r3, [r3, #28]
 8004fd0:	431a      	orrs	r2, r3
 8004fd2:	687b      	ldr	r3, [r7, #4]
 8004fd4:	6a1b      	ldr	r3, [r3, #32]
 8004fd6:	4313      	orrs	r3, r2
 8004fd8:	68fa      	ldr	r2, [r7, #12]
 8004fda:	4313      	orrs	r3, r2
 8004fdc:	60fb      	str	r3, [r7, #12]
 8004fde:	687b      	ldr	r3, [r7, #4]
 8004fe0:	681b      	ldr	r3, [r3, #0]
 8004fe2:	68fa      	ldr	r2, [r7, #12]
 8004fe4:	601a      	str	r2, [r3, #0]
 8004fe6:	6878      	ldr	r0, [r7, #4]
 8004fe8:	f000 f908 	bl	80051fc <DMA_CalcDMAMUXChannelBaseAndMask>
 8004fec:	687b      	ldr	r3, [r7, #4]
 8004fee:	689b      	ldr	r3, [r3, #8]
 8004ff0:	f5b3 4f80 	cmp.w	r3, #16384	; 0x4000
 8004ff4:	d102      	bne.n	8004ffc <HAL_DMA_Init+0xc4>
 8004ff6:	687b      	ldr	r3, [r7, #4]
 8004ff8:	2200      	movs	r2, #0
 8004ffa:	605a      	str	r2, [r3, #4]
 8004ffc:	687b      	ldr	r3, [r7, #4]
 8004ffe:	685a      	ldr	r2, [r3, #4]
 8005000:	687b      	ldr	r3, [r7, #4]
 8005002:	6c9b      	ldr	r3, [r3, #72]	; 0x48
 8005004:	b2d2      	uxtb	r2, r2
 8005006:	601a      	str	r2, [r3, #0]
 8005008:	687b      	ldr	r3, [r7, #4]
 800500a:	6cdb      	ldr	r3, [r3, #76]	; 0x4c
 800500c:	687a      	ldr	r2, [r7, #4]
 800500e:	6d12      	ldr	r2, [r2, #80]	; 0x50
 8005010:	605a      	str	r2, [r3, #4]
 8005012:	687b      	ldr	r3, [r7, #4]
 8005014:	685b      	ldr	r3, [r3, #4]
 8005016:	2b00      	cmp	r3, #0
 8005018:	d010      	beq.n	800503c <HAL_DMA_Init+0x104>
 800501a:	687b      	ldr	r3, [r7, #4]
 800501c:	685b      	ldr	r3, [r3, #4]
 800501e:	2b04      	cmp	r3, #4
 8005020:	d80c      	bhi.n	800503c <HAL_DMA_Init+0x104>
 8005022:	6878      	ldr	r0, [r7, #4]
 8005024:	f000 f928 	bl	8005278 <DMA_CalcDMAMUXRequestGenBaseAndMask>
 8005028:	687b      	ldr	r3, [r7, #4]
 800502a:	6d5b      	ldr	r3, [r3, #84]	; 0x54
 800502c:	2200      	movs	r2, #0
 800502e:	601a      	str	r2, [r3, #0]
 8005030:	687b      	ldr	r3, [r7, #4]
 8005032:	6d9b      	ldr	r3, [r3, #88]	; 0x58
 8005034:	687a      	ldr	r2, [r7, #4]
 8005036:	6dd2      	ldr	r2, [r2, #92]	; 0x5c
 8005038:	605a      	str	r2, [r3, #4]
 800503a:	e008      	b.n	800504e <HAL_DMA_Init+0x116>
 800503c:	687b      	ldr	r3, [r7, #4]
 800503e:	2200      	movs	r2, #0
 8005040:	655a      	str	r2, [r3, #84]	; 0x54
 8005042:	687b      	ldr	r3, [r7, #4]
 8005044:	2200      	movs	r2, #0
 8005046:	659a      	str	r2, [r3, #88]	; 0x58
 8005048:	687b      	ldr	r3, [r7, #4]
 800504a:	2200      	movs	r2, #0
 800504c:	65da      	str	r2, [r3, #92]	; 0x5c
 800504e:	687b      	ldr	r3, [r7, #4]
 8005050:	2200      	movs	r2, #0
 8005052:	63da      	str	r2, [r3, #60]	; 0x3c
 8005054:	687b      	ldr	r3, [r7, #4]
 8005056:	2201      	movs	r2, #1
 8005058:	f883 2025 	strb.w	r2, [r3, #37]	; 0x25
 800505c:	687b      	ldr	r3, [r7, #4]
 800505e:	2200      	movs	r2, #0
 8005060:	f883 2024 	strb.w	r2, [r3, #36]	; 0x24
 8005064:	2300      	movs	r3, #0
 8005066:	4618      	mov	r0, r3
 8005068:	3710      	adds	r7, #16
 800506a:	46bd      	mov	sp, r7
 800506c:	bd80      	pop	{r7, pc}
 800506e:	bf00      	nop
 8005070:	40020407 	.word	0x40020407
 8005074:	bffdfff8 	.word	0xbffdfff8
 8005078:	cccccccd 	.word	0xcccccccd
 800507c:	40020000 	.word	0x40020000
 8005080:	bffdfbf8 	.word	0xbffdfbf8
 8005084:	40020400 	.word	0x40020400

08005088 <HAL_DMA_Start_IT>:
 8005088:	b580      	push	{r7, lr}
 800508a:	b086      	sub	sp, #24
 800508c:	af00      	add	r7, sp, #0
 800508e:	60f8      	str	r0, [r7, #12]
 8005090:	60b9      	str	r1, [r7, #8]
 8005092:	607a      	str	r2, [r7, #4]
 8005094:	603b      	str	r3, [r7, #0]
 8005096:	2300      	movs	r3, #0
 8005098:	75fb      	strb	r3, [r7, #23]
 800509a:	68fb      	ldr	r3, [r7, #12]
 800509c:	f893 3024 	ldrb.w	r3, [r3, #36]	; 0x24
 80050a0:	2b01      	cmp	r3, #1
 80050a2:	d101      	bne.n	80050a8 <HAL_DMA_Start_IT+0x20>
 80050a4:	2302      	movs	r3, #2
 80050a6:	e066      	b.n	8005176 <HAL_DMA_Start_IT+0xee>
 80050a8:	68fb      	ldr	r3, [r7, #12]
 80050aa:	2201      	movs	r2, #1
 80050ac:	f883 2024 	strb.w	r2, [r3, #36]	; 0x24
 80050b0:	68fb      	ldr	r3, [r7, #12]
 80050b2:	f893 3025 	ldrb.w	r3, [r3, #37]	; 0x25
 80050b6:	b2db      	uxtb	r3, r3
 80050b8:	2b01      	cmp	r3, #1
 80050ba:	d155      	bne.n	8005168 <HAL_DMA_Start_IT+0xe0>
 80050bc:	68fb      	ldr	r3, [r7, #12]
 80050be:	2202      	movs	r2, #2
 80050c0:	f883 2025 	strb.w	r2, [r3, #37]	; 0x25
 80050c4:	68fb      	ldr	r3, [r7, #12]
 80050c6:	2200      	movs	r2, #0
 80050c8:	63da      	str	r2, [r3, #60]	; 0x3c
 80050ca:	68fb      	ldr	r3, [r7, #12]
 80050cc:	681b      	ldr	r3, [r3, #0]
 80050ce:	681a      	ldr	r2, [r3, #0]
 80050d0:	68fb      	ldr	r3, [r7, #12]
 80050d2:	681b      	ldr	r3, [r3, #0]
 80050d4:	f022 0201 	bic.w	r2, r2, #1
 80050d8:	601a      	str	r2, [r3, #0]
 80050da:	683b      	ldr	r3, [r7, #0]
 80050dc:	687a      	ldr	r2, [r7, #4]
 80050de:	68b9      	ldr	r1, [r7, #8]
 80050e0:	68f8      	ldr	r0, [r7, #12]
 80050e2:	f000 f84c 	bl	800517e <DMA_SetConfig>
 80050e6:	68fb      	ldr	r3, [r7, #12]
 80050e8:	6b1b      	ldr	r3, [r3, #48]	; 0x30
 80050ea:	2b00      	cmp	r3, #0
 80050ec:	d008      	beq.n	8005100 <HAL_DMA_Start_IT+0x78>
 80050ee:	68fb      	ldr	r3, [r7, #12]
 80050f0:	681b      	ldr	r3, [r3, #0]
 80050f2:	681a      	ldr	r2, [r3, #0]
 80050f4:	68fb      	ldr	r3, [r7, #12]
 80050f6:	681b      	ldr	r3, [r3, #0]
 80050f8:	f042 020e 	orr.w	r2, r2, #14
 80050fc:	601a      	str	r2, [r3, #0]
 80050fe:	e00f      	b.n	8005120 <HAL_DMA_Start_IT+0x98>
 8005100:	68fb      	ldr	r3, [r7, #12]
 8005102:	681b      	ldr	r3, [r3, #0]
 8005104:	681a      	ldr	r2, [r3, #0]
 8005106:	68fb      	ldr	r3, [r7, #12]
 8005108:	681b      	ldr	r3, [r3, #0]
 800510a:	f022 0204 	bic.w	r2, r2, #4
 800510e:	601a      	str	r2, [r3, #0]
 8005110:	68fb      	ldr	r3, [r7, #12]
 8005112:	681b      	ldr	r3, [r3, #0]
 8005114:	681a      	ldr	r2, [r3, #0]
 8005116:	68fb      	ldr	r3, [r7, #12]
 8005118:	681b      	ldr	r3, [r3, #0]
 800511a:	f042 020a 	orr.w	r2, r2, #10
 800511e:	601a      	str	r2, [r3, #0]
 8005120:	68fb      	ldr	r3, [r7, #12]
 8005122:	6c9b      	ldr	r3, [r3, #72]	; 0x48
 8005124:	681b      	ldr	r3, [r3, #0]
 8005126:	f403 3380 	and.w	r3, r3, #65536	; 0x10000
 800512a:	2b00      	cmp	r3, #0
 800512c:	d007      	beq.n	800513e <HAL_DMA_Start_IT+0xb6>
 800512e:	68fb      	ldr	r3, [r7, #12]
 8005130:	6c9b      	ldr	r3, [r3, #72]	; 0x48
 8005132:	681a      	ldr	r2, [r3, #0]
 8005134:	68fb      	ldr	r3, [r7, #12]
 8005136:	6c9b      	ldr	r3, [r3, #72]	; 0x48
 8005138:	f442 7280 	orr.w	r2, r2, #256	; 0x100
 800513c:	601a      	str	r2, [r3, #0]
 800513e:	68fb      	ldr	r3, [r7, #12]
 8005140:	6d5b      	ldr	r3, [r3, #84]	; 0x54
 8005142:	2b00      	cmp	r3, #0
 8005144:	d007      	beq.n	8005156 <HAL_DMA_Start_IT+0xce>
 8005146:	68fb      	ldr	r3, [r7, #12]
 8005148:	6d5b      	ldr	r3, [r3, #84]	; 0x54
 800514a:	681a      	ldr	r2, [r3, #0]
 800514c:	68fb      	ldr	r3, [r7, #12]
 800514e:	6d5b      	ldr	r3, [r3, #84]	; 0x54
 8005150:	f442 7280 	orr.w	r2, r2, #256	; 0x100
 8005154:	601a      	str	r2, [r3, #0]
 8005156:	68fb      	ldr	r3, [r7, #12]
 8005158:	681b      	ldr	r3, [r3, #0]
 800515a:	681a      	ldr	r2, [r3, #0]
 800515c:	68fb      	ldr	r3, [r7, #12]
 800515e:	681b      	ldr	r3, [r3, #0]
 8005160:	f042 0201 	orr.w	r2, r2, #1
 8005164:	601a      	str	r2, [r3, #0]
 8005166:	e005      	b.n	8005174 <HAL_DMA_Start_IT+0xec>
 8005168:	68fb      	ldr	r3, [r7, #12]
 800516a:	2200      	movs	r2, #0
 800516c:	f883 2024 	strb.w	r2, [r3, #36]	; 0x24
 8005170:	2302      	movs	r3, #2
 8005172:	75fb      	strb	r3, [r7, #23]
 8005174:	7dfb      	ldrb	r3, [r7, #23]
 8005176:	4618      	mov	r0, r3
 8005178:	3718      	adds	r7, #24
 800517a:	46bd      	mov	sp, r7
 800517c:	bd80      	pop	{r7, pc}

0800517e <DMA_SetConfig>:
 800517e:	b480      	push	{r7}
 8005180:	b085      	sub	sp, #20
 8005182:	af00      	add	r7, sp, #0
 8005184:	60f8      	str	r0, [r7, #12]
 8005186:	60b9      	str	r1, [r7, #8]
 8005188:	607a      	str	r2, [r7, #4]
 800518a:	603b      	str	r3, [r7, #0]
 800518c:	68fb      	ldr	r3, [r7, #12]
 800518e:	6cdb      	ldr	r3, [r3, #76]	; 0x4c
 8005190:	68fa      	ldr	r2, [r7, #12]
 8005192:	6d12      	ldr	r2, [r2, #80]	; 0x50
 8005194:	605a      	str	r2, [r3, #4]
 8005196:	68fb      	ldr	r3, [r7, #12]
 8005198:	6d5b      	ldr	r3, [r3, #84]	; 0x54
 800519a:	2b00      	cmp	r3, #0
 800519c:	d004      	beq.n	80051a8 <DMA_SetConfig+0x2a>
 800519e:	68fb      	ldr	r3, [r7, #12]
 80051a0:	6d9b      	ldr	r3, [r3, #88]	; 0x58
 80051a2:	68fa      	ldr	r2, [r7, #12]
 80051a4:	6dd2      	ldr	r2, [r2, #92]	; 0x5c
 80051a6:	605a      	str	r2, [r3, #4]
 80051a8:	68fb      	ldr	r3, [r7, #12]
 80051aa:	6c5b      	ldr	r3, [r3, #68]	; 0x44
 80051ac:	f003 021f 	and.w	r2, r3, #31
 80051b0:	68fb      	ldr	r3, [r7, #12]
 80051b2:	6c1b      	ldr	r3, [r3, #64]	; 0x40
 80051b4:	2101      	movs	r1, #1
 80051b6:	fa01 f202 	lsl.w	r2, r1, r2
 80051ba:	605a      	str	r2, [r3, #4]
 80051bc:	68fb      	ldr	r3, [r7, #12]
 80051be:	681b      	ldr	r3, [r3, #0]
 80051c0:	683a      	ldr	r2, [r7, #0]
 80051c2:	605a      	str	r2, [r3, #4]
 80051c4:	68fb      	ldr	r3, [r7, #12]
 80051c6:	689b      	ldr	r3, [r3, #8]
 80051c8:	2b10      	cmp	r3, #16
 80051ca:	d108      	bne.n	80051de <DMA_SetConfig+0x60>
 80051cc:	68fb      	ldr	r3, [r7, #12]
 80051ce:	681b      	ldr	r3, [r3, #0]
 80051d0:	687a      	ldr	r2, [r7, #4]
 80051d2:	609a      	str	r2, [r3, #8]
 80051d4:	68fb      	ldr	r3, [r7, #12]
 80051d6:	681b      	ldr	r3, [r3, #0]
 80051d8:	68ba      	ldr	r2, [r7, #8]
 80051da:	60da      	str	r2, [r3, #12]
 80051dc:	e007      	b.n	80051ee <DMA_SetConfig+0x70>
 80051de:	68fb      	ldr	r3, [r7, #12]
 80051e0:	681b      	ldr	r3, [r3, #0]
 80051e2:	68ba      	ldr	r2, [r7, #8]
 80051e4:	609a      	str	r2, [r3, #8]
 80051e6:	68fb      	ldr	r3, [r7, #12]
 80051e8:	681b      	ldr	r3, [r3, #0]
 80051ea:	687a      	ldr	r2, [r7, #4]
 80051ec:	60da      	str	r2, [r3, #12]
 80051ee:	bf00      	nop
 80051f0:	3714      	adds	r7, #20
 80051f2:	46bd      	mov	sp, r7
 80051f4:	f85d 7b04 	ldr.w	r7, [sp], #4
 80051f8:	4770      	bx	lr
	...

080051fc <DMA_CalcDMAMUXChannelBaseAndMask>:
 80051fc:	b480      	push	{r7}
 80051fe:	b087      	sub	sp, #28
 8005200:	af00      	add	r7, sp, #0
 8005202:	6078      	str	r0, [r7, #4]
 8005204:	687b      	ldr	r3, [r7, #4]
 8005206:	681b      	ldr	r3, [r3, #0]
 8005208:	461a      	mov	r2, r3
 800520a:	4b16      	ldr	r3, [pc, #88]	; (8005264 <DMA_CalcDMAMUXChannelBaseAndMask+0x68>)
 800520c:	429a      	cmp	r2, r3
 800520e:	d802      	bhi.n	8005216 <DMA_CalcDMAMUXChannelBaseAndMask+0x1a>
 8005210:	4b15      	ldr	r3, [pc, #84]	; (8005268 <DMA_CalcDMAMUXChannelBaseAndMask+0x6c>)
 8005212:	617b      	str	r3, [r7, #20]
 8005214:	e001      	b.n	800521a <DMA_CalcDMAMUXChannelBaseAndMask+0x1e>
 8005216:	4b15      	ldr	r3, [pc, #84]	; (800526c <DMA_CalcDMAMUXChannelBaseAndMask+0x70>)
 8005218:	617b      	str	r3, [r7, #20]
 800521a:	697b      	ldr	r3, [r7, #20]
 800521c:	613b      	str	r3, [r7, #16]
 800521e:	687b      	ldr	r3, [r7, #4]
 8005220:	681b      	ldr	r3, [r3, #0]
 8005222:	b2db      	uxtb	r3, r3
 8005224:	3b08      	subs	r3, #8
 8005226:	4a12      	ldr	r2, [pc, #72]	; (8005270 <DMA_CalcDMAMUXChannelBaseAndMask+0x74>)
 8005228:	fba2 2303 	umull	r2, r3, r2, r3
 800522c:	091b      	lsrs	r3, r3, #4
 800522e:	60fb      	str	r3, [r7, #12]
 8005230:	687b      	ldr	r3, [r7, #4]
 8005232:	6c5b      	ldr	r3, [r3, #68]	; 0x44
 8005234:	089b      	lsrs	r3, r3, #2
 8005236:	009a      	lsls	r2, r3, #2
 8005238:	693b      	ldr	r3, [r7, #16]
 800523a:	4413      	add	r3, r2
 800523c:	461a      	mov	r2, r3
 800523e:	687b      	ldr	r3, [r7, #4]
 8005240:	649a      	str	r2, [r3, #72]	; 0x48
 8005242:	687b      	ldr	r3, [r7, #4]
 8005244:	4a0b      	ldr	r2, [pc, #44]	; (8005274 <DMA_CalcDMAMUXChannelBaseAndMask+0x78>)
 8005246:	64da      	str	r2, [r3, #76]	; 0x4c
 8005248:	68fb      	ldr	r3, [r7, #12]
 800524a:	f003 031f 	and.w	r3, r3, #31
 800524e:	2201      	movs	r2, #1
 8005250:	409a      	lsls	r2, r3
 8005252:	687b      	ldr	r3, [r7, #4]
 8005254:	651a      	str	r2, [r3, #80]	; 0x50
 8005256:	bf00      	nop
 8005258:	371c      	adds	r7, #28
 800525a:	46bd      	mov	sp, r7
 800525c:	f85d 7b04 	ldr.w	r7, [sp], #4
 8005260:	4770      	bx	lr
 8005262:	bf00      	nop
 8005264:	40020407 	.word	0x40020407
 8005268:	40020800 	.word	0x40020800
 800526c:	40020820 	.word	0x40020820
 8005270:	cccccccd 	.word	0xcccccccd
 8005274:	40020880 	.word	0x40020880

08005278 <DMA_CalcDMAMUXRequestGenBaseAndMask>:
 8005278:	b480      	push	{r7}
 800527a:	b085      	sub	sp, #20
 800527c:	af00      	add	r7, sp, #0
 800527e:	6078      	str	r0, [r7, #4]
 8005280:	687b      	ldr	r3, [r7, #4]
 8005282:	685b      	ldr	r3, [r3, #4]
 8005284:	b2db      	uxtb	r3, r3
 8005286:	60fb      	str	r3, [r7, #12]
 8005288:	68fa      	ldr	r2, [r7, #12]
 800528a:	4b0b      	ldr	r3, [pc, #44]	; (80052b8 <DMA_CalcDMAMUXRequestGenBaseAndMask+0x40>)
 800528c:	4413      	add	r3, r2
 800528e:	009b      	lsls	r3, r3, #2
 8005290:	461a      	mov	r2, r3
 8005292:	687b      	ldr	r3, [r7, #4]
 8005294:	655a      	str	r2, [r3, #84]	; 0x54
 8005296:	687b      	ldr	r3, [r7, #4]
 8005298:	4a08      	ldr	r2, [pc, #32]	; (80052bc <DMA_CalcDMAMUXRequestGenBaseAndMask+0x44>)
 800529a:	659a      	str	r2, [r3, #88]	; 0x58
 800529c:	68fb      	ldr	r3, [r7, #12]
 800529e:	3b01      	subs	r3, #1
 80052a0:	f003 031f 	and.w	r3, r3, #31
 80052a4:	2201      	movs	r2, #1
 80052a6:	409a      	lsls	r2, r3
 80052a8:	687b      	ldr	r3, [r7, #4]
 80052aa:	65da      	str	r2, [r3, #92]	; 0x5c
 80052ac:	bf00      	nop
 80052ae:	3714      	adds	r7, #20
 80052b0:	46bd      	mov	sp, r7
 80052b2:	f85d 7b04 	ldr.w	r7, [sp], #4
 80052b6:	4770      	bx	lr
 80052b8:	1000823f 	.word	0x1000823f
 80052bc:	40020940 	.word	0x40020940

080052c0 <HAL_GPIO_Init>:
 80052c0:	b480      	push	{r7}
 80052c2:	b087      	sub	sp, #28
 80052c4:	af00      	add	r7, sp, #0
 80052c6:	6078      	str	r0, [r7, #4]
 80052c8:	6039      	str	r1, [r7, #0]
 80052ca:	2300      	movs	r3, #0
 80052cc:	617b      	str	r3, [r7, #20]
 80052ce:	e15a      	b.n	8005586 <HAL_GPIO_Init+0x2c6>
 80052d0:	683b      	ldr	r3, [r7, #0]
 80052d2:	681a      	ldr	r2, [r3, #0]
 80052d4:	2101      	movs	r1, #1
 80052d6:	697b      	ldr	r3, [r7, #20]
 80052d8:	fa01 f303 	lsl.w	r3, r1, r3
 80052dc:	4013      	ands	r3, r2
 80052de:	60fb      	str	r3, [r7, #12]
 80052e0:	68fb      	ldr	r3, [r7, #12]
 80052e2:	2b00      	cmp	r3, #0
 80052e4:	f000 814c 	beq.w	8005580 <HAL_GPIO_Init+0x2c0>
 80052e8:	683b      	ldr	r3, [r7, #0]
 80052ea:	685b      	ldr	r3, [r3, #4]
 80052ec:	f003 0303 	and.w	r3, r3, #3
 80052f0:	2b01      	cmp	r3, #1
 80052f2:	d005      	beq.n	8005300 <HAL_GPIO_Init+0x40>
 80052f4:	683b      	ldr	r3, [r7, #0]
 80052f6:	685b      	ldr	r3, [r3, #4]
 80052f8:	f003 0303 	and.w	r3, r3, #3
 80052fc:	2b02      	cmp	r3, #2
 80052fe:	d130      	bne.n	8005362 <HAL_GPIO_Init+0xa2>
 8005300:	687b      	ldr	r3, [r7, #4]
 8005302:	689b      	ldr	r3, [r3, #8]
 8005304:	613b      	str	r3, [r7, #16]
 8005306:	697b      	ldr	r3, [r7, #20]
 8005308:	005b      	lsls	r3, r3, #1
 800530a:	2203      	movs	r2, #3
 800530c:	fa02 f303 	lsl.w	r3, r2, r3
 8005310:	43db      	mvns	r3, r3
 8005312:	693a      	ldr	r2, [r7, #16]
 8005314:	4013      	ands	r3, r2
 8005316:	613b      	str	r3, [r7, #16]
 8005318:	683b      	ldr	r3, [r7, #0]
 800531a:	68da      	ldr	r2, [r3, #12]
 800531c:	697b      	ldr	r3, [r7, #20]
 800531e:	005b      	lsls	r3, r3, #1
 8005320:	fa02 f303 	lsl.w	r3, r2, r3
 8005324:	693a      	ldr	r2, [r7, #16]
 8005326:	4313      	orrs	r3, r2
 8005328:	613b      	str	r3, [r7, #16]
 800532a:	687b      	ldr	r3, [r7, #4]
 800532c:	693a      	ldr	r2, [r7, #16]
 800532e:	609a      	str	r2, [r3, #8]
 8005330:	687b      	ldr	r3, [r7, #4]
 8005332:	685b      	ldr	r3, [r3, #4]
 8005334:	613b      	str	r3, [r7, #16]
 8005336:	2201      	movs	r2, #1
 8005338:	697b      	ldr	r3, [r7, #20]
 800533a:	fa02 f303 	lsl.w	r3, r2, r3
 800533e:	43db      	mvns	r3, r3
 8005340:	693a      	ldr	r2, [r7, #16]
 8005342:	4013      	ands	r3, r2
 8005344:	613b      	str	r3, [r7, #16]
 8005346:	683b      	ldr	r3, [r7, #0]
 8005348:	685b      	ldr	r3, [r3, #4]
 800534a:	091b      	lsrs	r3, r3, #4
 800534c:	f003 0201 	and.w	r2, r3, #1
 8005350:	697b      	ldr	r3, [r7, #20]
 8005352:	fa02 f303 	lsl.w	r3, r2, r3
 8005356:	693a      	ldr	r2, [r7, #16]
 8005358:	4313      	orrs	r3, r2
 800535a:	613b      	str	r3, [r7, #16]
 800535c:	687b      	ldr	r3, [r7, #4]
 800535e:	693a      	ldr	r2, [r7, #16]
 8005360:	605a      	str	r2, [r3, #4]
 8005362:	683b      	ldr	r3, [r7, #0]
 8005364:	685b      	ldr	r3, [r3, #4]
 8005366:	f003 0303 	and.w	r3, r3, #3
 800536a:	2b03      	cmp	r3, #3
 800536c:	d017      	beq.n	800539e <HAL_GPIO_Init+0xde>
 800536e:	687b      	ldr	r3, [r7, #4]
 8005370:	68db      	ldr	r3, [r3, #12]
 8005372:	613b      	str	r3, [r7, #16]
 8005374:	697b      	ldr	r3, [r7, #20]
 8005376:	005b      	lsls	r3, r3, #1
 8005378:	2203      	movs	r2, #3
 800537a:	fa02 f303 	lsl.w	r3, r2, r3
 800537e:	43db      	mvns	r3, r3
 8005380:	693a      	ldr	r2, [r7, #16]
 8005382:	4013      	ands	r3, r2
 8005384:	613b      	str	r3, [r7, #16]
 8005386:	683b      	ldr	r3, [r7, #0]
 8005388:	689a      	ldr	r2, [r3, #8]
 800538a:	697b      	ldr	r3, [r7, #20]
 800538c:	005b      	lsls	r3, r3, #1
 800538e:	fa02 f303 	lsl.w	r3, r2, r3
 8005392:	693a      	ldr	r2, [r7, #16]
 8005394:	4313      	orrs	r3, r2
 8005396:	613b      	str	r3, [r7, #16]
 8005398:	687b      	ldr	r3, [r7, #4]
 800539a:	693a      	ldr	r2, [r7, #16]
 800539c:	60da      	str	r2, [r3, #12]
 800539e:	683b      	ldr	r3, [r7, #0]
 80053a0:	685b      	ldr	r3, [r3, #4]
 80053a2:	f003 0303 	and.w	r3, r3, #3
 80053a6:	2b02      	cmp	r3, #2
 80053a8:	d123      	bne.n	80053f2 <HAL_GPIO_Init+0x132>
 80053aa:	697b      	ldr	r3, [r7, #20]
 80053ac:	08da      	lsrs	r2, r3, #3
 80053ae:	687b      	ldr	r3, [r7, #4]
 80053b0:	3208      	adds	r2, #8
 80053b2:	f853 3022 	ldr.w	r3, [r3, r2, lsl #2]
 80053b6:	613b      	str	r3, [r7, #16]
 80053b8:	697b      	ldr	r3, [r7, #20]
 80053ba:	f003 0307 	and.w	r3, r3, #7
 80053be:	009b      	lsls	r3, r3, #2
 80053c0:	220f      	movs	r2, #15
 80053c2:	fa02 f303 	lsl.w	r3, r2, r3
 80053c6:	43db      	mvns	r3, r3
 80053c8:	693a      	ldr	r2, [r7, #16]
 80053ca:	4013      	ands	r3, r2
 80053cc:	613b      	str	r3, [r7, #16]
 80053ce:	683b      	ldr	r3, [r7, #0]
 80053d0:	691a      	ldr	r2, [r3, #16]
 80053d2:	697b      	ldr	r3, [r7, #20]
 80053d4:	f003 0307 	and.w	r3, r3, #7
 80053d8:	009b      	lsls	r3, r3, #2
 80053da:	fa02 f303 	lsl.w	r3, r2, r3
 80053de:	693a      	ldr	r2, [r7, #16]
 80053e0:	4313      	orrs	r3, r2
 80053e2:	613b      	str	r3, [r7, #16]
 80053e4:	697b      	ldr	r3, [r7, #20]
 80053e6:	08da      	lsrs	r2, r3, #3
 80053e8:	687b      	ldr	r3, [r7, #4]
 80053ea:	3208      	adds	r2, #8
 80053ec:	6939      	ldr	r1, [r7, #16]
 80053ee:	f843 1022 	str.w	r1, [r3, r2, lsl #2]
 80053f2:	687b      	ldr	r3, [r7, #4]
 80053f4:	681b      	ldr	r3, [r3, #0]
 80053f6:	613b      	str	r3, [r7, #16]
 80053f8:	697b      	ldr	r3, [r7, #20]
 80053fa:	005b      	lsls	r3, r3, #1
 80053fc:	2203      	movs	r2, #3
 80053fe:	fa02 f303 	lsl.w	r3, r2, r3
 8005402:	43db      	mvns	r3, r3
 8005404:	693a      	ldr	r2, [r7, #16]
 8005406:	4013      	ands	r3, r2
 8005408:	613b      	str	r3, [r7, #16]
 800540a:	683b      	ldr	r3, [r7, #0]
 800540c:	685b      	ldr	r3, [r3, #4]
 800540e:	f003 0203 	and.w	r2, r3, #3
 8005412:	697b      	ldr	r3, [r7, #20]
 8005414:	005b      	lsls	r3, r3, #1
 8005416:	fa02 f303 	lsl.w	r3, r2, r3
 800541a:	693a      	ldr	r2, [r7, #16]
 800541c:	4313      	orrs	r3, r2
 800541e:	613b      	str	r3, [r7, #16]
 8005420:	687b      	ldr	r3, [r7, #4]
 8005422:	693a      	ldr	r2, [r7, #16]
 8005424:	601a      	str	r2, [r3, #0]
 8005426:	683b      	ldr	r3, [r7, #0]
 8005428:	685b      	ldr	r3, [r3, #4]
 800542a:	f403 3340 	and.w	r3, r3, #196608	; 0x30000
 800542e:	2b00      	cmp	r3, #0
 8005430:	f000 80a6 	beq.w	8005580 <HAL_GPIO_Init+0x2c0>
 8005434:	4b5b      	ldr	r3, [pc, #364]	; (80055a4 <HAL_GPIO_Init+0x2e4>)
 8005436:	6e1b      	ldr	r3, [r3, #96]	; 0x60
 8005438:	4a5a      	ldr	r2, [pc, #360]	; (80055a4 <HAL_GPIO_Init+0x2e4>)
 800543a:	f043 0301 	orr.w	r3, r3, #1
 800543e:	6613      	str	r3, [r2, #96]	; 0x60
 8005440:	4b58      	ldr	r3, [pc, #352]	; (80055a4 <HAL_GPIO_Init+0x2e4>)
 8005442:	6e1b      	ldr	r3, [r3, #96]	; 0x60
 8005444:	f003 0301 	and.w	r3, r3, #1
 8005448:	60bb      	str	r3, [r7, #8]
 800544a:	68bb      	ldr	r3, [r7, #8]
 800544c:	4a56      	ldr	r2, [pc, #344]	; (80055a8 <HAL_GPIO_Init+0x2e8>)
 800544e:	697b      	ldr	r3, [r7, #20]
 8005450:	089b      	lsrs	r3, r3, #2
 8005452:	3302      	adds	r3, #2
 8005454:	f852 3023 	ldr.w	r3, [r2, r3, lsl #2]
 8005458:	613b      	str	r3, [r7, #16]
 800545a:	697b      	ldr	r3, [r7, #20]
 800545c:	f003 0303 	and.w	r3, r3, #3
 8005460:	009b      	lsls	r3, r3, #2
 8005462:	220f      	movs	r2, #15
 8005464:	fa02 f303 	lsl.w	r3, r2, r3
 8005468:	43db      	mvns	r3, r3
 800546a:	693a      	ldr	r2, [r7, #16]
 800546c:	4013      	ands	r3, r2
 800546e:	613b      	str	r3, [r7, #16]
 8005470:	687b      	ldr	r3, [r7, #4]
 8005472:	f1b3 4f90 	cmp.w	r3, #1207959552	; 0x48000000
 8005476:	d01f      	beq.n	80054b8 <HAL_GPIO_Init+0x1f8>
 8005478:	687b      	ldr	r3, [r7, #4]
 800547a:	4a4c      	ldr	r2, [pc, #304]	; (80055ac <HAL_GPIO_Init+0x2ec>)
 800547c:	4293      	cmp	r3, r2
 800547e:	d019      	beq.n	80054b4 <HAL_GPIO_Init+0x1f4>
 8005480:	687b      	ldr	r3, [r7, #4]
 8005482:	4a4b      	ldr	r2, [pc, #300]	; (80055b0 <HAL_GPIO_Init+0x2f0>)
 8005484:	4293      	cmp	r3, r2
 8005486:	d013      	beq.n	80054b0 <HAL_GPIO_Init+0x1f0>
 8005488:	687b      	ldr	r3, [r7, #4]
 800548a:	4a4a      	ldr	r2, [pc, #296]	; (80055b4 <HAL_GPIO_Init+0x2f4>)
 800548c:	4293      	cmp	r3, r2
 800548e:	d00d      	beq.n	80054ac <HAL_GPIO_Init+0x1ec>
 8005490:	687b      	ldr	r3, [r7, #4]
 8005492:	4a49      	ldr	r2, [pc, #292]	; (80055b8 <HAL_GPIO_Init+0x2f8>)
 8005494:	4293      	cmp	r3, r2
 8005496:	d007      	beq.n	80054a8 <HAL_GPIO_Init+0x1e8>
 8005498:	687b      	ldr	r3, [r7, #4]
 800549a:	4a48      	ldr	r2, [pc, #288]	; (80055bc <HAL_GPIO_Init+0x2fc>)
 800549c:	4293      	cmp	r3, r2
 800549e:	d101      	bne.n	80054a4 <HAL_GPIO_Init+0x1e4>
 80054a0:	2305      	movs	r3, #5
 80054a2:	e00a      	b.n	80054ba <HAL_GPIO_Init+0x1fa>
 80054a4:	2306      	movs	r3, #6
 80054a6:	e008      	b.n	80054ba <HAL_GPIO_Init+0x1fa>
 80054a8:	2304      	movs	r3, #4
 80054aa:	e006      	b.n	80054ba <HAL_GPIO_Init+0x1fa>
 80054ac:	2303      	movs	r3, #3
 80054ae:	e004      	b.n	80054ba <HAL_GPIO_Init+0x1fa>
 80054b0:	2302      	movs	r3, #2
 80054b2:	e002      	b.n	80054ba <HAL_GPIO_Init+0x1fa>
 80054b4:	2301      	movs	r3, #1
 80054b6:	e000      	b.n	80054ba <HAL_GPIO_Init+0x1fa>
 80054b8:	2300      	movs	r3, #0
 80054ba:	697a      	ldr	r2, [r7, #20]
 80054bc:	f002 0203 	and.w	r2, r2, #3
 80054c0:	0092      	lsls	r2, r2, #2
 80054c2:	4093      	lsls	r3, r2
 80054c4:	693a      	ldr	r2, [r7, #16]
 80054c6:	4313      	orrs	r3, r2
 80054c8:	613b      	str	r3, [r7, #16]
 80054ca:	4937      	ldr	r1, [pc, #220]	; (80055a8 <HAL_GPIO_Init+0x2e8>)
 80054cc:	697b      	ldr	r3, [r7, #20]
 80054ce:	089b      	lsrs	r3, r3, #2
 80054d0:	3302      	adds	r3, #2
 80054d2:	693a      	ldr	r2, [r7, #16]
 80054d4:	f841 2023 	str.w	r2, [r1, r3, lsl #2]
 80054d8:	4b39      	ldr	r3, [pc, #228]	; (80055c0 <HAL_GPIO_Init+0x300>)
 80054da:	689b      	ldr	r3, [r3, #8]
 80054dc:	613b      	str	r3, [r7, #16]
 80054de:	68fb      	ldr	r3, [r7, #12]
 80054e0:	43db      	mvns	r3, r3
 80054e2:	693a      	ldr	r2, [r7, #16]
 80054e4:	4013      	ands	r3, r2
 80054e6:	613b      	str	r3, [r7, #16]
 80054e8:	683b      	ldr	r3, [r7, #0]
 80054ea:	685b      	ldr	r3, [r3, #4]
 80054ec:	f403 1380 	and.w	r3, r3, #1048576	; 0x100000
 80054f0:	2b00      	cmp	r3, #0
 80054f2:	d003      	beq.n	80054fc <HAL_GPIO_Init+0x23c>
 80054f4:	693a      	ldr	r2, [r7, #16]
 80054f6:	68fb      	ldr	r3, [r7, #12]
 80054f8:	4313      	orrs	r3, r2
 80054fa:	613b      	str	r3, [r7, #16]
 80054fc:	4a30      	ldr	r2, [pc, #192]	; (80055c0 <HAL_GPIO_Init+0x300>)
 80054fe:	693b      	ldr	r3, [r7, #16]
 8005500:	6093      	str	r3, [r2, #8]
 8005502:	4b2f      	ldr	r3, [pc, #188]	; (80055c0 <HAL_GPIO_Init+0x300>)
 8005504:	68db      	ldr	r3, [r3, #12]
 8005506:	613b      	str	r3, [r7, #16]
 8005508:	68fb      	ldr	r3, [r7, #12]
 800550a:	43db      	mvns	r3, r3
 800550c:	693a      	ldr	r2, [r7, #16]
 800550e:	4013      	ands	r3, r2
 8005510:	613b      	str	r3, [r7, #16]
 8005512:	683b      	ldr	r3, [r7, #0]
 8005514:	685b      	ldr	r3, [r3, #4]
 8005516:	f403 1300 	and.w	r3, r3, #2097152	; 0x200000
 800551a:	2b00      	cmp	r3, #0
 800551c:	d003      	beq.n	8005526 <HAL_GPIO_Init+0x266>
 800551e:	693a      	ldr	r2, [r7, #16]
 8005520:	68fb      	ldr	r3, [r7, #12]
 8005522:	4313      	orrs	r3, r2
 8005524:	613b      	str	r3, [r7, #16]
 8005526:	4a26      	ldr	r2, [pc, #152]	; (80055c0 <HAL_GPIO_Init+0x300>)
 8005528:	693b      	ldr	r3, [r7, #16]
 800552a:	60d3      	str	r3, [r2, #12]
 800552c:	4b24      	ldr	r3, [pc, #144]	; (80055c0 <HAL_GPIO_Init+0x300>)
 800552e:	685b      	ldr	r3, [r3, #4]
 8005530:	613b      	str	r3, [r7, #16]
 8005532:	68fb      	ldr	r3, [r7, #12]
 8005534:	43db      	mvns	r3, r3
 8005536:	693a      	ldr	r2, [r7, #16]
 8005538:	4013      	ands	r3, r2
 800553a:	613b      	str	r3, [r7, #16]
 800553c:	683b      	ldr	r3, [r7, #0]
 800553e:	685b      	ldr	r3, [r3, #4]
 8005540:	f403 3300 	and.w	r3, r3, #131072	; 0x20000
 8005544:	2b00      	cmp	r3, #0
 8005546:	d003      	beq.n	8005550 <HAL_GPIO_Init+0x290>
 8005548:	693a      	ldr	r2, [r7, #16]
 800554a:	68fb      	ldr	r3, [r7, #12]
 800554c:	4313      	orrs	r3, r2
 800554e:	613b      	str	r3, [r7, #16]
 8005550:	4a1b      	ldr	r2, [pc, #108]	; (80055c0 <HAL_GPIO_Init+0x300>)
 8005552:	693b      	ldr	r3, [r7, #16]
 8005554:	6053      	str	r3, [r2, #4]
 8005556:	4b1a      	ldr	r3, [pc, #104]	; (80055c0 <HAL_GPIO_Init+0x300>)
 8005558:	681b      	ldr	r3, [r3, #0]
 800555a:	613b      	str	r3, [r7, #16]
 800555c:	68fb      	ldr	r3, [r7, #12]
 800555e:	43db      	mvns	r3, r3
 8005560:	693a      	ldr	r2, [r7, #16]
 8005562:	4013      	ands	r3, r2
 8005564:	613b      	str	r3, [r7, #16]
 8005566:	683b      	ldr	r3, [r7, #0]
 8005568:	685b      	ldr	r3, [r3, #4]
 800556a:	f403 3380 	and.w	r3, r3, #65536	; 0x10000
 800556e:	2b00      	cmp	r3, #0
 8005570:	d003      	beq.n	800557a <HAL_GPIO_Init+0x2ba>
 8005572:	693a      	ldr	r2, [r7, #16]
 8005574:	68fb      	ldr	r3, [r7, #12]
 8005576:	4313      	orrs	r3, r2
 8005578:	613b      	str	r3, [r7, #16]
 800557a:	4a11      	ldr	r2, [pc, #68]	; (80055c0 <HAL_GPIO_Init+0x300>)
 800557c:	693b      	ldr	r3, [r7, #16]
 800557e:	6013      	str	r3, [r2, #0]
 8005580:	697b      	ldr	r3, [r7, #20]
 8005582:	3301      	adds	r3, #1
 8005584:	617b      	str	r3, [r7, #20]
 8005586:	683b      	ldr	r3, [r7, #0]
 8005588:	681a      	ldr	r2, [r3, #0]
 800558a:	697b      	ldr	r3, [r7, #20]
 800558c:	fa22 f303 	lsr.w	r3, r2, r3
 8005590:	2b00      	cmp	r3, #0
 8005592:	f47f ae9d 	bne.w	80052d0 <HAL_GPIO_Init+0x10>
 8005596:	bf00      	nop
 8005598:	bf00      	nop
 800559a:	371c      	adds	r7, #28
 800559c:	46bd      	mov	sp, r7
 800559e:	f85d 7b04 	ldr.w	r7, [sp], #4
 80055a2:	4770      	bx	lr
 80055a4:	40021000 	.word	0x40021000
 80055a8:	40010000 	.word	0x40010000
 80055ac:	48000400 	.word	0x48000400
 80055b0:	48000800 	.word	0x48000800
 80055b4:	48000c00 	.word	0x48000c00
 80055b8:	48001000 	.word	0x48001000
 80055bc:	48001400 	.word	0x48001400
 80055c0:	40010400 	.word	0x40010400

080055c4 <HAL_GPIO_WritePin>:
 80055c4:	b480      	push	{r7}
 80055c6:	b083      	sub	sp, #12
 80055c8:	af00      	add	r7, sp, #0
 80055ca:	6078      	str	r0, [r7, #4]
 80055cc:	460b      	mov	r3, r1
 80055ce:	807b      	strh	r3, [r7, #2]
 80055d0:	4613      	mov	r3, r2
 80055d2:	707b      	strb	r3, [r7, #1]
 80055d4:	787b      	ldrb	r3, [r7, #1]
 80055d6:	2b00      	cmp	r3, #0
 80055d8:	d003      	beq.n	80055e2 <HAL_GPIO_WritePin+0x1e>
 80055da:	887a      	ldrh	r2, [r7, #2]
 80055dc:	687b      	ldr	r3, [r7, #4]
 80055de:	619a      	str	r2, [r3, #24]
 80055e0:	e002      	b.n	80055e8 <HAL_GPIO_WritePin+0x24>
 80055e2:	887a      	ldrh	r2, [r7, #2]
 80055e4:	687b      	ldr	r3, [r7, #4]
 80055e6:	629a      	str	r2, [r3, #40]	; 0x28
 80055e8:	bf00      	nop
 80055ea:	370c      	adds	r7, #12
 80055ec:	46bd      	mov	sp, r7
 80055ee:	f85d 7b04 	ldr.w	r7, [sp], #4
 80055f2:	4770      	bx	lr

080055f4 <HAL_GPIO_TogglePin>:
 80055f4:	b480      	push	{r7}
 80055f6:	b085      	sub	sp, #20
 80055f8:	af00      	add	r7, sp, #0
 80055fa:	6078      	str	r0, [r7, #4]
 80055fc:	460b      	mov	r3, r1
 80055fe:	807b      	strh	r3, [r7, #2]
 8005600:	687b      	ldr	r3, [r7, #4]
 8005602:	695b      	ldr	r3, [r3, #20]
 8005604:	60fb      	str	r3, [r7, #12]
 8005606:	887a      	ldrh	r2, [r7, #2]
 8005608:	68fb      	ldr	r3, [r7, #12]
 800560a:	4013      	ands	r3, r2
 800560c:	041a      	lsls	r2, r3, #16
 800560e:	68fb      	ldr	r3, [r7, #12]
 8005610:	43d9      	mvns	r1, r3
 8005612:	887b      	ldrh	r3, [r7, #2]
 8005614:	400b      	ands	r3, r1
 8005616:	431a      	orrs	r2, r3
 8005618:	687b      	ldr	r3, [r7, #4]
 800561a:	619a      	str	r2, [r3, #24]
 800561c:	bf00      	nop
 800561e:	3714      	adds	r7, #20
 8005620:	46bd      	mov	sp, r7
 8005622:	f85d 7b04 	ldr.w	r7, [sp], #4
 8005626:	4770      	bx	lr

08005628 <HAL_OPAMP_Init>:
 8005628:	b580      	push	{r7, lr}
 800562a:	b084      	sub	sp, #16
 800562c:	af00      	add	r7, sp, #0
 800562e:	6078      	str	r0, [r7, #4]
 8005630:	2300      	movs	r3, #0
 8005632:	73fb      	strb	r3, [r7, #15]
 8005634:	687b      	ldr	r3, [r7, #4]
 8005636:	2b00      	cmp	r3, #0
 8005638:	d101      	bne.n	800563e <HAL_OPAMP_Init+0x16>
 800563a:	2301      	movs	r3, #1
 800563c:	e0bb      	b.n	80057b6 <HAL_OPAMP_Init+0x18e>
 800563e:	687b      	ldr	r3, [r7, #4]
 8005640:	f893 303a 	ldrb.w	r3, [r3, #58]	; 0x3a
 8005644:	b2db      	uxtb	r3, r3
 8005646:	2b05      	cmp	r3, #5
 8005648:	d101      	bne.n	800564e <HAL_OPAMP_Init+0x26>
 800564a:	2301      	movs	r3, #1
 800564c:	e0b3      	b.n	80057b6 <HAL_OPAMP_Init+0x18e>
 800564e:	687b      	ldr	r3, [r7, #4]
 8005650:	f893 303a 	ldrb.w	r3, [r3, #58]	; 0x3a
 8005654:	b2db      	uxtb	r3, r3
 8005656:	2b02      	cmp	r3, #2
 8005658:	d101      	bne.n	800565e <HAL_OPAMP_Init+0x36>
 800565a:	2301      	movs	r3, #1
 800565c:	e0ab      	b.n	80057b6 <HAL_OPAMP_Init+0x18e>
 800565e:	4b58      	ldr	r3, [pc, #352]	; (80057c0 <HAL_OPAMP_Init+0x198>)
 8005660:	6e1b      	ldr	r3, [r3, #96]	; 0x60
 8005662:	4a57      	ldr	r2, [pc, #348]	; (80057c0 <HAL_OPAMP_Init+0x198>)
 8005664:	f043 0301 	orr.w	r3, r3, #1
 8005668:	6613      	str	r3, [r2, #96]	; 0x60
 800566a:	4b55      	ldr	r3, [pc, #340]	; (80057c0 <HAL_OPAMP_Init+0x198>)
 800566c:	6e1b      	ldr	r3, [r3, #96]	; 0x60
 800566e:	f003 0301 	and.w	r3, r3, #1
 8005672:	60bb      	str	r3, [r7, #8]
 8005674:	68bb      	ldr	r3, [r7, #8]
 8005676:	687b      	ldr	r3, [r7, #4]
 8005678:	f893 303a 	ldrb.w	r3, [r3, #58]	; 0x3a
 800567c:	b2db      	uxtb	r3, r3
 800567e:	2b00      	cmp	r3, #0
 8005680:	d103      	bne.n	800568a <HAL_OPAMP_Init+0x62>
 8005682:	687b      	ldr	r3, [r7, #4]
 8005684:	2200      	movs	r2, #0
 8005686:	f883 2039 	strb.w	r2, [r3, #57]	; 0x39
 800568a:	6878      	ldr	r0, [r7, #4]
 800568c:	f7fc fa46 	bl	8001b1c <HAL_OPAMP_MspInit>
 8005690:	687b      	ldr	r3, [r7, #4]
 8005692:	689b      	ldr	r3, [r3, #8]
 8005694:	2b40      	cmp	r3, #64	; 0x40
 8005696:	d003      	beq.n	80056a0 <HAL_OPAMP_Init+0x78>
 8005698:	687b      	ldr	r3, [r7, #4]
 800569a:	689b      	ldr	r3, [r3, #8]
 800569c:	2b60      	cmp	r3, #96	; 0x60
 800569e:	d133      	bne.n	8005708 <HAL_OPAMP_Init+0xe0>
 80056a0:	687b      	ldr	r3, [r7, #4]
 80056a2:	681b      	ldr	r3, [r3, #0]
 80056a4:	681b      	ldr	r3, [r3, #0]
 80056a6:	f023 0110 	bic.w	r1, r3, #16
 80056aa:	687b      	ldr	r3, [r7, #4]
 80056ac:	6ada      	ldr	r2, [r3, #44]	; 0x2c
 80056ae:	687b      	ldr	r3, [r7, #4]
 80056b0:	681b      	ldr	r3, [r3, #0]
 80056b2:	430a      	orrs	r2, r1
 80056b4:	601a      	str	r2, [r3, #0]
 80056b6:	687b      	ldr	r3, [r7, #4]
 80056b8:	681b      	ldr	r3, [r3, #0]
 80056ba:	681a      	ldr	r2, [r3, #0]
 80056bc:	4b41      	ldr	r3, [pc, #260]	; (80057c4 <HAL_OPAMP_Init+0x19c>)
 80056be:	4013      	ands	r3, r2
 80056c0:	687a      	ldr	r2, [r7, #4]
 80056c2:	6851      	ldr	r1, [r2, #4]
 80056c4:	687a      	ldr	r2, [r7, #4]
 80056c6:	6892      	ldr	r2, [r2, #8]
 80056c8:	4311      	orrs	r1, r2
 80056ca:	687a      	ldr	r2, [r7, #4]
 80056cc:	6912      	ldr	r2, [r2, #16]
 80056ce:	430a      	orrs	r2, r1
 80056d0:	6879      	ldr	r1, [r7, #4]
 80056d2:	7d09      	ldrb	r1, [r1, #20]
 80056d4:	2901      	cmp	r1, #1
 80056d6:	d102      	bne.n	80056de <HAL_OPAMP_Init+0xb6>
 80056d8:	f44f 7180 	mov.w	r1, #256	; 0x100
 80056dc:	e000      	b.n	80056e0 <HAL_OPAMP_Init+0xb8>
 80056de:	2100      	movs	r1, #0
 80056e0:	4311      	orrs	r1, r2
 80056e2:	687a      	ldr	r2, [r7, #4]
 80056e4:	6a52      	ldr	r2, [r2, #36]	; 0x24
 80056e6:	4311      	orrs	r1, r2
 80056e8:	687a      	ldr	r2, [r7, #4]
 80056ea:	6a92      	ldr	r2, [r2, #40]	; 0x28
 80056ec:	4311      	orrs	r1, r2
 80056ee:	687a      	ldr	r2, [r7, #4]
 80056f0:	6b12      	ldr	r2, [r2, #48]	; 0x30
 80056f2:	04d2      	lsls	r2, r2, #19
 80056f4:	4311      	orrs	r1, r2
 80056f6:	687a      	ldr	r2, [r7, #4]
 80056f8:	6b52      	ldr	r2, [r2, #52]	; 0x34
 80056fa:	0612      	lsls	r2, r2, #24
 80056fc:	4311      	orrs	r1, r2
 80056fe:	687a      	ldr	r2, [r7, #4]
 8005700:	6812      	ldr	r2, [r2, #0]
 8005702:	430b      	orrs	r3, r1
 8005704:	6013      	str	r3, [r2, #0]
 8005706:	e035      	b.n	8005774 <HAL_OPAMP_Init+0x14c>
 8005708:	687b      	ldr	r3, [r7, #4]
 800570a:	681b      	ldr	r3, [r3, #0]
 800570c:	681b      	ldr	r3, [r3, #0]
 800570e:	f023 0110 	bic.w	r1, r3, #16
 8005712:	687b      	ldr	r3, [r7, #4]
 8005714:	6ada      	ldr	r2, [r3, #44]	; 0x2c
 8005716:	687b      	ldr	r3, [r7, #4]
 8005718:	681b      	ldr	r3, [r3, #0]
 800571a:	430a      	orrs	r2, r1
 800571c:	601a      	str	r2, [r3, #0]
 800571e:	687b      	ldr	r3, [r7, #4]
 8005720:	681b      	ldr	r3, [r3, #0]
 8005722:	681a      	ldr	r2, [r3, #0]
 8005724:	4b27      	ldr	r3, [pc, #156]	; (80057c4 <HAL_OPAMP_Init+0x19c>)
 8005726:	4013      	ands	r3, r2
 8005728:	687a      	ldr	r2, [r7, #4]
 800572a:	6851      	ldr	r1, [r2, #4]
 800572c:	687a      	ldr	r2, [r7, #4]
 800572e:	6892      	ldr	r2, [r2, #8]
 8005730:	4311      	orrs	r1, r2
 8005732:	687a      	ldr	r2, [r7, #4]
 8005734:	68d2      	ldr	r2, [r2, #12]
 8005736:	4311      	orrs	r1, r2
 8005738:	687a      	ldr	r2, [r7, #4]
 800573a:	6912      	ldr	r2, [r2, #16]
 800573c:	430a      	orrs	r2, r1
 800573e:	6879      	ldr	r1, [r7, #4]
 8005740:	7d09      	ldrb	r1, [r1, #20]
 8005742:	2901      	cmp	r1, #1
 8005744:	d102      	bne.n	800574c <HAL_OPAMP_Init+0x124>
 8005746:	f44f 7180 	mov.w	r1, #256	; 0x100
 800574a:	e000      	b.n	800574e <HAL_OPAMP_Init+0x126>
 800574c:	2100      	movs	r1, #0
 800574e:	4311      	orrs	r1, r2
 8005750:	687a      	ldr	r2, [r7, #4]
 8005752:	6a52      	ldr	r2, [r2, #36]	; 0x24
 8005754:	4311      	orrs	r1, r2
 8005756:	687a      	ldr	r2, [r7, #4]
 8005758:	6a92      	ldr	r2, [r2, #40]	; 0x28
 800575a:	4311      	orrs	r1, r2
 800575c:	687a      	ldr	r2, [r7, #4]
 800575e:	6b12      	ldr	r2, [r2, #48]	; 0x30
 8005760:	04d2      	lsls	r2, r2, #19
 8005762:	4311      	orrs	r1, r2
 8005764:	687a      	ldr	r2, [r7, #4]
 8005766:	6b52      	ldr	r2, [r2, #52]	; 0x34
 8005768:	0612      	lsls	r2, r2, #24
 800576a:	4311      	orrs	r1, r2
 800576c:	687a      	ldr	r2, [r7, #4]
 800576e:	6812      	ldr	r2, [r2, #0]
 8005770:	430b      	orrs	r3, r1
 8005772:	6013      	str	r3, [r2, #0]
 8005774:	687b      	ldr	r3, [r7, #4]
 8005776:	681b      	ldr	r3, [r3, #0]
 8005778:	699b      	ldr	r3, [r3, #24]
 800577a:	2b00      	cmp	r3, #0
 800577c:	db10      	blt.n	80057a0 <HAL_OPAMP_Init+0x178>
 800577e:	687b      	ldr	r3, [r7, #4]
 8005780:	681b      	ldr	r3, [r3, #0]
 8005782:	699b      	ldr	r3, [r3, #24]
 8005784:	f023 013f 	bic.w	r1, r3, #63	; 0x3f
 8005788:	687b      	ldr	r3, [r7, #4]
 800578a:	699a      	ldr	r2, [r3, #24]
 800578c:	687b      	ldr	r3, [r7, #4]
 800578e:	69db      	ldr	r3, [r3, #28]
 8005790:	431a      	orrs	r2, r3
 8005792:	687b      	ldr	r3, [r7, #4]
 8005794:	6a1b      	ldr	r3, [r3, #32]
 8005796:	431a      	orrs	r2, r3
 8005798:	687b      	ldr	r3, [r7, #4]
 800579a:	681b      	ldr	r3, [r3, #0]
 800579c:	430a      	orrs	r2, r1
 800579e:	619a      	str	r2, [r3, #24]
 80057a0:	687b      	ldr	r3, [r7, #4]
 80057a2:	f893 303a 	ldrb.w	r3, [r3, #58]	; 0x3a
 80057a6:	b2db      	uxtb	r3, r3
 80057a8:	2b00      	cmp	r3, #0
 80057aa:	d103      	bne.n	80057b4 <HAL_OPAMP_Init+0x18c>
 80057ac:	687b      	ldr	r3, [r7, #4]
 80057ae:	2201      	movs	r2, #1
 80057b0:	f883 203a 	strb.w	r2, [r3, #58]	; 0x3a
 80057b4:	7bfb      	ldrb	r3, [r7, #15]
 80057b6:	4618      	mov	r0, r3
 80057b8:	3710      	adds	r7, #16
 80057ba:	46bd      	mov	sp, r7
 80057bc:	bd80      	pop	{r7, pc}
 80057be:	bf00      	nop
 80057c0:	40021000 	.word	0x40021000
 80057c4:	e0003e11 	.word	0xe0003e11

080057c8 <HAL_OPAMP_Start>:
 80057c8:	b480      	push	{r7}
 80057ca:	b085      	sub	sp, #20
 80057cc:	af00      	add	r7, sp, #0
 80057ce:	6078      	str	r0, [r7, #4]
 80057d0:	2300      	movs	r3, #0
 80057d2:	73fb      	strb	r3, [r7, #15]
 80057d4:	687b      	ldr	r3, [r7, #4]
 80057d6:	2b00      	cmp	r3, #0
 80057d8:	d102      	bne.n	80057e0 <HAL_OPAMP_Start+0x18>
 80057da:	2301      	movs	r3, #1
 80057dc:	73fb      	strb	r3, [r7, #15]
 80057de:	e01d      	b.n	800581c <HAL_OPAMP_Start+0x54>
 80057e0:	687b      	ldr	r3, [r7, #4]
 80057e2:	f893 303a 	ldrb.w	r3, [r3, #58]	; 0x3a
 80057e6:	b2db      	uxtb	r3, r3
 80057e8:	2b05      	cmp	r3, #5
 80057ea:	d102      	bne.n	80057f2 <HAL_OPAMP_Start+0x2a>
 80057ec:	2301      	movs	r3, #1
 80057ee:	73fb      	strb	r3, [r7, #15]
 80057f0:	e014      	b.n	800581c <HAL_OPAMP_Start+0x54>
 80057f2:	687b      	ldr	r3, [r7, #4]
 80057f4:	f893 303a 	ldrb.w	r3, [r3, #58]	; 0x3a
 80057f8:	b2db      	uxtb	r3, r3
 80057fa:	2b01      	cmp	r3, #1
 80057fc:	d10c      	bne.n	8005818 <HAL_OPAMP_Start+0x50>
 80057fe:	687b      	ldr	r3, [r7, #4]
 8005800:	681b      	ldr	r3, [r3, #0]
 8005802:	681a      	ldr	r2, [r3, #0]
 8005804:	687b      	ldr	r3, [r7, #4]
 8005806:	681b      	ldr	r3, [r3, #0]
 8005808:	f042 0201 	orr.w	r2, r2, #1
 800580c:	601a      	str	r2, [r3, #0]
 800580e:	687b      	ldr	r3, [r7, #4]
 8005810:	2204      	movs	r2, #4
 8005812:	f883 203a 	strb.w	r2, [r3, #58]	; 0x3a
 8005816:	e001      	b.n	800581c <HAL_OPAMP_Start+0x54>
 8005818:	2301      	movs	r3, #1
 800581a:	73fb      	strb	r3, [r7, #15]
 800581c:	7bfb      	ldrb	r3, [r7, #15]
 800581e:	4618      	mov	r0, r3
 8005820:	3714      	adds	r7, #20
 8005822:	46bd      	mov	sp, r7
 8005824:	f85d 7b04 	ldr.w	r7, [sp], #4
 8005828:	4770      	bx	lr
	...

0800582c <HAL_PWREx_ControlVoltageScaling>:
 800582c:	b480      	push	{r7}
 800582e:	b085      	sub	sp, #20
 8005830:	af00      	add	r7, sp, #0
 8005832:	6078      	str	r0, [r7, #4]
 8005834:	687b      	ldr	r3, [r7, #4]
 8005836:	2b00      	cmp	r3, #0
 8005838:	d141      	bne.n	80058be <HAL_PWREx_ControlVoltageScaling+0x92>
 800583a:	4b4b      	ldr	r3, [pc, #300]	; (8005968 <HAL_PWREx_ControlVoltageScaling+0x13c>)
 800583c:	681b      	ldr	r3, [r3, #0]
 800583e:	f403 63c0 	and.w	r3, r3, #1536	; 0x600
 8005842:	f5b3 6f80 	cmp.w	r3, #1024	; 0x400
 8005846:	d131      	bne.n	80058ac <HAL_PWREx_ControlVoltageScaling+0x80>
 8005848:	4b47      	ldr	r3, [pc, #284]	; (8005968 <HAL_PWREx_ControlVoltageScaling+0x13c>)
 800584a:	f8d3 3080 	ldr.w	r3, [r3, #128]	; 0x80
 800584e:	4a46      	ldr	r2, [pc, #280]	; (8005968 <HAL_PWREx_ControlVoltageScaling+0x13c>)
 8005850:	f423 7380 	bic.w	r3, r3, #256	; 0x100
 8005854:	f8c2 3080 	str.w	r3, [r2, #128]	; 0x80
 8005858:	4b43      	ldr	r3, [pc, #268]	; (8005968 <HAL_PWREx_ControlVoltageScaling+0x13c>)
 800585a:	681b      	ldr	r3, [r3, #0]
 800585c:	f423 63c0 	bic.w	r3, r3, #1536	; 0x600
 8005860:	4a41      	ldr	r2, [pc, #260]	; (8005968 <HAL_PWREx_ControlVoltageScaling+0x13c>)
 8005862:	f443 7300 	orr.w	r3, r3, #512	; 0x200
 8005866:	6013      	str	r3, [r2, #0]
 8005868:	4b40      	ldr	r3, [pc, #256]	; (800596c <HAL_PWREx_ControlVoltageScaling+0x140>)
 800586a:	681b      	ldr	r3, [r3, #0]
 800586c:	2232      	movs	r2, #50	; 0x32
 800586e:	fb02 f303 	mul.w	r3, r2, r3
 8005872:	4a3f      	ldr	r2, [pc, #252]	; (8005970 <HAL_PWREx_ControlVoltageScaling+0x144>)
 8005874:	fba2 2303 	umull	r2, r3, r2, r3
 8005878:	0c9b      	lsrs	r3, r3, #18
 800587a:	3301      	adds	r3, #1
 800587c:	60fb      	str	r3, [r7, #12]
 800587e:	e002      	b.n	8005886 <HAL_PWREx_ControlVoltageScaling+0x5a>
 8005880:	68fb      	ldr	r3, [r7, #12]
 8005882:	3b01      	subs	r3, #1
 8005884:	60fb      	str	r3, [r7, #12]
 8005886:	4b38      	ldr	r3, [pc, #224]	; (8005968 <HAL_PWREx_ControlVoltageScaling+0x13c>)
 8005888:	695b      	ldr	r3, [r3, #20]
 800588a:	f403 6380 	and.w	r3, r3, #1024	; 0x400
 800588e:	f5b3 6f80 	cmp.w	r3, #1024	; 0x400
 8005892:	d102      	bne.n	800589a <HAL_PWREx_ControlVoltageScaling+0x6e>
 8005894:	68fb      	ldr	r3, [r7, #12]
 8005896:	2b00      	cmp	r3, #0
 8005898:	d1f2      	bne.n	8005880 <HAL_PWREx_ControlVoltageScaling+0x54>
 800589a:	4b33      	ldr	r3, [pc, #204]	; (8005968 <HAL_PWREx_ControlVoltageScaling+0x13c>)
 800589c:	695b      	ldr	r3, [r3, #20]
 800589e:	f403 6380 	and.w	r3, r3, #1024	; 0x400
 80058a2:	f5b3 6f80 	cmp.w	r3, #1024	; 0x400
 80058a6:	d158      	bne.n	800595a <HAL_PWREx_ControlVoltageScaling+0x12e>
 80058a8:	2303      	movs	r3, #3
 80058aa:	e057      	b.n	800595c <HAL_PWREx_ControlVoltageScaling+0x130>
 80058ac:	4b2e      	ldr	r3, [pc, #184]	; (8005968 <HAL_PWREx_ControlVoltageScaling+0x13c>)
 80058ae:	f8d3 3080 	ldr.w	r3, [r3, #128]	; 0x80
 80058b2:	4a2d      	ldr	r2, [pc, #180]	; (8005968 <HAL_PWREx_ControlVoltageScaling+0x13c>)
 80058b4:	f423 7380 	bic.w	r3, r3, #256	; 0x100
 80058b8:	f8c2 3080 	str.w	r3, [r2, #128]	; 0x80
 80058bc:	e04d      	b.n	800595a <HAL_PWREx_ControlVoltageScaling+0x12e>
 80058be:	687b      	ldr	r3, [r7, #4]
 80058c0:	f5b3 7f00 	cmp.w	r3, #512	; 0x200
 80058c4:	d141      	bne.n	800594a <HAL_PWREx_ControlVoltageScaling+0x11e>
 80058c6:	4b28      	ldr	r3, [pc, #160]	; (8005968 <HAL_PWREx_ControlVoltageScaling+0x13c>)
 80058c8:	681b      	ldr	r3, [r3, #0]
 80058ca:	f403 63c0 	and.w	r3, r3, #1536	; 0x600
 80058ce:	f5b3 6f80 	cmp.w	r3, #1024	; 0x400
 80058d2:	d131      	bne.n	8005938 <HAL_PWREx_ControlVoltageScaling+0x10c>
 80058d4:	4b24      	ldr	r3, [pc, #144]	; (8005968 <HAL_PWREx_ControlVoltageScaling+0x13c>)
 80058d6:	f8d3 3080 	ldr.w	r3, [r3, #128]	; 0x80
 80058da:	4a23      	ldr	r2, [pc, #140]	; (8005968 <HAL_PWREx_ControlVoltageScaling+0x13c>)
 80058dc:	f443 7380 	orr.w	r3, r3, #256	; 0x100
 80058e0:	f8c2 3080 	str.w	r3, [r2, #128]	; 0x80
 80058e4:	4b20      	ldr	r3, [pc, #128]	; (8005968 <HAL_PWREx_ControlVoltageScaling+0x13c>)
 80058e6:	681b      	ldr	r3, [r3, #0]
 80058e8:	f423 63c0 	bic.w	r3, r3, #1536	; 0x600
 80058ec:	4a1e      	ldr	r2, [pc, #120]	; (8005968 <HAL_PWREx_ControlVoltageScaling+0x13c>)
 80058ee:	f443 7300 	orr.w	r3, r3, #512	; 0x200
 80058f2:	6013      	str	r3, [r2, #0]
 80058f4:	4b1d      	ldr	r3, [pc, #116]	; (800596c <HAL_PWREx_ControlVoltageScaling+0x140>)
 80058f6:	681b      	ldr	r3, [r3, #0]
 80058f8:	2232      	movs	r2, #50	; 0x32
 80058fa:	fb02 f303 	mul.w	r3, r2, r3
 80058fe:	4a1c      	ldr	r2, [pc, #112]	; (8005970 <HAL_PWREx_ControlVoltageScaling+0x144>)
 8005900:	fba2 2303 	umull	r2, r3, r2, r3
 8005904:	0c9b      	lsrs	r3, r3, #18
 8005906:	3301      	adds	r3, #1
 8005908:	60fb      	str	r3, [r7, #12]
 800590a:	e002      	b.n	8005912 <HAL_PWREx_ControlVoltageScaling+0xe6>
 800590c:	68fb      	ldr	r3, [r7, #12]
 800590e:	3b01      	subs	r3, #1
 8005910:	60fb      	str	r3, [r7, #12]
 8005912:	4b15      	ldr	r3, [pc, #84]	; (8005968 <HAL_PWREx_ControlVoltageScaling+0x13c>)
 8005914:	695b      	ldr	r3, [r3, #20]
 8005916:	f403 6380 	and.w	r3, r3, #1024	; 0x400
 800591a:	f5b3 6f80 	cmp.w	r3, #1024	; 0x400
 800591e:	d102      	bne.n	8005926 <HAL_PWREx_ControlVoltageScaling+0xfa>
 8005920:	68fb      	ldr	r3, [r7, #12]
 8005922:	2b00      	cmp	r3, #0
 8005924:	d1f2      	bne.n	800590c <HAL_PWREx_ControlVoltageScaling+0xe0>
 8005926:	4b10      	ldr	r3, [pc, #64]	; (8005968 <HAL_PWREx_ControlVoltageScaling+0x13c>)
 8005928:	695b      	ldr	r3, [r3, #20]
 800592a:	f403 6380 	and.w	r3, r3, #1024	; 0x400
 800592e:	f5b3 6f80 	cmp.w	r3, #1024	; 0x400
 8005932:	d112      	bne.n	800595a <HAL_PWREx_ControlVoltageScaling+0x12e>
 8005934:	2303      	movs	r3, #3
 8005936:	e011      	b.n	800595c <HAL_PWREx_ControlVoltageScaling+0x130>
 8005938:	4b0b      	ldr	r3, [pc, #44]	; (8005968 <HAL_PWREx_ControlVoltageScaling+0x13c>)
 800593a:	f8d3 3080 	ldr.w	r3, [r3, #128]	; 0x80
 800593e:	4a0a      	ldr	r2, [pc, #40]	; (8005968 <HAL_PWREx_ControlVoltageScaling+0x13c>)
 8005940:	f443 7380 	orr.w	r3, r3, #256	; 0x100
 8005944:	f8c2 3080 	str.w	r3, [r2, #128]	; 0x80
 8005948:	e007      	b.n	800595a <HAL_PWREx_ControlVoltageScaling+0x12e>
 800594a:	4b07      	ldr	r3, [pc, #28]	; (8005968 <HAL_PWREx_ControlVoltageScaling+0x13c>)
 800594c:	681b      	ldr	r3, [r3, #0]
 800594e:	f423 63c0 	bic.w	r3, r3, #1536	; 0x600
 8005952:	4a05      	ldr	r2, [pc, #20]	; (8005968 <HAL_PWREx_ControlVoltageScaling+0x13c>)
 8005954:	f443 6380 	orr.w	r3, r3, #1024	; 0x400
 8005958:	6013      	str	r3, [r2, #0]
 800595a:	2300      	movs	r3, #0
 800595c:	4618      	mov	r0, r3
 800595e:	3714      	adds	r7, #20
 8005960:	46bd      	mov	sp, r7
 8005962:	f85d 7b04 	ldr.w	r7, [sp], #4
 8005966:	4770      	bx	lr
 8005968:	40007000 	.word	0x40007000
 800596c:	20000008 	.word	0x20000008
 8005970:	431bde83 	.word	0x431bde83

08005974 <HAL_PWREx_DisableUCPDDeadBattery>:
 8005974:	b480      	push	{r7}
 8005976:	af00      	add	r7, sp, #0
 8005978:	4b05      	ldr	r3, [pc, #20]	; (8005990 <HAL_PWREx_DisableUCPDDeadBattery+0x1c>)
 800597a:	689b      	ldr	r3, [r3, #8]
 800597c:	4a04      	ldr	r2, [pc, #16]	; (8005990 <HAL_PWREx_DisableUCPDDeadBattery+0x1c>)
 800597e:	f443 4380 	orr.w	r3, r3, #16384	; 0x4000
 8005982:	6093      	str	r3, [r2, #8]
 8005984:	bf00      	nop
 8005986:	46bd      	mov	sp, r7
 8005988:	f85d 7b04 	ldr.w	r7, [sp], #4
 800598c:	4770      	bx	lr
 800598e:	bf00      	nop
 8005990:	40007000 	.word	0x40007000

08005994 <HAL_RCC_OscConfig>:
 8005994:	b580      	push	{r7, lr}
 8005996:	b088      	sub	sp, #32
 8005998:	af00      	add	r7, sp, #0
 800599a:	6078      	str	r0, [r7, #4]
 800599c:	687b      	ldr	r3, [r7, #4]
 800599e:	2b00      	cmp	r3, #0
 80059a0:	d101      	bne.n	80059a6 <HAL_RCC_OscConfig+0x12>
 80059a2:	2301      	movs	r3, #1
 80059a4:	e306      	b.n	8005fb4 <HAL_RCC_OscConfig+0x620>
 80059a6:	687b      	ldr	r3, [r7, #4]
 80059a8:	681b      	ldr	r3, [r3, #0]
 80059aa:	f003 0301 	and.w	r3, r3, #1
 80059ae:	2b00      	cmp	r3, #0
 80059b0:	d075      	beq.n	8005a9e <HAL_RCC_OscConfig+0x10a>
 80059b2:	4b97      	ldr	r3, [pc, #604]	; (8005c10 <HAL_RCC_OscConfig+0x27c>)
 80059b4:	689b      	ldr	r3, [r3, #8]
 80059b6:	f003 030c 	and.w	r3, r3, #12
 80059ba:	61bb      	str	r3, [r7, #24]
 80059bc:	4b94      	ldr	r3, [pc, #592]	; (8005c10 <HAL_RCC_OscConfig+0x27c>)
 80059be:	68db      	ldr	r3, [r3, #12]
 80059c0:	f003 0303 	and.w	r3, r3, #3
 80059c4:	617b      	str	r3, [r7, #20]
 80059c6:	69bb      	ldr	r3, [r7, #24]
 80059c8:	2b0c      	cmp	r3, #12
 80059ca:	d102      	bne.n	80059d2 <HAL_RCC_OscConfig+0x3e>
 80059cc:	697b      	ldr	r3, [r7, #20]
 80059ce:	2b03      	cmp	r3, #3
 80059d0:	d002      	beq.n	80059d8 <HAL_RCC_OscConfig+0x44>
 80059d2:	69bb      	ldr	r3, [r7, #24]
 80059d4:	2b08      	cmp	r3, #8
 80059d6:	d10b      	bne.n	80059f0 <HAL_RCC_OscConfig+0x5c>
 80059d8:	4b8d      	ldr	r3, [pc, #564]	; (8005c10 <HAL_RCC_OscConfig+0x27c>)
 80059da:	681b      	ldr	r3, [r3, #0]
 80059dc:	f403 3300 	and.w	r3, r3, #131072	; 0x20000
 80059e0:	2b00      	cmp	r3, #0
 80059e2:	d05b      	beq.n	8005a9c <HAL_RCC_OscConfig+0x108>
 80059e4:	687b      	ldr	r3, [r7, #4]
 80059e6:	685b      	ldr	r3, [r3, #4]
 80059e8:	2b00      	cmp	r3, #0
 80059ea:	d157      	bne.n	8005a9c <HAL_RCC_OscConfig+0x108>
 80059ec:	2301      	movs	r3, #1
 80059ee:	e2e1      	b.n	8005fb4 <HAL_RCC_OscConfig+0x620>
 80059f0:	687b      	ldr	r3, [r7, #4]
 80059f2:	685b      	ldr	r3, [r3, #4]
 80059f4:	f5b3 3f80 	cmp.w	r3, #65536	; 0x10000
 80059f8:	d106      	bne.n	8005a08 <HAL_RCC_OscConfig+0x74>
 80059fa:	4b85      	ldr	r3, [pc, #532]	; (8005c10 <HAL_RCC_OscConfig+0x27c>)
 80059fc:	681b      	ldr	r3, [r3, #0]
 80059fe:	4a84      	ldr	r2, [pc, #528]	; (8005c10 <HAL_RCC_OscConfig+0x27c>)
 8005a00:	f443 3380 	orr.w	r3, r3, #65536	; 0x10000
 8005a04:	6013      	str	r3, [r2, #0]
 8005a06:	e01d      	b.n	8005a44 <HAL_RCC_OscConfig+0xb0>
 8005a08:	687b      	ldr	r3, [r7, #4]
 8005a0a:	685b      	ldr	r3, [r3, #4]
 8005a0c:	f5b3 2fa0 	cmp.w	r3, #327680	; 0x50000
 8005a10:	d10c      	bne.n	8005a2c <HAL_RCC_OscConfig+0x98>
 8005a12:	4b7f      	ldr	r3, [pc, #508]	; (8005c10 <HAL_RCC_OscConfig+0x27c>)
 8005a14:	681b      	ldr	r3, [r3, #0]
 8005a16:	4a7e      	ldr	r2, [pc, #504]	; (8005c10 <HAL_RCC_OscConfig+0x27c>)
 8005a18:	f443 2380 	orr.w	r3, r3, #262144	; 0x40000
 8005a1c:	6013      	str	r3, [r2, #0]
 8005a1e:	4b7c      	ldr	r3, [pc, #496]	; (8005c10 <HAL_RCC_OscConfig+0x27c>)
 8005a20:	681b      	ldr	r3, [r3, #0]
 8005a22:	4a7b      	ldr	r2, [pc, #492]	; (8005c10 <HAL_RCC_OscConfig+0x27c>)
 8005a24:	f443 3380 	orr.w	r3, r3, #65536	; 0x10000
 8005a28:	6013      	str	r3, [r2, #0]
 8005a2a:	e00b      	b.n	8005a44 <HAL_RCC_OscConfig+0xb0>
 8005a2c:	4b78      	ldr	r3, [pc, #480]	; (8005c10 <HAL_RCC_OscConfig+0x27c>)
 8005a2e:	681b      	ldr	r3, [r3, #0]
 8005a30:	4a77      	ldr	r2, [pc, #476]	; (8005c10 <HAL_RCC_OscConfig+0x27c>)
 8005a32:	f423 3380 	bic.w	r3, r3, #65536	; 0x10000
 8005a36:	6013      	str	r3, [r2, #0]
 8005a38:	4b75      	ldr	r3, [pc, #468]	; (8005c10 <HAL_RCC_OscConfig+0x27c>)
 8005a3a:	681b      	ldr	r3, [r3, #0]
 8005a3c:	4a74      	ldr	r2, [pc, #464]	; (8005c10 <HAL_RCC_OscConfig+0x27c>)
 8005a3e:	f423 2380 	bic.w	r3, r3, #262144	; 0x40000
 8005a42:	6013      	str	r3, [r2, #0]
 8005a44:	687b      	ldr	r3, [r7, #4]
 8005a46:	685b      	ldr	r3, [r3, #4]
 8005a48:	2b00      	cmp	r3, #0
 8005a4a:	d013      	beq.n	8005a74 <HAL_RCC_OscConfig+0xe0>
 8005a4c:	f7fc fa76 	bl	8001f3c <HAL_GetTick>
 8005a50:	6138      	str	r0, [r7, #16]
 8005a52:	e008      	b.n	8005a66 <HAL_RCC_OscConfig+0xd2>
 8005a54:	f7fc fa72 	bl	8001f3c <HAL_GetTick>
 8005a58:	4602      	mov	r2, r0
 8005a5a:	693b      	ldr	r3, [r7, #16]
 8005a5c:	1ad3      	subs	r3, r2, r3
 8005a5e:	2b64      	cmp	r3, #100	; 0x64
 8005a60:	d901      	bls.n	8005a66 <HAL_RCC_OscConfig+0xd2>
 8005a62:	2303      	movs	r3, #3
 8005a64:	e2a6      	b.n	8005fb4 <HAL_RCC_OscConfig+0x620>
 8005a66:	4b6a      	ldr	r3, [pc, #424]	; (8005c10 <HAL_RCC_OscConfig+0x27c>)
 8005a68:	681b      	ldr	r3, [r3, #0]
 8005a6a:	f403 3300 	and.w	r3, r3, #131072	; 0x20000
 8005a6e:	2b00      	cmp	r3, #0
 8005a70:	d0f0      	beq.n	8005a54 <HAL_RCC_OscConfig+0xc0>
 8005a72:	e014      	b.n	8005a9e <HAL_RCC_OscConfig+0x10a>
 8005a74:	f7fc fa62 	bl	8001f3c <HAL_GetTick>
 8005a78:	6138      	str	r0, [r7, #16]
 8005a7a:	e008      	b.n	8005a8e <HAL_RCC_OscConfig+0xfa>
 8005a7c:	f7fc fa5e 	bl	8001f3c <HAL_GetTick>
 8005a80:	4602      	mov	r2, r0
 8005a82:	693b      	ldr	r3, [r7, #16]
 8005a84:	1ad3      	subs	r3, r2, r3
 8005a86:	2b64      	cmp	r3, #100	; 0x64
 8005a88:	d901      	bls.n	8005a8e <HAL_RCC_OscConfig+0xfa>
 8005a8a:	2303      	movs	r3, #3
 8005a8c:	e292      	b.n	8005fb4 <HAL_RCC_OscConfig+0x620>
 8005a8e:	4b60      	ldr	r3, [pc, #384]	; (8005c10 <HAL_RCC_OscConfig+0x27c>)
 8005a90:	681b      	ldr	r3, [r3, #0]
 8005a92:	f403 3300 	and.w	r3, r3, #131072	; 0x20000
 8005a96:	2b00      	cmp	r3, #0
 8005a98:	d1f0      	bne.n	8005a7c <HAL_RCC_OscConfig+0xe8>
 8005a9a:	e000      	b.n	8005a9e <HAL_RCC_OscConfig+0x10a>
 8005a9c:	bf00      	nop
 8005a9e:	687b      	ldr	r3, [r7, #4]
 8005aa0:	681b      	ldr	r3, [r3, #0]
 8005aa2:	f003 0302 	and.w	r3, r3, #2
 8005aa6:	2b00      	cmp	r3, #0
 8005aa8:	d075      	beq.n	8005b96 <HAL_RCC_OscConfig+0x202>
 8005aaa:	4b59      	ldr	r3, [pc, #356]	; (8005c10 <HAL_RCC_OscConfig+0x27c>)
 8005aac:	689b      	ldr	r3, [r3, #8]
 8005aae:	f003 030c 	and.w	r3, r3, #12
 8005ab2:	61bb      	str	r3, [r7, #24]
 8005ab4:	4b56      	ldr	r3, [pc, #344]	; (8005c10 <HAL_RCC_OscConfig+0x27c>)
 8005ab6:	68db      	ldr	r3, [r3, #12]
 8005ab8:	f003 0303 	and.w	r3, r3, #3
 8005abc:	617b      	str	r3, [r7, #20]
 8005abe:	69bb      	ldr	r3, [r7, #24]
 8005ac0:	2b0c      	cmp	r3, #12
 8005ac2:	d102      	bne.n	8005aca <HAL_RCC_OscConfig+0x136>
 8005ac4:	697b      	ldr	r3, [r7, #20]
 8005ac6:	2b02      	cmp	r3, #2
 8005ac8:	d002      	beq.n	8005ad0 <HAL_RCC_OscConfig+0x13c>
 8005aca:	69bb      	ldr	r3, [r7, #24]
 8005acc:	2b04      	cmp	r3, #4
 8005ace:	d11f      	bne.n	8005b10 <HAL_RCC_OscConfig+0x17c>
 8005ad0:	4b4f      	ldr	r3, [pc, #316]	; (8005c10 <HAL_RCC_OscConfig+0x27c>)
 8005ad2:	681b      	ldr	r3, [r3, #0]
 8005ad4:	f403 6380 	and.w	r3, r3, #1024	; 0x400
 8005ad8:	2b00      	cmp	r3, #0
 8005ada:	d005      	beq.n	8005ae8 <HAL_RCC_OscConfig+0x154>
 8005adc:	687b      	ldr	r3, [r7, #4]
 8005ade:	68db      	ldr	r3, [r3, #12]
 8005ae0:	2b00      	cmp	r3, #0
 8005ae2:	d101      	bne.n	8005ae8 <HAL_RCC_OscConfig+0x154>
 8005ae4:	2301      	movs	r3, #1
 8005ae6:	e265      	b.n	8005fb4 <HAL_RCC_OscConfig+0x620>
 8005ae8:	4b49      	ldr	r3, [pc, #292]	; (8005c10 <HAL_RCC_OscConfig+0x27c>)
 8005aea:	685b      	ldr	r3, [r3, #4]
 8005aec:	f023 42fe 	bic.w	r2, r3, #2130706432	; 0x7f000000
 8005af0:	687b      	ldr	r3, [r7, #4]
 8005af2:	691b      	ldr	r3, [r3, #16]
 8005af4:	061b      	lsls	r3, r3, #24
 8005af6:	4946      	ldr	r1, [pc, #280]	; (8005c10 <HAL_RCC_OscConfig+0x27c>)
 8005af8:	4313      	orrs	r3, r2
 8005afa:	604b      	str	r3, [r1, #4]
 8005afc:	4b45      	ldr	r3, [pc, #276]	; (8005c14 <HAL_RCC_OscConfig+0x280>)
 8005afe:	681b      	ldr	r3, [r3, #0]
 8005b00:	4618      	mov	r0, r3
 8005b02:	f7fc f9cf 	bl	8001ea4 <HAL_InitTick>
 8005b06:	4603      	mov	r3, r0
 8005b08:	2b00      	cmp	r3, #0
 8005b0a:	d043      	beq.n	8005b94 <HAL_RCC_OscConfig+0x200>
 8005b0c:	2301      	movs	r3, #1
 8005b0e:	e251      	b.n	8005fb4 <HAL_RCC_OscConfig+0x620>
 8005b10:	687b      	ldr	r3, [r7, #4]
 8005b12:	68db      	ldr	r3, [r3, #12]
 8005b14:	2b00      	cmp	r3, #0
 8005b16:	d023      	beq.n	8005b60 <HAL_RCC_OscConfig+0x1cc>
 8005b18:	4b3d      	ldr	r3, [pc, #244]	; (8005c10 <HAL_RCC_OscConfig+0x27c>)
 8005b1a:	681b      	ldr	r3, [r3, #0]
 8005b1c:	4a3c      	ldr	r2, [pc, #240]	; (8005c10 <HAL_RCC_OscConfig+0x27c>)
 8005b1e:	f443 7380 	orr.w	r3, r3, #256	; 0x100
 8005b22:	6013      	str	r3, [r2, #0]
 8005b24:	f7fc fa0a 	bl	8001f3c <HAL_GetTick>
 8005b28:	6138      	str	r0, [r7, #16]
 8005b2a:	e008      	b.n	8005b3e <HAL_RCC_OscConfig+0x1aa>
 8005b2c:	f7fc fa06 	bl	8001f3c <HAL_GetTick>
 8005b30:	4602      	mov	r2, r0
 8005b32:	693b      	ldr	r3, [r7, #16]
 8005b34:	1ad3      	subs	r3, r2, r3
 8005b36:	2b02      	cmp	r3, #2
 8005b38:	d901      	bls.n	8005b3e <HAL_RCC_OscConfig+0x1aa>
 8005b3a:	2303      	movs	r3, #3
 8005b3c:	e23a      	b.n	8005fb4 <HAL_RCC_OscConfig+0x620>
 8005b3e:	4b34      	ldr	r3, [pc, #208]	; (8005c10 <HAL_RCC_OscConfig+0x27c>)
 8005b40:	681b      	ldr	r3, [r3, #0]
 8005b42:	f403 6380 	and.w	r3, r3, #1024	; 0x400
 8005b46:	2b00      	cmp	r3, #0
 8005b48:	d0f0      	beq.n	8005b2c <HAL_RCC_OscConfig+0x198>
 8005b4a:	4b31      	ldr	r3, [pc, #196]	; (8005c10 <HAL_RCC_OscConfig+0x27c>)
 8005b4c:	685b      	ldr	r3, [r3, #4]
 8005b4e:	f023 42fe 	bic.w	r2, r3, #2130706432	; 0x7f000000
 8005b52:	687b      	ldr	r3, [r7, #4]
 8005b54:	691b      	ldr	r3, [r3, #16]
 8005b56:	061b      	lsls	r3, r3, #24
 8005b58:	492d      	ldr	r1, [pc, #180]	; (8005c10 <HAL_RCC_OscConfig+0x27c>)
 8005b5a:	4313      	orrs	r3, r2
 8005b5c:	604b      	str	r3, [r1, #4]
 8005b5e:	e01a      	b.n	8005b96 <HAL_RCC_OscConfig+0x202>
 8005b60:	4b2b      	ldr	r3, [pc, #172]	; (8005c10 <HAL_RCC_OscConfig+0x27c>)
 8005b62:	681b      	ldr	r3, [r3, #0]
 8005b64:	4a2a      	ldr	r2, [pc, #168]	; (8005c10 <HAL_RCC_OscConfig+0x27c>)
 8005b66:	f423 7380 	bic.w	r3, r3, #256	; 0x100
 8005b6a:	6013      	str	r3, [r2, #0]
 8005b6c:	f7fc f9e6 	bl	8001f3c <HAL_GetTick>
 8005b70:	6138      	str	r0, [r7, #16]
 8005b72:	e008      	b.n	8005b86 <HAL_RCC_OscConfig+0x1f2>
 8005b74:	f7fc f9e2 	bl	8001f3c <HAL_GetTick>
 8005b78:	4602      	mov	r2, r0
 8005b7a:	693b      	ldr	r3, [r7, #16]
 8005b7c:	1ad3      	subs	r3, r2, r3
 8005b7e:	2b02      	cmp	r3, #2
 8005b80:	d901      	bls.n	8005b86 <HAL_RCC_OscConfig+0x1f2>
 8005b82:	2303      	movs	r3, #3
 8005b84:	e216      	b.n	8005fb4 <HAL_RCC_OscConfig+0x620>
 8005b86:	4b22      	ldr	r3, [pc, #136]	; (8005c10 <HAL_RCC_OscConfig+0x27c>)
 8005b88:	681b      	ldr	r3, [r3, #0]
 8005b8a:	f403 6380 	and.w	r3, r3, #1024	; 0x400
 8005b8e:	2b00      	cmp	r3, #0
 8005b90:	d1f0      	bne.n	8005b74 <HAL_RCC_OscConfig+0x1e0>
 8005b92:	e000      	b.n	8005b96 <HAL_RCC_OscConfig+0x202>
 8005b94:	bf00      	nop
 8005b96:	687b      	ldr	r3, [r7, #4]
 8005b98:	681b      	ldr	r3, [r3, #0]
 8005b9a:	f003 0308 	and.w	r3, r3, #8
 8005b9e:	2b00      	cmp	r3, #0
 8005ba0:	d041      	beq.n	8005c26 <HAL_RCC_OscConfig+0x292>
 8005ba2:	687b      	ldr	r3, [r7, #4]
 8005ba4:	695b      	ldr	r3, [r3, #20]
 8005ba6:	2b00      	cmp	r3, #0
 8005ba8:	d01c      	beq.n	8005be4 <HAL_RCC_OscConfig+0x250>
 8005baa:	4b19      	ldr	r3, [pc, #100]	; (8005c10 <HAL_RCC_OscConfig+0x27c>)
 8005bac:	f8d3 3094 	ldr.w	r3, [r3, #148]	; 0x94
 8005bb0:	4a17      	ldr	r2, [pc, #92]	; (8005c10 <HAL_RCC_OscConfig+0x27c>)
 8005bb2:	f043 0301 	orr.w	r3, r3, #1
 8005bb6:	f8c2 3094 	str.w	r3, [r2, #148]	; 0x94
 8005bba:	f7fc f9bf 	bl	8001f3c <HAL_GetTick>
 8005bbe:	6138      	str	r0, [r7, #16]
 8005bc0:	e008      	b.n	8005bd4 <HAL_RCC_OscConfig+0x240>
 8005bc2:	f7fc f9bb 	bl	8001f3c <HAL_GetTick>
 8005bc6:	4602      	mov	r2, r0
 8005bc8:	693b      	ldr	r3, [r7, #16]
 8005bca:	1ad3      	subs	r3, r2, r3
 8005bcc:	2b02      	cmp	r3, #2
 8005bce:	d901      	bls.n	8005bd4 <HAL_RCC_OscConfig+0x240>
 8005bd0:	2303      	movs	r3, #3
 8005bd2:	e1ef      	b.n	8005fb4 <HAL_RCC_OscConfig+0x620>
 8005bd4:	4b0e      	ldr	r3, [pc, #56]	; (8005c10 <HAL_RCC_OscConfig+0x27c>)
 8005bd6:	f8d3 3094 	ldr.w	r3, [r3, #148]	; 0x94
 8005bda:	f003 0302 	and.w	r3, r3, #2
 8005bde:	2b00      	cmp	r3, #0
 8005be0:	d0ef      	beq.n	8005bc2 <HAL_RCC_OscConfig+0x22e>
 8005be2:	e020      	b.n	8005c26 <HAL_RCC_OscConfig+0x292>
 8005be4:	4b0a      	ldr	r3, [pc, #40]	; (8005c10 <HAL_RCC_OscConfig+0x27c>)
 8005be6:	f8d3 3094 	ldr.w	r3, [r3, #148]	; 0x94
 8005bea:	4a09      	ldr	r2, [pc, #36]	; (8005c10 <HAL_RCC_OscConfig+0x27c>)
 8005bec:	f023 0301 	bic.w	r3, r3, #1
 8005bf0:	f8c2 3094 	str.w	r3, [r2, #148]	; 0x94
 8005bf4:	f7fc f9a2 	bl	8001f3c <HAL_GetTick>
 8005bf8:	6138      	str	r0, [r7, #16]
 8005bfa:	e00d      	b.n	8005c18 <HAL_RCC_OscConfig+0x284>
 8005bfc:	f7fc f99e 	bl	8001f3c <HAL_GetTick>
 8005c00:	4602      	mov	r2, r0
 8005c02:	693b      	ldr	r3, [r7, #16]
 8005c04:	1ad3      	subs	r3, r2, r3
 8005c06:	2b02      	cmp	r3, #2
 8005c08:	d906      	bls.n	8005c18 <HAL_RCC_OscConfig+0x284>
 8005c0a:	2303      	movs	r3, #3
 8005c0c:	e1d2      	b.n	8005fb4 <HAL_RCC_OscConfig+0x620>
 8005c0e:	bf00      	nop
 8005c10:	40021000 	.word	0x40021000
 8005c14:	2000000c 	.word	0x2000000c
 8005c18:	4b8c      	ldr	r3, [pc, #560]	; (8005e4c <HAL_RCC_OscConfig+0x4b8>)
 8005c1a:	f8d3 3094 	ldr.w	r3, [r3, #148]	; 0x94
 8005c1e:	f003 0302 	and.w	r3, r3, #2
 8005c22:	2b00      	cmp	r3, #0
 8005c24:	d1ea      	bne.n	8005bfc <HAL_RCC_OscConfig+0x268>
 8005c26:	687b      	ldr	r3, [r7, #4]
 8005c28:	681b      	ldr	r3, [r3, #0]
 8005c2a:	f003 0304 	and.w	r3, r3, #4
 8005c2e:	2b00      	cmp	r3, #0
 8005c30:	f000 80a6 	beq.w	8005d80 <HAL_RCC_OscConfig+0x3ec>
 8005c34:	2300      	movs	r3, #0
 8005c36:	77fb      	strb	r3, [r7, #31]
 8005c38:	4b84      	ldr	r3, [pc, #528]	; (8005e4c <HAL_RCC_OscConfig+0x4b8>)
 8005c3a:	6d9b      	ldr	r3, [r3, #88]	; 0x58
 8005c3c:	f003 5380 	and.w	r3, r3, #268435456	; 0x10000000
 8005c40:	2b00      	cmp	r3, #0
 8005c42:	d101      	bne.n	8005c48 <HAL_RCC_OscConfig+0x2b4>
 8005c44:	2301      	movs	r3, #1
 8005c46:	e000      	b.n	8005c4a <HAL_RCC_OscConfig+0x2b6>
 8005c48:	2300      	movs	r3, #0
 8005c4a:	2b00      	cmp	r3, #0
 8005c4c:	d00d      	beq.n	8005c6a <HAL_RCC_OscConfig+0x2d6>
 8005c4e:	4b7f      	ldr	r3, [pc, #508]	; (8005e4c <HAL_RCC_OscConfig+0x4b8>)
 8005c50:	6d9b      	ldr	r3, [r3, #88]	; 0x58
 8005c52:	4a7e      	ldr	r2, [pc, #504]	; (8005e4c <HAL_RCC_OscConfig+0x4b8>)
 8005c54:	f043 5380 	orr.w	r3, r3, #268435456	; 0x10000000
 8005c58:	6593      	str	r3, [r2, #88]	; 0x58
 8005c5a:	4b7c      	ldr	r3, [pc, #496]	; (8005e4c <HAL_RCC_OscConfig+0x4b8>)
 8005c5c:	6d9b      	ldr	r3, [r3, #88]	; 0x58
 8005c5e:	f003 5380 	and.w	r3, r3, #268435456	; 0x10000000
 8005c62:	60fb      	str	r3, [r7, #12]
 8005c64:	68fb      	ldr	r3, [r7, #12]
 8005c66:	2301      	movs	r3, #1
 8005c68:	77fb      	strb	r3, [r7, #31]
 8005c6a:	4b79      	ldr	r3, [pc, #484]	; (8005e50 <HAL_RCC_OscConfig+0x4bc>)
 8005c6c:	681b      	ldr	r3, [r3, #0]
 8005c6e:	f403 7380 	and.w	r3, r3, #256	; 0x100
 8005c72:	2b00      	cmp	r3, #0
 8005c74:	d118      	bne.n	8005ca8 <HAL_RCC_OscConfig+0x314>
 8005c76:	4b76      	ldr	r3, [pc, #472]	; (8005e50 <HAL_RCC_OscConfig+0x4bc>)
 8005c78:	681b      	ldr	r3, [r3, #0]
 8005c7a:	4a75      	ldr	r2, [pc, #468]	; (8005e50 <HAL_RCC_OscConfig+0x4bc>)
 8005c7c:	f443 7380 	orr.w	r3, r3, #256	; 0x100
 8005c80:	6013      	str	r3, [r2, #0]
 8005c82:	f7fc f95b 	bl	8001f3c <HAL_GetTick>
 8005c86:	6138      	str	r0, [r7, #16]
 8005c88:	e008      	b.n	8005c9c <HAL_RCC_OscConfig+0x308>
 8005c8a:	f7fc f957 	bl	8001f3c <HAL_GetTick>
 8005c8e:	4602      	mov	r2, r0
 8005c90:	693b      	ldr	r3, [r7, #16]
 8005c92:	1ad3      	subs	r3, r2, r3
 8005c94:	2b02      	cmp	r3, #2
 8005c96:	d901      	bls.n	8005c9c <HAL_RCC_OscConfig+0x308>
 8005c98:	2303      	movs	r3, #3
 8005c9a:	e18b      	b.n	8005fb4 <HAL_RCC_OscConfig+0x620>
 8005c9c:	4b6c      	ldr	r3, [pc, #432]	; (8005e50 <HAL_RCC_OscConfig+0x4bc>)
 8005c9e:	681b      	ldr	r3, [r3, #0]
 8005ca0:	f403 7380 	and.w	r3, r3, #256	; 0x100
 8005ca4:	2b00      	cmp	r3, #0
 8005ca6:	d0f0      	beq.n	8005c8a <HAL_RCC_OscConfig+0x2f6>
 8005ca8:	687b      	ldr	r3, [r7, #4]
 8005caa:	689b      	ldr	r3, [r3, #8]
 8005cac:	2b01      	cmp	r3, #1
 8005cae:	d108      	bne.n	8005cc2 <HAL_RCC_OscConfig+0x32e>
 8005cb0:	4b66      	ldr	r3, [pc, #408]	; (8005e4c <HAL_RCC_OscConfig+0x4b8>)
 8005cb2:	f8d3 3090 	ldr.w	r3, [r3, #144]	; 0x90
 8005cb6:	4a65      	ldr	r2, [pc, #404]	; (8005e4c <HAL_RCC_OscConfig+0x4b8>)
 8005cb8:	f043 0301 	orr.w	r3, r3, #1
 8005cbc:	f8c2 3090 	str.w	r3, [r2, #144]	; 0x90
 8005cc0:	e024      	b.n	8005d0c <HAL_RCC_OscConfig+0x378>
 8005cc2:	687b      	ldr	r3, [r7, #4]
 8005cc4:	689b      	ldr	r3, [r3, #8]
 8005cc6:	2b05      	cmp	r3, #5
 8005cc8:	d110      	bne.n	8005cec <HAL_RCC_OscConfig+0x358>
 8005cca:	4b60      	ldr	r3, [pc, #384]	; (8005e4c <HAL_RCC_OscConfig+0x4b8>)
 8005ccc:	f8d3 3090 	ldr.w	r3, [r3, #144]	; 0x90
 8005cd0:	4a5e      	ldr	r2, [pc, #376]	; (8005e4c <HAL_RCC_OscConfig+0x4b8>)
 8005cd2:	f043 0304 	orr.w	r3, r3, #4
 8005cd6:	f8c2 3090 	str.w	r3, [r2, #144]	; 0x90
 8005cda:	4b5c      	ldr	r3, [pc, #368]	; (8005e4c <HAL_RCC_OscConfig+0x4b8>)
 8005cdc:	f8d3 3090 	ldr.w	r3, [r3, #144]	; 0x90
 8005ce0:	4a5a      	ldr	r2, [pc, #360]	; (8005e4c <HAL_RCC_OscConfig+0x4b8>)
 8005ce2:	f043 0301 	orr.w	r3, r3, #1
 8005ce6:	f8c2 3090 	str.w	r3, [r2, #144]	; 0x90
 8005cea:	e00f      	b.n	8005d0c <HAL_RCC_OscConfig+0x378>
 8005cec:	4b57      	ldr	r3, [pc, #348]	; (8005e4c <HAL_RCC_OscConfig+0x4b8>)
 8005cee:	f8d3 3090 	ldr.w	r3, [r3, #144]	; 0x90
 8005cf2:	4a56      	ldr	r2, [pc, #344]	; (8005e4c <HAL_RCC_OscConfig+0x4b8>)
 8005cf4:	f023 0301 	bic.w	r3, r3, #1
 8005cf8:	f8c2 3090 	str.w	r3, [r2, #144]	; 0x90
 8005cfc:	4b53      	ldr	r3, [pc, #332]	; (8005e4c <HAL_RCC_OscConfig+0x4b8>)
 8005cfe:	f8d3 3090 	ldr.w	r3, [r3, #144]	; 0x90
 8005d02:	4a52      	ldr	r2, [pc, #328]	; (8005e4c <HAL_RCC_OscConfig+0x4b8>)
 8005d04:	f023 0304 	bic.w	r3, r3, #4
 8005d08:	f8c2 3090 	str.w	r3, [r2, #144]	; 0x90
 8005d0c:	687b      	ldr	r3, [r7, #4]
 8005d0e:	689b      	ldr	r3, [r3, #8]
 8005d10:	2b00      	cmp	r3, #0
 8005d12:	d016      	beq.n	8005d42 <HAL_RCC_OscConfig+0x3ae>
 8005d14:	f7fc f912 	bl	8001f3c <HAL_GetTick>
 8005d18:	6138      	str	r0, [r7, #16]
 8005d1a:	e00a      	b.n	8005d32 <HAL_RCC_OscConfig+0x39e>
 8005d1c:	f7fc f90e 	bl	8001f3c <HAL_GetTick>
 8005d20:	4602      	mov	r2, r0
 8005d22:	693b      	ldr	r3, [r7, #16]
 8005d24:	1ad3      	subs	r3, r2, r3
 8005d26:	f241 3288 	movw	r2, #5000	; 0x1388
 8005d2a:	4293      	cmp	r3, r2
 8005d2c:	d901      	bls.n	8005d32 <HAL_RCC_OscConfig+0x39e>
 8005d2e:	2303      	movs	r3, #3
 8005d30:	e140      	b.n	8005fb4 <HAL_RCC_OscConfig+0x620>
 8005d32:	4b46      	ldr	r3, [pc, #280]	; (8005e4c <HAL_RCC_OscConfig+0x4b8>)
 8005d34:	f8d3 3090 	ldr.w	r3, [r3, #144]	; 0x90
 8005d38:	f003 0302 	and.w	r3, r3, #2
 8005d3c:	2b00      	cmp	r3, #0
 8005d3e:	d0ed      	beq.n	8005d1c <HAL_RCC_OscConfig+0x388>
 8005d40:	e015      	b.n	8005d6e <HAL_RCC_OscConfig+0x3da>
 8005d42:	f7fc f8fb 	bl	8001f3c <HAL_GetTick>
 8005d46:	6138      	str	r0, [r7, #16]
 8005d48:	e00a      	b.n	8005d60 <HAL_RCC_OscConfig+0x3cc>
 8005d4a:	f7fc f8f7 	bl	8001f3c <HAL_GetTick>
 8005d4e:	4602      	mov	r2, r0
 8005d50:	693b      	ldr	r3, [r7, #16]
 8005d52:	1ad3      	subs	r3, r2, r3
 8005d54:	f241 3288 	movw	r2, #5000	; 0x1388
 8005d58:	4293      	cmp	r3, r2
 8005d5a:	d901      	bls.n	8005d60 <HAL_RCC_OscConfig+0x3cc>
 8005d5c:	2303      	movs	r3, #3
 8005d5e:	e129      	b.n	8005fb4 <HAL_RCC_OscConfig+0x620>
 8005d60:	4b3a      	ldr	r3, [pc, #232]	; (8005e4c <HAL_RCC_OscConfig+0x4b8>)
 8005d62:	f8d3 3090 	ldr.w	r3, [r3, #144]	; 0x90
 8005d66:	f003 0302 	and.w	r3, r3, #2
 8005d6a:	2b00      	cmp	r3, #0
 8005d6c:	d1ed      	bne.n	8005d4a <HAL_RCC_OscConfig+0x3b6>
 8005d6e:	7ffb      	ldrb	r3, [r7, #31]
 8005d70:	2b01      	cmp	r3, #1
 8005d72:	d105      	bne.n	8005d80 <HAL_RCC_OscConfig+0x3ec>
 8005d74:	4b35      	ldr	r3, [pc, #212]	; (8005e4c <HAL_RCC_OscConfig+0x4b8>)
 8005d76:	6d9b      	ldr	r3, [r3, #88]	; 0x58
 8005d78:	4a34      	ldr	r2, [pc, #208]	; (8005e4c <HAL_RCC_OscConfig+0x4b8>)
 8005d7a:	f023 5380 	bic.w	r3, r3, #268435456	; 0x10000000
 8005d7e:	6593      	str	r3, [r2, #88]	; 0x58
 8005d80:	687b      	ldr	r3, [r7, #4]
 8005d82:	681b      	ldr	r3, [r3, #0]
 8005d84:	f003 0320 	and.w	r3, r3, #32
 8005d88:	2b00      	cmp	r3, #0
 8005d8a:	d03c      	beq.n	8005e06 <HAL_RCC_OscConfig+0x472>
 8005d8c:	687b      	ldr	r3, [r7, #4]
 8005d8e:	699b      	ldr	r3, [r3, #24]
 8005d90:	2b00      	cmp	r3, #0
 8005d92:	d01c      	beq.n	8005dce <HAL_RCC_OscConfig+0x43a>
 8005d94:	4b2d      	ldr	r3, [pc, #180]	; (8005e4c <HAL_RCC_OscConfig+0x4b8>)
 8005d96:	f8d3 3098 	ldr.w	r3, [r3, #152]	; 0x98
 8005d9a:	4a2c      	ldr	r2, [pc, #176]	; (8005e4c <HAL_RCC_OscConfig+0x4b8>)
 8005d9c:	f043 0301 	orr.w	r3, r3, #1
 8005da0:	f8c2 3098 	str.w	r3, [r2, #152]	; 0x98
 8005da4:	f7fc f8ca 	bl	8001f3c <HAL_GetTick>
 8005da8:	6138      	str	r0, [r7, #16]
 8005daa:	e008      	b.n	8005dbe <HAL_RCC_OscConfig+0x42a>
 8005dac:	f7fc f8c6 	bl	8001f3c <HAL_GetTick>
 8005db0:	4602      	mov	r2, r0
 8005db2:	693b      	ldr	r3, [r7, #16]
 8005db4:	1ad3      	subs	r3, r2, r3
 8005db6:	2b02      	cmp	r3, #2
 8005db8:	d901      	bls.n	8005dbe <HAL_RCC_OscConfig+0x42a>
 8005dba:	2303      	movs	r3, #3
 8005dbc:	e0fa      	b.n	8005fb4 <HAL_RCC_OscConfig+0x620>
 8005dbe:	4b23      	ldr	r3, [pc, #140]	; (8005e4c <HAL_RCC_OscConfig+0x4b8>)
 8005dc0:	f8d3 3098 	ldr.w	r3, [r3, #152]	; 0x98
 8005dc4:	f003 0302 	and.w	r3, r3, #2
 8005dc8:	2b00      	cmp	r3, #0
 8005dca:	d0ef      	beq.n	8005dac <HAL_RCC_OscConfig+0x418>
 8005dcc:	e01b      	b.n	8005e06 <HAL_RCC_OscConfig+0x472>
 8005dce:	4b1f      	ldr	r3, [pc, #124]	; (8005e4c <HAL_RCC_OscConfig+0x4b8>)
 8005dd0:	f8d3 3098 	ldr.w	r3, [r3, #152]	; 0x98
 8005dd4:	4a1d      	ldr	r2, [pc, #116]	; (8005e4c <HAL_RCC_OscConfig+0x4b8>)
 8005dd6:	f023 0301 	bic.w	r3, r3, #1
 8005dda:	f8c2 3098 	str.w	r3, [r2, #152]	; 0x98
 8005dde:	f7fc f8ad 	bl	8001f3c <HAL_GetTick>
 8005de2:	6138      	str	r0, [r7, #16]
 8005de4:	e008      	b.n	8005df8 <HAL_RCC_OscConfig+0x464>
 8005de6:	f7fc f8a9 	bl	8001f3c <HAL_GetTick>
 8005dea:	4602      	mov	r2, r0
 8005dec:	693b      	ldr	r3, [r7, #16]
 8005dee:	1ad3      	subs	r3, r2, r3
 8005df0:	2b02      	cmp	r3, #2
 8005df2:	d901      	bls.n	8005df8 <HAL_RCC_OscConfig+0x464>
 8005df4:	2303      	movs	r3, #3
 8005df6:	e0dd      	b.n	8005fb4 <HAL_RCC_OscConfig+0x620>
 8005df8:	4b14      	ldr	r3, [pc, #80]	; (8005e4c <HAL_RCC_OscConfig+0x4b8>)
 8005dfa:	f8d3 3098 	ldr.w	r3, [r3, #152]	; 0x98
 8005dfe:	f003 0302 	and.w	r3, r3, #2
 8005e02:	2b00      	cmp	r3, #0
 8005e04:	d1ef      	bne.n	8005de6 <HAL_RCC_OscConfig+0x452>
 8005e06:	687b      	ldr	r3, [r7, #4]
 8005e08:	69db      	ldr	r3, [r3, #28]
 8005e0a:	2b00      	cmp	r3, #0
 8005e0c:	f000 80d1 	beq.w	8005fb2 <HAL_RCC_OscConfig+0x61e>
 8005e10:	4b0e      	ldr	r3, [pc, #56]	; (8005e4c <HAL_RCC_OscConfig+0x4b8>)
 8005e12:	689b      	ldr	r3, [r3, #8]
 8005e14:	f003 030c 	and.w	r3, r3, #12
 8005e18:	2b0c      	cmp	r3, #12
 8005e1a:	f000 808b 	beq.w	8005f34 <HAL_RCC_OscConfig+0x5a0>
 8005e1e:	687b      	ldr	r3, [r7, #4]
 8005e20:	69db      	ldr	r3, [r3, #28]
 8005e22:	2b02      	cmp	r3, #2
 8005e24:	d15e      	bne.n	8005ee4 <HAL_RCC_OscConfig+0x550>
 8005e26:	4b09      	ldr	r3, [pc, #36]	; (8005e4c <HAL_RCC_OscConfig+0x4b8>)
 8005e28:	681b      	ldr	r3, [r3, #0]
 8005e2a:	4a08      	ldr	r2, [pc, #32]	; (8005e4c <HAL_RCC_OscConfig+0x4b8>)
 8005e2c:	f023 7380 	bic.w	r3, r3, #16777216	; 0x1000000
 8005e30:	6013      	str	r3, [r2, #0]
 8005e32:	f7fc f883 	bl	8001f3c <HAL_GetTick>
 8005e36:	6138      	str	r0, [r7, #16]
 8005e38:	e00c      	b.n	8005e54 <HAL_RCC_OscConfig+0x4c0>
 8005e3a:	f7fc f87f 	bl	8001f3c <HAL_GetTick>
 8005e3e:	4602      	mov	r2, r0
 8005e40:	693b      	ldr	r3, [r7, #16]
 8005e42:	1ad3      	subs	r3, r2, r3
 8005e44:	2b02      	cmp	r3, #2
 8005e46:	d905      	bls.n	8005e54 <HAL_RCC_OscConfig+0x4c0>
 8005e48:	2303      	movs	r3, #3
 8005e4a:	e0b3      	b.n	8005fb4 <HAL_RCC_OscConfig+0x620>
 8005e4c:	40021000 	.word	0x40021000
 8005e50:	40007000 	.word	0x40007000
 8005e54:	4b59      	ldr	r3, [pc, #356]	; (8005fbc <HAL_RCC_OscConfig+0x628>)
 8005e56:	681b      	ldr	r3, [r3, #0]
 8005e58:	f003 7300 	and.w	r3, r3, #33554432	; 0x2000000
 8005e5c:	2b00      	cmp	r3, #0
 8005e5e:	d1ec      	bne.n	8005e3a <HAL_RCC_OscConfig+0x4a6>
 8005e60:	4b56      	ldr	r3, [pc, #344]	; (8005fbc <HAL_RCC_OscConfig+0x628>)
 8005e62:	68da      	ldr	r2, [r3, #12]
 8005e64:	4b56      	ldr	r3, [pc, #344]	; (8005fc0 <HAL_RCC_OscConfig+0x62c>)
 8005e66:	4013      	ands	r3, r2
 8005e68:	687a      	ldr	r2, [r7, #4]
 8005e6a:	6a11      	ldr	r1, [r2, #32]
 8005e6c:	687a      	ldr	r2, [r7, #4]
 8005e6e:	6a52      	ldr	r2, [r2, #36]	; 0x24
 8005e70:	3a01      	subs	r2, #1
 8005e72:	0112      	lsls	r2, r2, #4
 8005e74:	4311      	orrs	r1, r2
 8005e76:	687a      	ldr	r2, [r7, #4]
 8005e78:	6a92      	ldr	r2, [r2, #40]	; 0x28
 8005e7a:	0212      	lsls	r2, r2, #8
 8005e7c:	4311      	orrs	r1, r2
 8005e7e:	687a      	ldr	r2, [r7, #4]
 8005e80:	6b12      	ldr	r2, [r2, #48]	; 0x30
 8005e82:	0852      	lsrs	r2, r2, #1
 8005e84:	3a01      	subs	r2, #1
 8005e86:	0552      	lsls	r2, r2, #21
 8005e88:	4311      	orrs	r1, r2
 8005e8a:	687a      	ldr	r2, [r7, #4]
 8005e8c:	6b52      	ldr	r2, [r2, #52]	; 0x34
 8005e8e:	0852      	lsrs	r2, r2, #1
 8005e90:	3a01      	subs	r2, #1
 8005e92:	0652      	lsls	r2, r2, #25
 8005e94:	4311      	orrs	r1, r2
 8005e96:	687a      	ldr	r2, [r7, #4]
 8005e98:	6ad2      	ldr	r2, [r2, #44]	; 0x2c
 8005e9a:	06d2      	lsls	r2, r2, #27
 8005e9c:	430a      	orrs	r2, r1
 8005e9e:	4947      	ldr	r1, [pc, #284]	; (8005fbc <HAL_RCC_OscConfig+0x628>)
 8005ea0:	4313      	orrs	r3, r2
 8005ea2:	60cb      	str	r3, [r1, #12]
 8005ea4:	4b45      	ldr	r3, [pc, #276]	; (8005fbc <HAL_RCC_OscConfig+0x628>)
 8005ea6:	681b      	ldr	r3, [r3, #0]
 8005ea8:	4a44      	ldr	r2, [pc, #272]	; (8005fbc <HAL_RCC_OscConfig+0x628>)
 8005eaa:	f043 7380 	orr.w	r3, r3, #16777216	; 0x1000000
 8005eae:	6013      	str	r3, [r2, #0]
 8005eb0:	4b42      	ldr	r3, [pc, #264]	; (8005fbc <HAL_RCC_OscConfig+0x628>)
 8005eb2:	68db      	ldr	r3, [r3, #12]
 8005eb4:	4a41      	ldr	r2, [pc, #260]	; (8005fbc <HAL_RCC_OscConfig+0x628>)
 8005eb6:	f043 7380 	orr.w	r3, r3, #16777216	; 0x1000000
 8005eba:	60d3      	str	r3, [r2, #12]
 8005ebc:	f7fc f83e 	bl	8001f3c <HAL_GetTick>
 8005ec0:	6138      	str	r0, [r7, #16]
 8005ec2:	e008      	b.n	8005ed6 <HAL_RCC_OscConfig+0x542>
 8005ec4:	f7fc f83a 	bl	8001f3c <HAL_GetTick>
 8005ec8:	4602      	mov	r2, r0
 8005eca:	693b      	ldr	r3, [r7, #16]
 8005ecc:	1ad3      	subs	r3, r2, r3
 8005ece:	2b02      	cmp	r3, #2
 8005ed0:	d901      	bls.n	8005ed6 <HAL_RCC_OscConfig+0x542>
 8005ed2:	2303      	movs	r3, #3
 8005ed4:	e06e      	b.n	8005fb4 <HAL_RCC_OscConfig+0x620>
 8005ed6:	4b39      	ldr	r3, [pc, #228]	; (8005fbc <HAL_RCC_OscConfig+0x628>)
 8005ed8:	681b      	ldr	r3, [r3, #0]
 8005eda:	f003 7300 	and.w	r3, r3, #33554432	; 0x2000000
 8005ede:	2b00      	cmp	r3, #0
 8005ee0:	d0f0      	beq.n	8005ec4 <HAL_RCC_OscConfig+0x530>
 8005ee2:	e066      	b.n	8005fb2 <HAL_RCC_OscConfig+0x61e>
 8005ee4:	4b35      	ldr	r3, [pc, #212]	; (8005fbc <HAL_RCC_OscConfig+0x628>)
 8005ee6:	681b      	ldr	r3, [r3, #0]
 8005ee8:	4a34      	ldr	r2, [pc, #208]	; (8005fbc <HAL_RCC_OscConfig+0x628>)
 8005eea:	f023 7380 	bic.w	r3, r3, #16777216	; 0x1000000
 8005eee:	6013      	str	r3, [r2, #0]
 8005ef0:	4b32      	ldr	r3, [pc, #200]	; (8005fbc <HAL_RCC_OscConfig+0x628>)
 8005ef2:	68db      	ldr	r3, [r3, #12]
 8005ef4:	4a31      	ldr	r2, [pc, #196]	; (8005fbc <HAL_RCC_OscConfig+0x628>)
 8005ef6:	f023 0303 	bic.w	r3, r3, #3
 8005efa:	60d3      	str	r3, [r2, #12]
 8005efc:	4b2f      	ldr	r3, [pc, #188]	; (8005fbc <HAL_RCC_OscConfig+0x628>)
 8005efe:	68db      	ldr	r3, [r3, #12]
 8005f00:	4a2e      	ldr	r2, [pc, #184]	; (8005fbc <HAL_RCC_OscConfig+0x628>)
 8005f02:	f023 7388 	bic.w	r3, r3, #17825792	; 0x1100000
 8005f06:	f423 3380 	bic.w	r3, r3, #65536	; 0x10000
 8005f0a:	60d3      	str	r3, [r2, #12]
 8005f0c:	f7fc f816 	bl	8001f3c <HAL_GetTick>
 8005f10:	6138      	str	r0, [r7, #16]
 8005f12:	e008      	b.n	8005f26 <HAL_RCC_OscConfig+0x592>
 8005f14:	f7fc f812 	bl	8001f3c <HAL_GetTick>
 8005f18:	4602      	mov	r2, r0
 8005f1a:	693b      	ldr	r3, [r7, #16]
 8005f1c:	1ad3      	subs	r3, r2, r3
 8005f1e:	2b02      	cmp	r3, #2
 8005f20:	d901      	bls.n	8005f26 <HAL_RCC_OscConfig+0x592>
 8005f22:	2303      	movs	r3, #3
 8005f24:	e046      	b.n	8005fb4 <HAL_RCC_OscConfig+0x620>
 8005f26:	4b25      	ldr	r3, [pc, #148]	; (8005fbc <HAL_RCC_OscConfig+0x628>)
 8005f28:	681b      	ldr	r3, [r3, #0]
 8005f2a:	f003 7300 	and.w	r3, r3, #33554432	; 0x2000000
 8005f2e:	2b00      	cmp	r3, #0
 8005f30:	d1f0      	bne.n	8005f14 <HAL_RCC_OscConfig+0x580>
 8005f32:	e03e      	b.n	8005fb2 <HAL_RCC_OscConfig+0x61e>
 8005f34:	687b      	ldr	r3, [r7, #4]
 8005f36:	69db      	ldr	r3, [r3, #28]
 8005f38:	2b01      	cmp	r3, #1
 8005f3a:	d101      	bne.n	8005f40 <HAL_RCC_OscConfig+0x5ac>
 8005f3c:	2301      	movs	r3, #1
 8005f3e:	e039      	b.n	8005fb4 <HAL_RCC_OscConfig+0x620>
 8005f40:	4b1e      	ldr	r3, [pc, #120]	; (8005fbc <HAL_RCC_OscConfig+0x628>)
 8005f42:	68db      	ldr	r3, [r3, #12]
 8005f44:	617b      	str	r3, [r7, #20]
 8005f46:	697b      	ldr	r3, [r7, #20]
 8005f48:	f003 0203 	and.w	r2, r3, #3
 8005f4c:	687b      	ldr	r3, [r7, #4]
 8005f4e:	6a1b      	ldr	r3, [r3, #32]
 8005f50:	429a      	cmp	r2, r3
 8005f52:	d12c      	bne.n	8005fae <HAL_RCC_OscConfig+0x61a>
 8005f54:	697b      	ldr	r3, [r7, #20]
 8005f56:	f003 02f0 	and.w	r2, r3, #240	; 0xf0
 8005f5a:	687b      	ldr	r3, [r7, #4]
 8005f5c:	6a5b      	ldr	r3, [r3, #36]	; 0x24
 8005f5e:	3b01      	subs	r3, #1
 8005f60:	011b      	lsls	r3, r3, #4
 8005f62:	429a      	cmp	r2, r3
 8005f64:	d123      	bne.n	8005fae <HAL_RCC_OscConfig+0x61a>
 8005f66:	697b      	ldr	r3, [r7, #20]
 8005f68:	f403 42fe 	and.w	r2, r3, #32512	; 0x7f00
 8005f6c:	687b      	ldr	r3, [r7, #4]
 8005f6e:	6a9b      	ldr	r3, [r3, #40]	; 0x28
 8005f70:	021b      	lsls	r3, r3, #8
 8005f72:	429a      	cmp	r2, r3
 8005f74:	d11b      	bne.n	8005fae <HAL_RCC_OscConfig+0x61a>
 8005f76:	697b      	ldr	r3, [r7, #20]
 8005f78:	f003 4278 	and.w	r2, r3, #4160749568	; 0xf8000000
 8005f7c:	687b      	ldr	r3, [r7, #4]
 8005f7e:	6adb      	ldr	r3, [r3, #44]	; 0x2c
 8005f80:	06db      	lsls	r3, r3, #27
 8005f82:	429a      	cmp	r2, r3
 8005f84:	d113      	bne.n	8005fae <HAL_RCC_OscConfig+0x61a>
 8005f86:	697b      	ldr	r3, [r7, #20]
 8005f88:	f403 02c0 	and.w	r2, r3, #6291456	; 0x600000
 8005f8c:	687b      	ldr	r3, [r7, #4]
 8005f8e:	6b1b      	ldr	r3, [r3, #48]	; 0x30
 8005f90:	085b      	lsrs	r3, r3, #1
 8005f92:	3b01      	subs	r3, #1
 8005f94:	055b      	lsls	r3, r3, #21
 8005f96:	429a      	cmp	r2, r3
 8005f98:	d109      	bne.n	8005fae <HAL_RCC_OscConfig+0x61a>
 8005f9a:	697b      	ldr	r3, [r7, #20]
 8005f9c:	f003 62c0 	and.w	r2, r3, #100663296	; 0x6000000
 8005fa0:	687b      	ldr	r3, [r7, #4]
 8005fa2:	6b5b      	ldr	r3, [r3, #52]	; 0x34
 8005fa4:	085b      	lsrs	r3, r3, #1
 8005fa6:	3b01      	subs	r3, #1
 8005fa8:	065b      	lsls	r3, r3, #25
 8005faa:	429a      	cmp	r2, r3
 8005fac:	d001      	beq.n	8005fb2 <HAL_RCC_OscConfig+0x61e>
 8005fae:	2301      	movs	r3, #1
 8005fb0:	e000      	b.n	8005fb4 <HAL_RCC_OscConfig+0x620>
 8005fb2:	2300      	movs	r3, #0
 8005fb4:	4618      	mov	r0, r3
 8005fb6:	3720      	adds	r7, #32
 8005fb8:	46bd      	mov	sp, r7
 8005fba:	bd80      	pop	{r7, pc}
 8005fbc:	40021000 	.word	0x40021000
 8005fc0:	019f800c 	.word	0x019f800c

08005fc4 <HAL_RCC_ClockConfig>:
 8005fc4:	b580      	push	{r7, lr}
 8005fc6:	b086      	sub	sp, #24
 8005fc8:	af00      	add	r7, sp, #0
 8005fca:	6078      	str	r0, [r7, #4]
 8005fcc:	6039      	str	r1, [r7, #0]
 8005fce:	2300      	movs	r3, #0
 8005fd0:	617b      	str	r3, [r7, #20]
 8005fd2:	687b      	ldr	r3, [r7, #4]
 8005fd4:	2b00      	cmp	r3, #0
 8005fd6:	d101      	bne.n	8005fdc <HAL_RCC_ClockConfig+0x18>
 8005fd8:	2301      	movs	r3, #1
 8005fda:	e11e      	b.n	800621a <HAL_RCC_ClockConfig+0x256>
 8005fdc:	4b91      	ldr	r3, [pc, #580]	; (8006224 <HAL_RCC_ClockConfig+0x260>)
 8005fde:	681b      	ldr	r3, [r3, #0]
 8005fe0:	f003 030f 	and.w	r3, r3, #15
 8005fe4:	683a      	ldr	r2, [r7, #0]
 8005fe6:	429a      	cmp	r2, r3
 8005fe8:	d910      	bls.n	800600c <HAL_RCC_ClockConfig+0x48>
 8005fea:	4b8e      	ldr	r3, [pc, #568]	; (8006224 <HAL_RCC_ClockConfig+0x260>)
 8005fec:	681b      	ldr	r3, [r3, #0]
 8005fee:	f023 020f 	bic.w	r2, r3, #15
 8005ff2:	498c      	ldr	r1, [pc, #560]	; (8006224 <HAL_RCC_ClockConfig+0x260>)
 8005ff4:	683b      	ldr	r3, [r7, #0]
 8005ff6:	4313      	orrs	r3, r2
 8005ff8:	600b      	str	r3, [r1, #0]
 8005ffa:	4b8a      	ldr	r3, [pc, #552]	; (8006224 <HAL_RCC_ClockConfig+0x260>)
 8005ffc:	681b      	ldr	r3, [r3, #0]
 8005ffe:	f003 030f 	and.w	r3, r3, #15
 8006002:	683a      	ldr	r2, [r7, #0]
 8006004:	429a      	cmp	r2, r3
 8006006:	d001      	beq.n	800600c <HAL_RCC_ClockConfig+0x48>
 8006008:	2301      	movs	r3, #1
 800600a:	e106      	b.n	800621a <HAL_RCC_ClockConfig+0x256>
 800600c:	687b      	ldr	r3, [r7, #4]
 800600e:	681b      	ldr	r3, [r3, #0]
 8006010:	f003 0301 	and.w	r3, r3, #1
 8006014:	2b00      	cmp	r3, #0
 8006016:	d073      	beq.n	8006100 <HAL_RCC_ClockConfig+0x13c>
 8006018:	687b      	ldr	r3, [r7, #4]
 800601a:	685b      	ldr	r3, [r3, #4]
 800601c:	2b03      	cmp	r3, #3
 800601e:	d129      	bne.n	8006074 <HAL_RCC_ClockConfig+0xb0>
 8006020:	4b81      	ldr	r3, [pc, #516]	; (8006228 <HAL_RCC_ClockConfig+0x264>)
 8006022:	681b      	ldr	r3, [r3, #0]
 8006024:	f003 7300 	and.w	r3, r3, #33554432	; 0x2000000
 8006028:	2b00      	cmp	r3, #0
 800602a:	d101      	bne.n	8006030 <HAL_RCC_ClockConfig+0x6c>
 800602c:	2301      	movs	r3, #1
 800602e:	e0f4      	b.n	800621a <HAL_RCC_ClockConfig+0x256>
 8006030:	f000 f972 	bl	8006318 <RCC_GetSysClockFreqFromPLLSource>
 8006034:	6138      	str	r0, [r7, #16]
 8006036:	693b      	ldr	r3, [r7, #16]
 8006038:	4a7c      	ldr	r2, [pc, #496]	; (800622c <HAL_RCC_ClockConfig+0x268>)
 800603a:	4293      	cmp	r3, r2
 800603c:	d93f      	bls.n	80060be <HAL_RCC_ClockConfig+0xfa>
 800603e:	4b7a      	ldr	r3, [pc, #488]	; (8006228 <HAL_RCC_ClockConfig+0x264>)
 8006040:	689b      	ldr	r3, [r3, #8]
 8006042:	f003 03f0 	and.w	r3, r3, #240	; 0xf0
 8006046:	2b00      	cmp	r3, #0
 8006048:	d009      	beq.n	800605e <HAL_RCC_ClockConfig+0x9a>
 800604a:	687b      	ldr	r3, [r7, #4]
 800604c:	681b      	ldr	r3, [r3, #0]
 800604e:	f003 0302 	and.w	r3, r3, #2
 8006052:	2b00      	cmp	r3, #0
 8006054:	d033      	beq.n	80060be <HAL_RCC_ClockConfig+0xfa>
 8006056:	687b      	ldr	r3, [r7, #4]
 8006058:	689b      	ldr	r3, [r3, #8]
 800605a:	2b00      	cmp	r3, #0
 800605c:	d12f      	bne.n	80060be <HAL_RCC_ClockConfig+0xfa>
 800605e:	4b72      	ldr	r3, [pc, #456]	; (8006228 <HAL_RCC_ClockConfig+0x264>)
 8006060:	689b      	ldr	r3, [r3, #8]
 8006062:	f023 03f0 	bic.w	r3, r3, #240	; 0xf0
 8006066:	4a70      	ldr	r2, [pc, #448]	; (8006228 <HAL_RCC_ClockConfig+0x264>)
 8006068:	f043 0380 	orr.w	r3, r3, #128	; 0x80
 800606c:	6093      	str	r3, [r2, #8]
 800606e:	2380      	movs	r3, #128	; 0x80
 8006070:	617b      	str	r3, [r7, #20]
 8006072:	e024      	b.n	80060be <HAL_RCC_ClockConfig+0xfa>
 8006074:	687b      	ldr	r3, [r7, #4]
 8006076:	685b      	ldr	r3, [r3, #4]
 8006078:	2b02      	cmp	r3, #2
 800607a:	d107      	bne.n	800608c <HAL_RCC_ClockConfig+0xc8>
 800607c:	4b6a      	ldr	r3, [pc, #424]	; (8006228 <HAL_RCC_ClockConfig+0x264>)
 800607e:	681b      	ldr	r3, [r3, #0]
 8006080:	f403 3300 	and.w	r3, r3, #131072	; 0x20000
 8006084:	2b00      	cmp	r3, #0
 8006086:	d109      	bne.n	800609c <HAL_RCC_ClockConfig+0xd8>
 8006088:	2301      	movs	r3, #1
 800608a:	e0c6      	b.n	800621a <HAL_RCC_ClockConfig+0x256>
 800608c:	4b66      	ldr	r3, [pc, #408]	; (8006228 <HAL_RCC_ClockConfig+0x264>)
 800608e:	681b      	ldr	r3, [r3, #0]
 8006090:	f403 6380 	and.w	r3, r3, #1024	; 0x400
 8006094:	2b00      	cmp	r3, #0
 8006096:	d101      	bne.n	800609c <HAL_RCC_ClockConfig+0xd8>
 8006098:	2301      	movs	r3, #1
 800609a:	e0be      	b.n	800621a <HAL_RCC_ClockConfig+0x256>
 800609c:	f000 f8ce 	bl	800623c <HAL_RCC_GetSysClockFreq>
 80060a0:	6138      	str	r0, [r7, #16]
 80060a2:	693b      	ldr	r3, [r7, #16]
 80060a4:	4a61      	ldr	r2, [pc, #388]	; (800622c <HAL_RCC_ClockConfig+0x268>)
 80060a6:	4293      	cmp	r3, r2
 80060a8:	d909      	bls.n	80060be <HAL_RCC_ClockConfig+0xfa>
 80060aa:	4b5f      	ldr	r3, [pc, #380]	; (8006228 <HAL_RCC_ClockConfig+0x264>)
 80060ac:	689b      	ldr	r3, [r3, #8]
 80060ae:	f023 03f0 	bic.w	r3, r3, #240	; 0xf0
 80060b2:	4a5d      	ldr	r2, [pc, #372]	; (8006228 <HAL_RCC_ClockConfig+0x264>)
 80060b4:	f043 0380 	orr.w	r3, r3, #128	; 0x80
 80060b8:	6093      	str	r3, [r2, #8]
 80060ba:	2380      	movs	r3, #128	; 0x80
 80060bc:	617b      	str	r3, [r7, #20]
 80060be:	4b5a      	ldr	r3, [pc, #360]	; (8006228 <HAL_RCC_ClockConfig+0x264>)
 80060c0:	689b      	ldr	r3, [r3, #8]
 80060c2:	f023 0203 	bic.w	r2, r3, #3
 80060c6:	687b      	ldr	r3, [r7, #4]
 80060c8:	685b      	ldr	r3, [r3, #4]
 80060ca:	4957      	ldr	r1, [pc, #348]	; (8006228 <HAL_RCC_ClockConfig+0x264>)
 80060cc:	4313      	orrs	r3, r2
 80060ce:	608b      	str	r3, [r1, #8]
 80060d0:	f7fb ff34 	bl	8001f3c <HAL_GetTick>
 80060d4:	60f8      	str	r0, [r7, #12]
 80060d6:	e00a      	b.n	80060ee <HAL_RCC_ClockConfig+0x12a>
 80060d8:	f7fb ff30 	bl	8001f3c <HAL_GetTick>
 80060dc:	4602      	mov	r2, r0
 80060de:	68fb      	ldr	r3, [r7, #12]
 80060e0:	1ad3      	subs	r3, r2, r3
 80060e2:	f241 3288 	movw	r2, #5000	; 0x1388
 80060e6:	4293      	cmp	r3, r2
 80060e8:	d901      	bls.n	80060ee <HAL_RCC_ClockConfig+0x12a>
 80060ea:	2303      	movs	r3, #3
 80060ec:	e095      	b.n	800621a <HAL_RCC_ClockConfig+0x256>
 80060ee:	4b4e      	ldr	r3, [pc, #312]	; (8006228 <HAL_RCC_ClockConfig+0x264>)
 80060f0:	689b      	ldr	r3, [r3, #8]
 80060f2:	f003 020c 	and.w	r2, r3, #12
 80060f6:	687b      	ldr	r3, [r7, #4]
 80060f8:	685b      	ldr	r3, [r3, #4]
 80060fa:	009b      	lsls	r3, r3, #2
 80060fc:	429a      	cmp	r2, r3
 80060fe:	d1eb      	bne.n	80060d8 <HAL_RCC_ClockConfig+0x114>
 8006100:	687b      	ldr	r3, [r7, #4]
 8006102:	681b      	ldr	r3, [r3, #0]
 8006104:	f003 0302 	and.w	r3, r3, #2
 8006108:	2b00      	cmp	r3, #0
 800610a:	d023      	beq.n	8006154 <HAL_RCC_ClockConfig+0x190>
 800610c:	687b      	ldr	r3, [r7, #4]
 800610e:	681b      	ldr	r3, [r3, #0]
 8006110:	f003 0304 	and.w	r3, r3, #4
 8006114:	2b00      	cmp	r3, #0
 8006116:	d005      	beq.n	8006124 <HAL_RCC_ClockConfig+0x160>
 8006118:	4b43      	ldr	r3, [pc, #268]	; (8006228 <HAL_RCC_ClockConfig+0x264>)
 800611a:	689b      	ldr	r3, [r3, #8]
 800611c:	4a42      	ldr	r2, [pc, #264]	; (8006228 <HAL_RCC_ClockConfig+0x264>)
 800611e:	f443 63e0 	orr.w	r3, r3, #1792	; 0x700
 8006122:	6093      	str	r3, [r2, #8]
 8006124:	687b      	ldr	r3, [r7, #4]
 8006126:	681b      	ldr	r3, [r3, #0]
 8006128:	f003 0308 	and.w	r3, r3, #8
 800612c:	2b00      	cmp	r3, #0
 800612e:	d007      	beq.n	8006140 <HAL_RCC_ClockConfig+0x17c>
 8006130:	4b3d      	ldr	r3, [pc, #244]	; (8006228 <HAL_RCC_ClockConfig+0x264>)
 8006132:	689b      	ldr	r3, [r3, #8]
 8006134:	f423 537c 	bic.w	r3, r3, #16128	; 0x3f00
 8006138:	4a3b      	ldr	r2, [pc, #236]	; (8006228 <HAL_RCC_ClockConfig+0x264>)
 800613a:	f443 63e0 	orr.w	r3, r3, #1792	; 0x700
 800613e:	6093      	str	r3, [r2, #8]
 8006140:	4b39      	ldr	r3, [pc, #228]	; (8006228 <HAL_RCC_ClockConfig+0x264>)
 8006142:	689b      	ldr	r3, [r3, #8]
 8006144:	f023 02f0 	bic.w	r2, r3, #240	; 0xf0
 8006148:	687b      	ldr	r3, [r7, #4]
 800614a:	689b      	ldr	r3, [r3, #8]
 800614c:	4936      	ldr	r1, [pc, #216]	; (8006228 <HAL_RCC_ClockConfig+0x264>)
 800614e:	4313      	orrs	r3, r2
 8006150:	608b      	str	r3, [r1, #8]
 8006152:	e008      	b.n	8006166 <HAL_RCC_ClockConfig+0x1a2>
 8006154:	697b      	ldr	r3, [r7, #20]
 8006156:	2b80      	cmp	r3, #128	; 0x80
 8006158:	d105      	bne.n	8006166 <HAL_RCC_ClockConfig+0x1a2>
 800615a:	4b33      	ldr	r3, [pc, #204]	; (8006228 <HAL_RCC_ClockConfig+0x264>)
 800615c:	689b      	ldr	r3, [r3, #8]
 800615e:	4a32      	ldr	r2, [pc, #200]	; (8006228 <HAL_RCC_ClockConfig+0x264>)
 8006160:	f023 03f0 	bic.w	r3, r3, #240	; 0xf0
 8006164:	6093      	str	r3, [r2, #8]
 8006166:	4b2f      	ldr	r3, [pc, #188]	; (8006224 <HAL_RCC_ClockConfig+0x260>)
 8006168:	681b      	ldr	r3, [r3, #0]
 800616a:	f003 030f 	and.w	r3, r3, #15
 800616e:	683a      	ldr	r2, [r7, #0]
 8006170:	429a      	cmp	r2, r3
 8006172:	d21d      	bcs.n	80061b0 <HAL_RCC_ClockConfig+0x1ec>
 8006174:	4b2b      	ldr	r3, [pc, #172]	; (8006224 <HAL_RCC_ClockConfig+0x260>)
 8006176:	681b      	ldr	r3, [r3, #0]
 8006178:	f023 020f 	bic.w	r2, r3, #15
 800617c:	4929      	ldr	r1, [pc, #164]	; (8006224 <HAL_RCC_ClockConfig+0x260>)
 800617e:	683b      	ldr	r3, [r7, #0]
 8006180:	4313      	orrs	r3, r2
 8006182:	600b      	str	r3, [r1, #0]
 8006184:	f7fb feda 	bl	8001f3c <HAL_GetTick>
 8006188:	60f8      	str	r0, [r7, #12]
 800618a:	e00a      	b.n	80061a2 <HAL_RCC_ClockConfig+0x1de>
 800618c:	f7fb fed6 	bl	8001f3c <HAL_GetTick>
 8006190:	4602      	mov	r2, r0
 8006192:	68fb      	ldr	r3, [r7, #12]
 8006194:	1ad3      	subs	r3, r2, r3
 8006196:	f241 3288 	movw	r2, #5000	; 0x1388
 800619a:	4293      	cmp	r3, r2
 800619c:	d901      	bls.n	80061a2 <HAL_RCC_ClockConfig+0x1de>
 800619e:	2303      	movs	r3, #3
 80061a0:	e03b      	b.n	800621a <HAL_RCC_ClockConfig+0x256>
 80061a2:	4b20      	ldr	r3, [pc, #128]	; (8006224 <HAL_RCC_ClockConfig+0x260>)
 80061a4:	681b      	ldr	r3, [r3, #0]
 80061a6:	f003 030f 	and.w	r3, r3, #15
 80061aa:	683a      	ldr	r2, [r7, #0]
 80061ac:	429a      	cmp	r2, r3
 80061ae:	d1ed      	bne.n	800618c <HAL_RCC_ClockConfig+0x1c8>
 80061b0:	687b      	ldr	r3, [r7, #4]
 80061b2:	681b      	ldr	r3, [r3, #0]
 80061b4:	f003 0304 	and.w	r3, r3, #4
 80061b8:	2b00      	cmp	r3, #0
 80061ba:	d008      	beq.n	80061ce <HAL_RCC_ClockConfig+0x20a>
 80061bc:	4b1a      	ldr	r3, [pc, #104]	; (8006228 <HAL_RCC_ClockConfig+0x264>)
 80061be:	689b      	ldr	r3, [r3, #8]
 80061c0:	f423 62e0 	bic.w	r2, r3, #1792	; 0x700
 80061c4:	687b      	ldr	r3, [r7, #4]
 80061c6:	68db      	ldr	r3, [r3, #12]
 80061c8:	4917      	ldr	r1, [pc, #92]	; (8006228 <HAL_RCC_ClockConfig+0x264>)
 80061ca:	4313      	orrs	r3, r2
 80061cc:	608b      	str	r3, [r1, #8]
 80061ce:	687b      	ldr	r3, [r7, #4]
 80061d0:	681b      	ldr	r3, [r3, #0]
 80061d2:	f003 0308 	and.w	r3, r3, #8
 80061d6:	2b00      	cmp	r3, #0
 80061d8:	d009      	beq.n	80061ee <HAL_RCC_ClockConfig+0x22a>
 80061da:	4b13      	ldr	r3, [pc, #76]	; (8006228 <HAL_RCC_ClockConfig+0x264>)
 80061dc:	689b      	ldr	r3, [r3, #8]
 80061de:	f423 5260 	bic.w	r2, r3, #14336	; 0x3800
 80061e2:	687b      	ldr	r3, [r7, #4]
 80061e4:	691b      	ldr	r3, [r3, #16]
 80061e6:	00db      	lsls	r3, r3, #3
 80061e8:	490f      	ldr	r1, [pc, #60]	; (8006228 <HAL_RCC_ClockConfig+0x264>)
 80061ea:	4313      	orrs	r3, r2
 80061ec:	608b      	str	r3, [r1, #8]
 80061ee:	f000 f825 	bl	800623c <HAL_RCC_GetSysClockFreq>
 80061f2:	4602      	mov	r2, r0
 80061f4:	4b0c      	ldr	r3, [pc, #48]	; (8006228 <HAL_RCC_ClockConfig+0x264>)
 80061f6:	689b      	ldr	r3, [r3, #8]
 80061f8:	091b      	lsrs	r3, r3, #4
 80061fa:	f003 030f 	and.w	r3, r3, #15
 80061fe:	490c      	ldr	r1, [pc, #48]	; (8006230 <HAL_RCC_ClockConfig+0x26c>)
 8006200:	5ccb      	ldrb	r3, [r1, r3]
 8006202:	f003 031f 	and.w	r3, r3, #31
 8006206:	fa22 f303 	lsr.w	r3, r2, r3
 800620a:	4a0a      	ldr	r2, [pc, #40]	; (8006234 <HAL_RCC_ClockConfig+0x270>)
 800620c:	6013      	str	r3, [r2, #0]
 800620e:	4b0a      	ldr	r3, [pc, #40]	; (8006238 <HAL_RCC_ClockConfig+0x274>)
 8006210:	681b      	ldr	r3, [r3, #0]
 8006212:	4618      	mov	r0, r3
 8006214:	f7fb fe46 	bl	8001ea4 <HAL_InitTick>
 8006218:	4603      	mov	r3, r0
 800621a:	4618      	mov	r0, r3
 800621c:	3718      	adds	r7, #24
 800621e:	46bd      	mov	sp, r7
 8006220:	bd80      	pop	{r7, pc}
 8006222:	bf00      	nop
 8006224:	40022000 	.word	0x40022000
 8006228:	40021000 	.word	0x40021000
 800622c:	04c4b400 	.word	0x04c4b400
 8006230:	08008848 	.word	0x08008848
 8006234:	20000008 	.word	0x20000008
 8006238:	2000000c 	.word	0x2000000c

0800623c <HAL_RCC_GetSysClockFreq>:
 800623c:	b480      	push	{r7}
 800623e:	b087      	sub	sp, #28
 8006240:	af00      	add	r7, sp, #0
 8006242:	4b2c      	ldr	r3, [pc, #176]	; (80062f4 <HAL_RCC_GetSysClockFreq+0xb8>)
 8006244:	689b      	ldr	r3, [r3, #8]
 8006246:	f003 030c 	and.w	r3, r3, #12
 800624a:	2b04      	cmp	r3, #4
 800624c:	d102      	bne.n	8006254 <HAL_RCC_GetSysClockFreq+0x18>
 800624e:	4b2a      	ldr	r3, [pc, #168]	; (80062f8 <HAL_RCC_GetSysClockFreq+0xbc>)
 8006250:	613b      	str	r3, [r7, #16]
 8006252:	e047      	b.n	80062e4 <HAL_RCC_GetSysClockFreq+0xa8>
 8006254:	4b27      	ldr	r3, [pc, #156]	; (80062f4 <HAL_RCC_GetSysClockFreq+0xb8>)
 8006256:	689b      	ldr	r3, [r3, #8]
 8006258:	f003 030c 	and.w	r3, r3, #12
 800625c:	2b08      	cmp	r3, #8
 800625e:	d102      	bne.n	8006266 <HAL_RCC_GetSysClockFreq+0x2a>
 8006260:	4b26      	ldr	r3, [pc, #152]	; (80062fc <HAL_RCC_GetSysClockFreq+0xc0>)
 8006262:	613b      	str	r3, [r7, #16]
 8006264:	e03e      	b.n	80062e4 <HAL_RCC_GetSysClockFreq+0xa8>
 8006266:	4b23      	ldr	r3, [pc, #140]	; (80062f4 <HAL_RCC_GetSysClockFreq+0xb8>)
 8006268:	689b      	ldr	r3, [r3, #8]
 800626a:	f003 030c 	and.w	r3, r3, #12
 800626e:	2b0c      	cmp	r3, #12
 8006270:	d136      	bne.n	80062e0 <HAL_RCC_GetSysClockFreq+0xa4>
 8006272:	4b20      	ldr	r3, [pc, #128]	; (80062f4 <HAL_RCC_GetSysClockFreq+0xb8>)
 8006274:	68db      	ldr	r3, [r3, #12]
 8006276:	f003 0303 	and.w	r3, r3, #3
 800627a:	60fb      	str	r3, [r7, #12]
 800627c:	4b1d      	ldr	r3, [pc, #116]	; (80062f4 <HAL_RCC_GetSysClockFreq+0xb8>)
 800627e:	68db      	ldr	r3, [r3, #12]
 8006280:	091b      	lsrs	r3, r3, #4
 8006282:	f003 030f 	and.w	r3, r3, #15
 8006286:	3301      	adds	r3, #1
 8006288:	60bb      	str	r3, [r7, #8]
 800628a:	68fb      	ldr	r3, [r7, #12]
 800628c:	2b03      	cmp	r3, #3
 800628e:	d10c      	bne.n	80062aa <HAL_RCC_GetSysClockFreq+0x6e>
 8006290:	4a1a      	ldr	r2, [pc, #104]	; (80062fc <HAL_RCC_GetSysClockFreq+0xc0>)
 8006292:	68bb      	ldr	r3, [r7, #8]
 8006294:	fbb2 f3f3 	udiv	r3, r2, r3
 8006298:	4a16      	ldr	r2, [pc, #88]	; (80062f4 <HAL_RCC_GetSysClockFreq+0xb8>)
 800629a:	68d2      	ldr	r2, [r2, #12]
 800629c:	0a12      	lsrs	r2, r2, #8
 800629e:	f002 027f 	and.w	r2, r2, #127	; 0x7f
 80062a2:	fb02 f303 	mul.w	r3, r2, r3
 80062a6:	617b      	str	r3, [r7, #20]
 80062a8:	e00c      	b.n	80062c4 <HAL_RCC_GetSysClockFreq+0x88>
 80062aa:	4a13      	ldr	r2, [pc, #76]	; (80062f8 <HAL_RCC_GetSysClockFreq+0xbc>)
 80062ac:	68bb      	ldr	r3, [r7, #8]
 80062ae:	fbb2 f3f3 	udiv	r3, r2, r3
 80062b2:	4a10      	ldr	r2, [pc, #64]	; (80062f4 <HAL_RCC_GetSysClockFreq+0xb8>)
 80062b4:	68d2      	ldr	r2, [r2, #12]
 80062b6:	0a12      	lsrs	r2, r2, #8
 80062b8:	f002 027f 	and.w	r2, r2, #127	; 0x7f
 80062bc:	fb02 f303 	mul.w	r3, r2, r3
 80062c0:	617b      	str	r3, [r7, #20]
 80062c2:	bf00      	nop
 80062c4:	4b0b      	ldr	r3, [pc, #44]	; (80062f4 <HAL_RCC_GetSysClockFreq+0xb8>)
 80062c6:	68db      	ldr	r3, [r3, #12]
 80062c8:	0e5b      	lsrs	r3, r3, #25
 80062ca:	f003 0303 	and.w	r3, r3, #3
 80062ce:	3301      	adds	r3, #1
 80062d0:	005b      	lsls	r3, r3, #1
 80062d2:	607b      	str	r3, [r7, #4]
 80062d4:	697a      	ldr	r2, [r7, #20]
 80062d6:	687b      	ldr	r3, [r7, #4]
 80062d8:	fbb2 f3f3 	udiv	r3, r2, r3
 80062dc:	613b      	str	r3, [r7, #16]
 80062de:	e001      	b.n	80062e4 <HAL_RCC_GetSysClockFreq+0xa8>
 80062e0:	2300      	movs	r3, #0
 80062e2:	613b      	str	r3, [r7, #16]
 80062e4:	693b      	ldr	r3, [r7, #16]
 80062e6:	4618      	mov	r0, r3
 80062e8:	371c      	adds	r7, #28
 80062ea:	46bd      	mov	sp, r7
 80062ec:	f85d 7b04 	ldr.w	r7, [sp], #4
 80062f0:	4770      	bx	lr
 80062f2:	bf00      	nop
 80062f4:	40021000 	.word	0x40021000
 80062f8:	00f42400 	.word	0x00f42400
 80062fc:	007a1200 	.word	0x007a1200

08006300 <HAL_RCC_GetHCLKFreq>:
 8006300:	b480      	push	{r7}
 8006302:	af00      	add	r7, sp, #0
 8006304:	4b03      	ldr	r3, [pc, #12]	; (8006314 <HAL_RCC_GetHCLKFreq+0x14>)
 8006306:	681b      	ldr	r3, [r3, #0]
 8006308:	4618      	mov	r0, r3
 800630a:	46bd      	mov	sp, r7
 800630c:	f85d 7b04 	ldr.w	r7, [sp], #4
 8006310:	4770      	bx	lr
 8006312:	bf00      	nop
 8006314:	20000008 	.word	0x20000008

08006318 <RCC_GetSysClockFreqFromPLLSource>:
 8006318:	b480      	push	{r7}
 800631a:	b087      	sub	sp, #28
 800631c:	af00      	add	r7, sp, #0
 800631e:	4b1e      	ldr	r3, [pc, #120]	; (8006398 <RCC_GetSysClockFreqFromPLLSource+0x80>)
 8006320:	68db      	ldr	r3, [r3, #12]
 8006322:	f003 0303 	and.w	r3, r3, #3
 8006326:	613b      	str	r3, [r7, #16]
 8006328:	4b1b      	ldr	r3, [pc, #108]	; (8006398 <RCC_GetSysClockFreqFromPLLSource+0x80>)
 800632a:	68db      	ldr	r3, [r3, #12]
 800632c:	091b      	lsrs	r3, r3, #4
 800632e:	f003 030f 	and.w	r3, r3, #15
 8006332:	3301      	adds	r3, #1
 8006334:	60fb      	str	r3, [r7, #12]
 8006336:	693b      	ldr	r3, [r7, #16]
 8006338:	2b03      	cmp	r3, #3
 800633a:	d10c      	bne.n	8006356 <RCC_GetSysClockFreqFromPLLSource+0x3e>
 800633c:	4a17      	ldr	r2, [pc, #92]	; (800639c <RCC_GetSysClockFreqFromPLLSource+0x84>)
 800633e:	68fb      	ldr	r3, [r7, #12]
 8006340:	fbb2 f3f3 	udiv	r3, r2, r3
 8006344:	4a14      	ldr	r2, [pc, #80]	; (8006398 <RCC_GetSysClockFreqFromPLLSource+0x80>)
 8006346:	68d2      	ldr	r2, [r2, #12]
 8006348:	0a12      	lsrs	r2, r2, #8
 800634a:	f002 027f 	and.w	r2, r2, #127	; 0x7f
 800634e:	fb02 f303 	mul.w	r3, r2, r3
 8006352:	617b      	str	r3, [r7, #20]
 8006354:	e00c      	b.n	8006370 <RCC_GetSysClockFreqFromPLLSource+0x58>
 8006356:	4a12      	ldr	r2, [pc, #72]	; (80063a0 <RCC_GetSysClockFreqFromPLLSource+0x88>)
 8006358:	68fb      	ldr	r3, [r7, #12]
 800635a:	fbb2 f3f3 	udiv	r3, r2, r3
 800635e:	4a0e      	ldr	r2, [pc, #56]	; (8006398 <RCC_GetSysClockFreqFromPLLSource+0x80>)
 8006360:	68d2      	ldr	r2, [r2, #12]
 8006362:	0a12      	lsrs	r2, r2, #8
 8006364:	f002 027f 	and.w	r2, r2, #127	; 0x7f
 8006368:	fb02 f303 	mul.w	r3, r2, r3
 800636c:	617b      	str	r3, [r7, #20]
 800636e:	bf00      	nop
 8006370:	4b09      	ldr	r3, [pc, #36]	; (8006398 <RCC_GetSysClockFreqFromPLLSource+0x80>)
 8006372:	68db      	ldr	r3, [r3, #12]
 8006374:	0e5b      	lsrs	r3, r3, #25
 8006376:	f003 0303 	and.w	r3, r3, #3
 800637a:	3301      	adds	r3, #1
 800637c:	005b      	lsls	r3, r3, #1
 800637e:	60bb      	str	r3, [r7, #8]
 8006380:	697a      	ldr	r2, [r7, #20]
 8006382:	68bb      	ldr	r3, [r7, #8]
 8006384:	fbb2 f3f3 	udiv	r3, r2, r3
 8006388:	607b      	str	r3, [r7, #4]
 800638a:	687b      	ldr	r3, [r7, #4]
 800638c:	4618      	mov	r0, r3
 800638e:	371c      	adds	r7, #28
 8006390:	46bd      	mov	sp, r7
 8006392:	f85d 7b04 	ldr.w	r7, [sp], #4
 8006396:	4770      	bx	lr
 8006398:	40021000 	.word	0x40021000
 800639c:	007a1200 	.word	0x007a1200
 80063a0:	00f42400 	.word	0x00f42400

080063a4 <HAL_RCCEx_PeriphCLKConfig>:
 80063a4:	b580      	push	{r7, lr}
 80063a6:	b086      	sub	sp, #24
 80063a8:	af00      	add	r7, sp, #0
 80063aa:	6078      	str	r0, [r7, #4]
 80063ac:	2300      	movs	r3, #0
 80063ae:	74fb      	strb	r3, [r7, #19]
 80063b0:	2300      	movs	r3, #0
 80063b2:	74bb      	strb	r3, [r7, #18]
 80063b4:	687b      	ldr	r3, [r7, #4]
 80063b6:	681b      	ldr	r3, [r3, #0]
 80063b8:	f403 2300 	and.w	r3, r3, #524288	; 0x80000
 80063bc:	2b00      	cmp	r3, #0
 80063be:	f000 8098 	beq.w	80064f2 <HAL_RCCEx_PeriphCLKConfig+0x14e>
 80063c2:	2300      	movs	r3, #0
 80063c4:	747b      	strb	r3, [r7, #17]
 80063c6:	4b43      	ldr	r3, [pc, #268]	; (80064d4 <HAL_RCCEx_PeriphCLKConfig+0x130>)
 80063c8:	6d9b      	ldr	r3, [r3, #88]	; 0x58
 80063ca:	f003 5380 	and.w	r3, r3, #268435456	; 0x10000000
 80063ce:	2b00      	cmp	r3, #0
 80063d0:	d10d      	bne.n	80063ee <HAL_RCCEx_PeriphCLKConfig+0x4a>
 80063d2:	4b40      	ldr	r3, [pc, #256]	; (80064d4 <HAL_RCCEx_PeriphCLKConfig+0x130>)
 80063d4:	6d9b      	ldr	r3, [r3, #88]	; 0x58
 80063d6:	4a3f      	ldr	r2, [pc, #252]	; (80064d4 <HAL_RCCEx_PeriphCLKConfig+0x130>)
 80063d8:	f043 5380 	orr.w	r3, r3, #268435456	; 0x10000000
 80063dc:	6593      	str	r3, [r2, #88]	; 0x58
 80063de:	4b3d      	ldr	r3, [pc, #244]	; (80064d4 <HAL_RCCEx_PeriphCLKConfig+0x130>)
 80063e0:	6d9b      	ldr	r3, [r3, #88]	; 0x58
 80063e2:	f003 5380 	and.w	r3, r3, #268435456	; 0x10000000
 80063e6:	60bb      	str	r3, [r7, #8]
 80063e8:	68bb      	ldr	r3, [r7, #8]
 80063ea:	2301      	movs	r3, #1
 80063ec:	747b      	strb	r3, [r7, #17]
 80063ee:	4b3a      	ldr	r3, [pc, #232]	; (80064d8 <HAL_RCCEx_PeriphCLKConfig+0x134>)
 80063f0:	681b      	ldr	r3, [r3, #0]
 80063f2:	4a39      	ldr	r2, [pc, #228]	; (80064d8 <HAL_RCCEx_PeriphCLKConfig+0x134>)
 80063f4:	f443 7380 	orr.w	r3, r3, #256	; 0x100
 80063f8:	6013      	str	r3, [r2, #0]
 80063fa:	f7fb fd9f 	bl	8001f3c <HAL_GetTick>
 80063fe:	60f8      	str	r0, [r7, #12]
 8006400:	e009      	b.n	8006416 <HAL_RCCEx_PeriphCLKConfig+0x72>
 8006402:	f7fb fd9b 	bl	8001f3c <HAL_GetTick>
 8006406:	4602      	mov	r2, r0
 8006408:	68fb      	ldr	r3, [r7, #12]
 800640a:	1ad3      	subs	r3, r2, r3
 800640c:	2b02      	cmp	r3, #2
 800640e:	d902      	bls.n	8006416 <HAL_RCCEx_PeriphCLKConfig+0x72>
 8006410:	2303      	movs	r3, #3
 8006412:	74fb      	strb	r3, [r7, #19]
 8006414:	e005      	b.n	8006422 <HAL_RCCEx_PeriphCLKConfig+0x7e>
 8006416:	4b30      	ldr	r3, [pc, #192]	; (80064d8 <HAL_RCCEx_PeriphCLKConfig+0x134>)
 8006418:	681b      	ldr	r3, [r3, #0]
 800641a:	f403 7380 	and.w	r3, r3, #256	; 0x100
 800641e:	2b00      	cmp	r3, #0
 8006420:	d0ef      	beq.n	8006402 <HAL_RCCEx_PeriphCLKConfig+0x5e>
 8006422:	7cfb      	ldrb	r3, [r7, #19]
 8006424:	2b00      	cmp	r3, #0
 8006426:	d159      	bne.n	80064dc <HAL_RCCEx_PeriphCLKConfig+0x138>
 8006428:	4b2a      	ldr	r3, [pc, #168]	; (80064d4 <HAL_RCCEx_PeriphCLKConfig+0x130>)
 800642a:	f8d3 3090 	ldr.w	r3, [r3, #144]	; 0x90
 800642e:	f403 7340 	and.w	r3, r3, #768	; 0x300
 8006432:	617b      	str	r3, [r7, #20]
 8006434:	697b      	ldr	r3, [r7, #20]
 8006436:	2b00      	cmp	r3, #0
 8006438:	d01e      	beq.n	8006478 <HAL_RCCEx_PeriphCLKConfig+0xd4>
 800643a:	687b      	ldr	r3, [r7, #4]
 800643c:	6c1b      	ldr	r3, [r3, #64]	; 0x40
 800643e:	697a      	ldr	r2, [r7, #20]
 8006440:	429a      	cmp	r2, r3
 8006442:	d019      	beq.n	8006478 <HAL_RCCEx_PeriphCLKConfig+0xd4>
 8006444:	4b23      	ldr	r3, [pc, #140]	; (80064d4 <HAL_RCCEx_PeriphCLKConfig+0x130>)
 8006446:	f8d3 3090 	ldr.w	r3, [r3, #144]	; 0x90
 800644a:	f423 7340 	bic.w	r3, r3, #768	; 0x300
 800644e:	617b      	str	r3, [r7, #20]
 8006450:	4b20      	ldr	r3, [pc, #128]	; (80064d4 <HAL_RCCEx_PeriphCLKConfig+0x130>)
 8006452:	f8d3 3090 	ldr.w	r3, [r3, #144]	; 0x90
 8006456:	4a1f      	ldr	r2, [pc, #124]	; (80064d4 <HAL_RCCEx_PeriphCLKConfig+0x130>)
 8006458:	f443 3380 	orr.w	r3, r3, #65536	; 0x10000
 800645c:	f8c2 3090 	str.w	r3, [r2, #144]	; 0x90
 8006460:	4b1c      	ldr	r3, [pc, #112]	; (80064d4 <HAL_RCCEx_PeriphCLKConfig+0x130>)
 8006462:	f8d3 3090 	ldr.w	r3, [r3, #144]	; 0x90
 8006466:	4a1b      	ldr	r2, [pc, #108]	; (80064d4 <HAL_RCCEx_PeriphCLKConfig+0x130>)
 8006468:	f423 3380 	bic.w	r3, r3, #65536	; 0x10000
 800646c:	f8c2 3090 	str.w	r3, [r2, #144]	; 0x90
 8006470:	4a18      	ldr	r2, [pc, #96]	; (80064d4 <HAL_RCCEx_PeriphCLKConfig+0x130>)
 8006472:	697b      	ldr	r3, [r7, #20]
 8006474:	f8c2 3090 	str.w	r3, [r2, #144]	; 0x90
 8006478:	697b      	ldr	r3, [r7, #20]
 800647a:	f003 0301 	and.w	r3, r3, #1
 800647e:	2b00      	cmp	r3, #0
 8006480:	d016      	beq.n	80064b0 <HAL_RCCEx_PeriphCLKConfig+0x10c>
 8006482:	f7fb fd5b 	bl	8001f3c <HAL_GetTick>
 8006486:	60f8      	str	r0, [r7, #12]
 8006488:	e00b      	b.n	80064a2 <HAL_RCCEx_PeriphCLKConfig+0xfe>
 800648a:	f7fb fd57 	bl	8001f3c <HAL_GetTick>
 800648e:	4602      	mov	r2, r0
 8006490:	68fb      	ldr	r3, [r7, #12]
 8006492:	1ad3      	subs	r3, r2, r3
 8006494:	f241 3288 	movw	r2, #5000	; 0x1388
 8006498:	4293      	cmp	r3, r2
 800649a:	d902      	bls.n	80064a2 <HAL_RCCEx_PeriphCLKConfig+0xfe>
 800649c:	2303      	movs	r3, #3
 800649e:	74fb      	strb	r3, [r7, #19]
 80064a0:	e006      	b.n	80064b0 <HAL_RCCEx_PeriphCLKConfig+0x10c>
 80064a2:	4b0c      	ldr	r3, [pc, #48]	; (80064d4 <HAL_RCCEx_PeriphCLKConfig+0x130>)
 80064a4:	f8d3 3090 	ldr.w	r3, [r3, #144]	; 0x90
 80064a8:	f003 0302 	and.w	r3, r3, #2
 80064ac:	2b00      	cmp	r3, #0
 80064ae:	d0ec      	beq.n	800648a <HAL_RCCEx_PeriphCLKConfig+0xe6>
 80064b0:	7cfb      	ldrb	r3, [r7, #19]
 80064b2:	2b00      	cmp	r3, #0
 80064b4:	d10b      	bne.n	80064ce <HAL_RCCEx_PeriphCLKConfig+0x12a>
 80064b6:	4b07      	ldr	r3, [pc, #28]	; (80064d4 <HAL_RCCEx_PeriphCLKConfig+0x130>)
 80064b8:	f8d3 3090 	ldr.w	r3, [r3, #144]	; 0x90
 80064bc:	f423 7240 	bic.w	r2, r3, #768	; 0x300
 80064c0:	687b      	ldr	r3, [r7, #4]
 80064c2:	6c1b      	ldr	r3, [r3, #64]	; 0x40
 80064c4:	4903      	ldr	r1, [pc, #12]	; (80064d4 <HAL_RCCEx_PeriphCLKConfig+0x130>)
 80064c6:	4313      	orrs	r3, r2
 80064c8:	f8c1 3090 	str.w	r3, [r1, #144]	; 0x90
 80064cc:	e008      	b.n	80064e0 <HAL_RCCEx_PeriphCLKConfig+0x13c>
 80064ce:	7cfb      	ldrb	r3, [r7, #19]
 80064d0:	74bb      	strb	r3, [r7, #18]
 80064d2:	e005      	b.n	80064e0 <HAL_RCCEx_PeriphCLKConfig+0x13c>
 80064d4:	40021000 	.word	0x40021000
 80064d8:	40007000 	.word	0x40007000
 80064dc:	7cfb      	ldrb	r3, [r7, #19]
 80064de:	74bb      	strb	r3, [r7, #18]
 80064e0:	7c7b      	ldrb	r3, [r7, #17]
 80064e2:	2b01      	cmp	r3, #1
 80064e4:	d105      	bne.n	80064f2 <HAL_RCCEx_PeriphCLKConfig+0x14e>
 80064e6:	4ba6      	ldr	r3, [pc, #664]	; (8006780 <HAL_RCCEx_PeriphCLKConfig+0x3dc>)
 80064e8:	6d9b      	ldr	r3, [r3, #88]	; 0x58
 80064ea:	4aa5      	ldr	r2, [pc, #660]	; (8006780 <HAL_RCCEx_PeriphCLKConfig+0x3dc>)
 80064ec:	f023 5380 	bic.w	r3, r3, #268435456	; 0x10000000
 80064f0:	6593      	str	r3, [r2, #88]	; 0x58
 80064f2:	687b      	ldr	r3, [r7, #4]
 80064f4:	681b      	ldr	r3, [r3, #0]
 80064f6:	f003 0301 	and.w	r3, r3, #1
 80064fa:	2b00      	cmp	r3, #0
 80064fc:	d00a      	beq.n	8006514 <HAL_RCCEx_PeriphCLKConfig+0x170>
 80064fe:	4ba0      	ldr	r3, [pc, #640]	; (8006780 <HAL_RCCEx_PeriphCLKConfig+0x3dc>)
 8006500:	f8d3 3088 	ldr.w	r3, [r3, #136]	; 0x88
 8006504:	f023 0203 	bic.w	r2, r3, #3
 8006508:	687b      	ldr	r3, [r7, #4]
 800650a:	685b      	ldr	r3, [r3, #4]
 800650c:	499c      	ldr	r1, [pc, #624]	; (8006780 <HAL_RCCEx_PeriphCLKConfig+0x3dc>)
 800650e:	4313      	orrs	r3, r2
 8006510:	f8c1 3088 	str.w	r3, [r1, #136]	; 0x88
 8006514:	687b      	ldr	r3, [r7, #4]
 8006516:	681b      	ldr	r3, [r3, #0]
 8006518:	f003 0302 	and.w	r3, r3, #2
 800651c:	2b00      	cmp	r3, #0
 800651e:	d00a      	beq.n	8006536 <HAL_RCCEx_PeriphCLKConfig+0x192>
 8006520:	4b97      	ldr	r3, [pc, #604]	; (8006780 <HAL_RCCEx_PeriphCLKConfig+0x3dc>)
 8006522:	f8d3 3088 	ldr.w	r3, [r3, #136]	; 0x88
 8006526:	f023 020c 	bic.w	r2, r3, #12
 800652a:	687b      	ldr	r3, [r7, #4]
 800652c:	689b      	ldr	r3, [r3, #8]
 800652e:	4994      	ldr	r1, [pc, #592]	; (8006780 <HAL_RCCEx_PeriphCLKConfig+0x3dc>)
 8006530:	4313      	orrs	r3, r2
 8006532:	f8c1 3088 	str.w	r3, [r1, #136]	; 0x88
 8006536:	687b      	ldr	r3, [r7, #4]
 8006538:	681b      	ldr	r3, [r3, #0]
 800653a:	f003 0304 	and.w	r3, r3, #4
 800653e:	2b00      	cmp	r3, #0
 8006540:	d00a      	beq.n	8006558 <HAL_RCCEx_PeriphCLKConfig+0x1b4>
 8006542:	4b8f      	ldr	r3, [pc, #572]	; (8006780 <HAL_RCCEx_PeriphCLKConfig+0x3dc>)
 8006544:	f8d3 3088 	ldr.w	r3, [r3, #136]	; 0x88
 8006548:	f023 0230 	bic.w	r2, r3, #48	; 0x30
 800654c:	687b      	ldr	r3, [r7, #4]
 800654e:	68db      	ldr	r3, [r3, #12]
 8006550:	498b      	ldr	r1, [pc, #556]	; (8006780 <HAL_RCCEx_PeriphCLKConfig+0x3dc>)
 8006552:	4313      	orrs	r3, r2
 8006554:	f8c1 3088 	str.w	r3, [r1, #136]	; 0x88
 8006558:	687b      	ldr	r3, [r7, #4]
 800655a:	681b      	ldr	r3, [r3, #0]
 800655c:	f003 0308 	and.w	r3, r3, #8
 8006560:	2b00      	cmp	r3, #0
 8006562:	d00a      	beq.n	800657a <HAL_RCCEx_PeriphCLKConfig+0x1d6>
 8006564:	4b86      	ldr	r3, [pc, #536]	; (8006780 <HAL_RCCEx_PeriphCLKConfig+0x3dc>)
 8006566:	f8d3 3088 	ldr.w	r3, [r3, #136]	; 0x88
 800656a:	f023 02c0 	bic.w	r2, r3, #192	; 0xc0
 800656e:	687b      	ldr	r3, [r7, #4]
 8006570:	691b      	ldr	r3, [r3, #16]
 8006572:	4983      	ldr	r1, [pc, #524]	; (8006780 <HAL_RCCEx_PeriphCLKConfig+0x3dc>)
 8006574:	4313      	orrs	r3, r2
 8006576:	f8c1 3088 	str.w	r3, [r1, #136]	; 0x88
 800657a:	687b      	ldr	r3, [r7, #4]
 800657c:	681b      	ldr	r3, [r3, #0]
 800657e:	f003 0320 	and.w	r3, r3, #32
 8006582:	2b00      	cmp	r3, #0
 8006584:	d00a      	beq.n	800659c <HAL_RCCEx_PeriphCLKConfig+0x1f8>
 8006586:	4b7e      	ldr	r3, [pc, #504]	; (8006780 <HAL_RCCEx_PeriphCLKConfig+0x3dc>)
 8006588:	f8d3 3088 	ldr.w	r3, [r3, #136]	; 0x88
 800658c:	f423 6240 	bic.w	r2, r3, #3072	; 0xc00
 8006590:	687b      	ldr	r3, [r7, #4]
 8006592:	695b      	ldr	r3, [r3, #20]
 8006594:	497a      	ldr	r1, [pc, #488]	; (8006780 <HAL_RCCEx_PeriphCLKConfig+0x3dc>)
 8006596:	4313      	orrs	r3, r2
 8006598:	f8c1 3088 	str.w	r3, [r1, #136]	; 0x88
 800659c:	687b      	ldr	r3, [r7, #4]
 800659e:	681b      	ldr	r3, [r3, #0]
 80065a0:	f003 0340 	and.w	r3, r3, #64	; 0x40
 80065a4:	2b00      	cmp	r3, #0
 80065a6:	d00a      	beq.n	80065be <HAL_RCCEx_PeriphCLKConfig+0x21a>
 80065a8:	4b75      	ldr	r3, [pc, #468]	; (8006780 <HAL_RCCEx_PeriphCLKConfig+0x3dc>)
 80065aa:	f8d3 3088 	ldr.w	r3, [r3, #136]	; 0x88
 80065ae:	f423 5240 	bic.w	r2, r3, #12288	; 0x3000
 80065b2:	687b      	ldr	r3, [r7, #4]
 80065b4:	699b      	ldr	r3, [r3, #24]
 80065b6:	4972      	ldr	r1, [pc, #456]	; (8006780 <HAL_RCCEx_PeriphCLKConfig+0x3dc>)
 80065b8:	4313      	orrs	r3, r2
 80065ba:	f8c1 3088 	str.w	r3, [r1, #136]	; 0x88
 80065be:	687b      	ldr	r3, [r7, #4]
 80065c0:	681b      	ldr	r3, [r3, #0]
 80065c2:	f003 0380 	and.w	r3, r3, #128	; 0x80
 80065c6:	2b00      	cmp	r3, #0
 80065c8:	d00a      	beq.n	80065e0 <HAL_RCCEx_PeriphCLKConfig+0x23c>
 80065ca:	4b6d      	ldr	r3, [pc, #436]	; (8006780 <HAL_RCCEx_PeriphCLKConfig+0x3dc>)
 80065cc:	f8d3 3088 	ldr.w	r3, [r3, #136]	; 0x88
 80065d0:	f423 4240 	bic.w	r2, r3, #49152	; 0xc000
 80065d4:	687b      	ldr	r3, [r7, #4]
 80065d6:	69db      	ldr	r3, [r3, #28]
 80065d8:	4969      	ldr	r1, [pc, #420]	; (8006780 <HAL_RCCEx_PeriphCLKConfig+0x3dc>)
 80065da:	4313      	orrs	r3, r2
 80065dc:	f8c1 3088 	str.w	r3, [r1, #136]	; 0x88
 80065e0:	687b      	ldr	r3, [r7, #4]
 80065e2:	681b      	ldr	r3, [r3, #0]
 80065e4:	f403 7380 	and.w	r3, r3, #256	; 0x100
 80065e8:	2b00      	cmp	r3, #0
 80065ea:	d00a      	beq.n	8006602 <HAL_RCCEx_PeriphCLKConfig+0x25e>
 80065ec:	4b64      	ldr	r3, [pc, #400]	; (8006780 <HAL_RCCEx_PeriphCLKConfig+0x3dc>)
 80065ee:	f8d3 3088 	ldr.w	r3, [r3, #136]	; 0x88
 80065f2:	f423 3240 	bic.w	r2, r3, #196608	; 0x30000
 80065f6:	687b      	ldr	r3, [r7, #4]
 80065f8:	6a1b      	ldr	r3, [r3, #32]
 80065fa:	4961      	ldr	r1, [pc, #388]	; (8006780 <HAL_RCCEx_PeriphCLKConfig+0x3dc>)
 80065fc:	4313      	orrs	r3, r2
 80065fe:	f8c1 3088 	str.w	r3, [r1, #136]	; 0x88
 8006602:	687b      	ldr	r3, [r7, #4]
 8006604:	681b      	ldr	r3, [r3, #0]
 8006606:	f403 7300 	and.w	r3, r3, #512	; 0x200
 800660a:	2b00      	cmp	r3, #0
 800660c:	d00a      	beq.n	8006624 <HAL_RCCEx_PeriphCLKConfig+0x280>
 800660e:	4b5c      	ldr	r3, [pc, #368]	; (8006780 <HAL_RCCEx_PeriphCLKConfig+0x3dc>)
 8006610:	f8d3 3088 	ldr.w	r3, [r3, #136]	; 0x88
 8006614:	f423 2240 	bic.w	r2, r3, #786432	; 0xc0000
 8006618:	687b      	ldr	r3, [r7, #4]
 800661a:	6a5b      	ldr	r3, [r3, #36]	; 0x24
 800661c:	4958      	ldr	r1, [pc, #352]	; (8006780 <HAL_RCCEx_PeriphCLKConfig+0x3dc>)
 800661e:	4313      	orrs	r3, r2
 8006620:	f8c1 3088 	str.w	r3, [r1, #136]	; 0x88
 8006624:	687b      	ldr	r3, [r7, #4]
 8006626:	681b      	ldr	r3, [r3, #0]
 8006628:	f403 6380 	and.w	r3, r3, #1024	; 0x400
 800662c:	2b00      	cmp	r3, #0
 800662e:	d015      	beq.n	800665c <HAL_RCCEx_PeriphCLKConfig+0x2b8>
 8006630:	4b53      	ldr	r3, [pc, #332]	; (8006780 <HAL_RCCEx_PeriphCLKConfig+0x3dc>)
 8006632:	f8d3 3088 	ldr.w	r3, [r3, #136]	; 0x88
 8006636:	f423 1240 	bic.w	r2, r3, #3145728	; 0x300000
 800663a:	687b      	ldr	r3, [r7, #4]
 800663c:	6a9b      	ldr	r3, [r3, #40]	; 0x28
 800663e:	4950      	ldr	r1, [pc, #320]	; (8006780 <HAL_RCCEx_PeriphCLKConfig+0x3dc>)
 8006640:	4313      	orrs	r3, r2
 8006642:	f8c1 3088 	str.w	r3, [r1, #136]	; 0x88
 8006646:	687b      	ldr	r3, [r7, #4]
 8006648:	6a9b      	ldr	r3, [r3, #40]	; 0x28
 800664a:	f5b3 1f80 	cmp.w	r3, #1048576	; 0x100000
 800664e:	d105      	bne.n	800665c <HAL_RCCEx_PeriphCLKConfig+0x2b8>
 8006650:	4b4b      	ldr	r3, [pc, #300]	; (8006780 <HAL_RCCEx_PeriphCLKConfig+0x3dc>)
 8006652:	68db      	ldr	r3, [r3, #12]
 8006654:	4a4a      	ldr	r2, [pc, #296]	; (8006780 <HAL_RCCEx_PeriphCLKConfig+0x3dc>)
 8006656:	f443 1380 	orr.w	r3, r3, #1048576	; 0x100000
 800665a:	60d3      	str	r3, [r2, #12]
 800665c:	687b      	ldr	r3, [r7, #4]
 800665e:	681b      	ldr	r3, [r3, #0]
 8006660:	f403 6300 	and.w	r3, r3, #2048	; 0x800
 8006664:	2b00      	cmp	r3, #0
 8006666:	d015      	beq.n	8006694 <HAL_RCCEx_PeriphCLKConfig+0x2f0>
 8006668:	4b45      	ldr	r3, [pc, #276]	; (8006780 <HAL_RCCEx_PeriphCLKConfig+0x3dc>)
 800666a:	f8d3 3088 	ldr.w	r3, [r3, #136]	; 0x88
 800666e:	f423 0240 	bic.w	r2, r3, #12582912	; 0xc00000
 8006672:	687b      	ldr	r3, [r7, #4]
 8006674:	6adb      	ldr	r3, [r3, #44]	; 0x2c
 8006676:	4942      	ldr	r1, [pc, #264]	; (8006780 <HAL_RCCEx_PeriphCLKConfig+0x3dc>)
 8006678:	4313      	orrs	r3, r2
 800667a:	f8c1 3088 	str.w	r3, [r1, #136]	; 0x88
 800667e:	687b      	ldr	r3, [r7, #4]
 8006680:	6adb      	ldr	r3, [r3, #44]	; 0x2c
 8006682:	f5b3 0f80 	cmp.w	r3, #4194304	; 0x400000
 8006686:	d105      	bne.n	8006694 <HAL_RCCEx_PeriphCLKConfig+0x2f0>
 8006688:	4b3d      	ldr	r3, [pc, #244]	; (8006780 <HAL_RCCEx_PeriphCLKConfig+0x3dc>)
 800668a:	68db      	ldr	r3, [r3, #12]
 800668c:	4a3c      	ldr	r2, [pc, #240]	; (8006780 <HAL_RCCEx_PeriphCLKConfig+0x3dc>)
 800668e:	f443 1380 	orr.w	r3, r3, #1048576	; 0x100000
 8006692:	60d3      	str	r3, [r2, #12]
 8006694:	687b      	ldr	r3, [r7, #4]
 8006696:	681b      	ldr	r3, [r3, #0]
 8006698:	f403 5380 	and.w	r3, r3, #4096	; 0x1000
 800669c:	2b00      	cmp	r3, #0
 800669e:	d015      	beq.n	80066cc <HAL_RCCEx_PeriphCLKConfig+0x328>
 80066a0:	4b37      	ldr	r3, [pc, #220]	; (8006780 <HAL_RCCEx_PeriphCLKConfig+0x3dc>)
 80066a2:	f8d3 3088 	ldr.w	r3, [r3, #136]	; 0x88
 80066a6:	f023 7240 	bic.w	r2, r3, #50331648	; 0x3000000
 80066aa:	687b      	ldr	r3, [r7, #4]
 80066ac:	6b1b      	ldr	r3, [r3, #48]	; 0x30
 80066ae:	4934      	ldr	r1, [pc, #208]	; (8006780 <HAL_RCCEx_PeriphCLKConfig+0x3dc>)
 80066b0:	4313      	orrs	r3, r2
 80066b2:	f8c1 3088 	str.w	r3, [r1, #136]	; 0x88
 80066b6:	687b      	ldr	r3, [r7, #4]
 80066b8:	6b1b      	ldr	r3, [r3, #48]	; 0x30
 80066ba:	f1b3 7f80 	cmp.w	r3, #16777216	; 0x1000000
 80066be:	d105      	bne.n	80066cc <HAL_RCCEx_PeriphCLKConfig+0x328>
 80066c0:	4b2f      	ldr	r3, [pc, #188]	; (8006780 <HAL_RCCEx_PeriphCLKConfig+0x3dc>)
 80066c2:	68db      	ldr	r3, [r3, #12]
 80066c4:	4a2e      	ldr	r2, [pc, #184]	; (8006780 <HAL_RCCEx_PeriphCLKConfig+0x3dc>)
 80066c6:	f443 1380 	orr.w	r3, r3, #1048576	; 0x100000
 80066ca:	60d3      	str	r3, [r2, #12]
 80066cc:	687b      	ldr	r3, [r7, #4]
 80066ce:	681b      	ldr	r3, [r3, #0]
 80066d0:	f403 5300 	and.w	r3, r3, #8192	; 0x2000
 80066d4:	2b00      	cmp	r3, #0
 80066d6:	d015      	beq.n	8006704 <HAL_RCCEx_PeriphCLKConfig+0x360>
 80066d8:	4b29      	ldr	r3, [pc, #164]	; (8006780 <HAL_RCCEx_PeriphCLKConfig+0x3dc>)
 80066da:	f8d3 3088 	ldr.w	r3, [r3, #136]	; 0x88
 80066de:	f023 6240 	bic.w	r2, r3, #201326592	; 0xc000000
 80066e2:	687b      	ldr	r3, [r7, #4]
 80066e4:	6b5b      	ldr	r3, [r3, #52]	; 0x34
 80066e6:	4926      	ldr	r1, [pc, #152]	; (8006780 <HAL_RCCEx_PeriphCLKConfig+0x3dc>)
 80066e8:	4313      	orrs	r3, r2
 80066ea:	f8c1 3088 	str.w	r3, [r1, #136]	; 0x88
 80066ee:	687b      	ldr	r3, [r7, #4]
 80066f0:	6b5b      	ldr	r3, [r3, #52]	; 0x34
 80066f2:	f1b3 6f00 	cmp.w	r3, #134217728	; 0x8000000
 80066f6:	d105      	bne.n	8006704 <HAL_RCCEx_PeriphCLKConfig+0x360>
 80066f8:	4b21      	ldr	r3, [pc, #132]	; (8006780 <HAL_RCCEx_PeriphCLKConfig+0x3dc>)
 80066fa:	68db      	ldr	r3, [r3, #12]
 80066fc:	4a20      	ldr	r2, [pc, #128]	; (8006780 <HAL_RCCEx_PeriphCLKConfig+0x3dc>)
 80066fe:	f443 1380 	orr.w	r3, r3, #1048576	; 0x100000
 8006702:	60d3      	str	r3, [r2, #12]
 8006704:	687b      	ldr	r3, [r7, #4]
 8006706:	681b      	ldr	r3, [r3, #0]
 8006708:	f403 4380 	and.w	r3, r3, #16384	; 0x4000
 800670c:	2b00      	cmp	r3, #0
 800670e:	d015      	beq.n	800673c <HAL_RCCEx_PeriphCLKConfig+0x398>
 8006710:	4b1b      	ldr	r3, [pc, #108]	; (8006780 <HAL_RCCEx_PeriphCLKConfig+0x3dc>)
 8006712:	f8d3 3088 	ldr.w	r3, [r3, #136]	; 0x88
 8006716:	f023 6240 	bic.w	r2, r3, #201326592	; 0xc000000
 800671a:	687b      	ldr	r3, [r7, #4]
 800671c:	6b9b      	ldr	r3, [r3, #56]	; 0x38
 800671e:	4918      	ldr	r1, [pc, #96]	; (8006780 <HAL_RCCEx_PeriphCLKConfig+0x3dc>)
 8006720:	4313      	orrs	r3, r2
 8006722:	f8c1 3088 	str.w	r3, [r1, #136]	; 0x88
 8006726:	687b      	ldr	r3, [r7, #4]
 8006728:	6b9b      	ldr	r3, [r3, #56]	; 0x38
 800672a:	f1b3 6f00 	cmp.w	r3, #134217728	; 0x8000000
 800672e:	d105      	bne.n	800673c <HAL_RCCEx_PeriphCLKConfig+0x398>
 8006730:	4b13      	ldr	r3, [pc, #76]	; (8006780 <HAL_RCCEx_PeriphCLKConfig+0x3dc>)
 8006732:	68db      	ldr	r3, [r3, #12]
 8006734:	4a12      	ldr	r2, [pc, #72]	; (8006780 <HAL_RCCEx_PeriphCLKConfig+0x3dc>)
 8006736:	f443 1380 	orr.w	r3, r3, #1048576	; 0x100000
 800673a:	60d3      	str	r3, [r2, #12]
 800673c:	687b      	ldr	r3, [r7, #4]
 800673e:	681b      	ldr	r3, [r3, #0]
 8006740:	f403 4300 	and.w	r3, r3, #32768	; 0x8000
 8006744:	2b00      	cmp	r3, #0
 8006746:	d015      	beq.n	8006774 <HAL_RCCEx_PeriphCLKConfig+0x3d0>
 8006748:	4b0d      	ldr	r3, [pc, #52]	; (8006780 <HAL_RCCEx_PeriphCLKConfig+0x3dc>)
 800674a:	f8d3 3088 	ldr.w	r3, [r3, #136]	; 0x88
 800674e:	f023 5240 	bic.w	r2, r3, #805306368	; 0x30000000
 8006752:	687b      	ldr	r3, [r7, #4]
 8006754:	6bdb      	ldr	r3, [r3, #60]	; 0x3c
 8006756:	490a      	ldr	r1, [pc, #40]	; (8006780 <HAL_RCCEx_PeriphCLKConfig+0x3dc>)
 8006758:	4313      	orrs	r3, r2
 800675a:	f8c1 3088 	str.w	r3, [r1, #136]	; 0x88
 800675e:	687b      	ldr	r3, [r7, #4]
 8006760:	6bdb      	ldr	r3, [r3, #60]	; 0x3c
 8006762:	f1b3 5f80 	cmp.w	r3, #268435456	; 0x10000000
 8006766:	d105      	bne.n	8006774 <HAL_RCCEx_PeriphCLKConfig+0x3d0>
 8006768:	4b05      	ldr	r3, [pc, #20]	; (8006780 <HAL_RCCEx_PeriphCLKConfig+0x3dc>)
 800676a:	68db      	ldr	r3, [r3, #12]
 800676c:	4a04      	ldr	r2, [pc, #16]	; (8006780 <HAL_RCCEx_PeriphCLKConfig+0x3dc>)
 800676e:	f443 3380 	orr.w	r3, r3, #65536	; 0x10000
 8006772:	60d3      	str	r3, [r2, #12]
 8006774:	7cbb      	ldrb	r3, [r7, #18]
 8006776:	4618      	mov	r0, r3
 8006778:	3718      	adds	r7, #24
 800677a:	46bd      	mov	sp, r7
 800677c:	bd80      	pop	{r7, pc}
 800677e:	bf00      	nop
 8006780:	40021000 	.word	0x40021000

08006784 <HAL_TIM_Base_Init>:
 8006784:	b580      	push	{r7, lr}
 8006786:	b082      	sub	sp, #8
 8006788:	af00      	add	r7, sp, #0
 800678a:	6078      	str	r0, [r7, #4]
 800678c:	687b      	ldr	r3, [r7, #4]
 800678e:	2b00      	cmp	r3, #0
 8006790:	d101      	bne.n	8006796 <HAL_TIM_Base_Init+0x12>
 8006792:	2301      	movs	r3, #1
 8006794:	e049      	b.n	800682a <HAL_TIM_Base_Init+0xa6>
 8006796:	687b      	ldr	r3, [r7, #4]
 8006798:	f893 303d 	ldrb.w	r3, [r3, #61]	; 0x3d
 800679c:	b2db      	uxtb	r3, r3
 800679e:	2b00      	cmp	r3, #0
 80067a0:	d106      	bne.n	80067b0 <HAL_TIM_Base_Init+0x2c>
 80067a2:	687b      	ldr	r3, [r7, #4]
 80067a4:	2200      	movs	r2, #0
 80067a6:	f883 203c 	strb.w	r2, [r3, #60]	; 0x3c
 80067aa:	6878      	ldr	r0, [r7, #4]
 80067ac:	f7fb fa24 	bl	8001bf8 <HAL_TIM_Base_MspInit>
 80067b0:	687b      	ldr	r3, [r7, #4]
 80067b2:	2202      	movs	r2, #2
 80067b4:	f883 203d 	strb.w	r2, [r3, #61]	; 0x3d
 80067b8:	687b      	ldr	r3, [r7, #4]
 80067ba:	681a      	ldr	r2, [r3, #0]
 80067bc:	687b      	ldr	r3, [r7, #4]
 80067be:	3304      	adds	r3, #4
 80067c0:	4619      	mov	r1, r3
 80067c2:	4610      	mov	r0, r2
 80067c4:	f000 fdfc 	bl	80073c0 <TIM_Base_SetConfig>
 80067c8:	687b      	ldr	r3, [r7, #4]
 80067ca:	2201      	movs	r2, #1
 80067cc:	f883 2048 	strb.w	r2, [r3, #72]	; 0x48
 80067d0:	687b      	ldr	r3, [r7, #4]
 80067d2:	2201      	movs	r2, #1
 80067d4:	f883 203e 	strb.w	r2, [r3, #62]	; 0x3e
 80067d8:	687b      	ldr	r3, [r7, #4]
 80067da:	2201      	movs	r2, #1
 80067dc:	f883 203f 	strb.w	r2, [r3, #63]	; 0x3f
 80067e0:	687b      	ldr	r3, [r7, #4]
 80067e2:	2201      	movs	r2, #1
 80067e4:	f883 2040 	strb.w	r2, [r3, #64]	; 0x40
 80067e8:	687b      	ldr	r3, [r7, #4]
 80067ea:	2201      	movs	r2, #1
 80067ec:	f883 2041 	strb.w	r2, [r3, #65]	; 0x41
 80067f0:	687b      	ldr	r3, [r7, #4]
 80067f2:	2201      	movs	r2, #1
 80067f4:	f883 2042 	strb.w	r2, [r3, #66]	; 0x42
 80067f8:	687b      	ldr	r3, [r7, #4]
 80067fa:	2201      	movs	r2, #1
 80067fc:	f883 2043 	strb.w	r2, [r3, #67]	; 0x43
 8006800:	687b      	ldr	r3, [r7, #4]
 8006802:	2201      	movs	r2, #1
 8006804:	f883 2044 	strb.w	r2, [r3, #68]	; 0x44
 8006808:	687b      	ldr	r3, [r7, #4]
 800680a:	2201      	movs	r2, #1
 800680c:	f883 2045 	strb.w	r2, [r3, #69]	; 0x45
 8006810:	687b      	ldr	r3, [r7, #4]
 8006812:	2201      	movs	r2, #1
 8006814:	f883 2046 	strb.w	r2, [r3, #70]	; 0x46
 8006818:	687b      	ldr	r3, [r7, #4]
 800681a:	2201      	movs	r2, #1
 800681c:	f883 2047 	strb.w	r2, [r3, #71]	; 0x47
 8006820:	687b      	ldr	r3, [r7, #4]
 8006822:	2201      	movs	r2, #1
 8006824:	f883 203d 	strb.w	r2, [r3, #61]	; 0x3d
 8006828:	2300      	movs	r3, #0
 800682a:	4618      	mov	r0, r3
 800682c:	3708      	adds	r7, #8
 800682e:	46bd      	mov	sp, r7
 8006830:	bd80      	pop	{r7, pc}

08006832 <HAL_TIM_PWM_Init>:
 8006832:	b580      	push	{r7, lr}
 8006834:	b082      	sub	sp, #8
 8006836:	af00      	add	r7, sp, #0
 8006838:	6078      	str	r0, [r7, #4]
 800683a:	687b      	ldr	r3, [r7, #4]
 800683c:	2b00      	cmp	r3, #0
 800683e:	d101      	bne.n	8006844 <HAL_TIM_PWM_Init+0x12>
 8006840:	2301      	movs	r3, #1
 8006842:	e049      	b.n	80068d8 <HAL_TIM_PWM_Init+0xa6>
 8006844:	687b      	ldr	r3, [r7, #4]
 8006846:	f893 303d 	ldrb.w	r3, [r3, #61]	; 0x3d
 800684a:	b2db      	uxtb	r3, r3
 800684c:	2b00      	cmp	r3, #0
 800684e:	d106      	bne.n	800685e <HAL_TIM_PWM_Init+0x2c>
 8006850:	687b      	ldr	r3, [r7, #4]
 8006852:	2200      	movs	r2, #0
 8006854:	f883 203c 	strb.w	r2, [r3, #60]	; 0x3c
 8006858:	6878      	ldr	r0, [r7, #4]
 800685a:	f000 f841 	bl	80068e0 <HAL_TIM_PWM_MspInit>
 800685e:	687b      	ldr	r3, [r7, #4]
 8006860:	2202      	movs	r2, #2
 8006862:	f883 203d 	strb.w	r2, [r3, #61]	; 0x3d
 8006866:	687b      	ldr	r3, [r7, #4]
 8006868:	681a      	ldr	r2, [r3, #0]
 800686a:	687b      	ldr	r3, [r7, #4]
 800686c:	3304      	adds	r3, #4
 800686e:	4619      	mov	r1, r3
 8006870:	4610      	mov	r0, r2
 8006872:	f000 fda5 	bl	80073c0 <TIM_Base_SetConfig>
 8006876:	687b      	ldr	r3, [r7, #4]
 8006878:	2201      	movs	r2, #1
 800687a:	f883 2048 	strb.w	r2, [r3, #72]	; 0x48
 800687e:	687b      	ldr	r3, [r7, #4]
 8006880:	2201      	movs	r2, #1
 8006882:	f883 203e 	strb.w	r2, [r3, #62]	; 0x3e
 8006886:	687b      	ldr	r3, [r7, #4]
 8006888:	2201      	movs	r2, #1
 800688a:	f883 203f 	strb.w	r2, [r3, #63]	; 0x3f
 800688e:	687b      	ldr	r3, [r7, #4]
 8006890:	2201      	movs	r2, #1
 8006892:	f883 2040 	strb.w	r2, [r3, #64]	; 0x40
 8006896:	687b      	ldr	r3, [r7, #4]
 8006898:	2201      	movs	r2, #1
 800689a:	f883 2041 	strb.w	r2, [r3, #65]	; 0x41
 800689e:	687b      	ldr	r3, [r7, #4]
 80068a0:	2201      	movs	r2, #1
 80068a2:	f883 2042 	strb.w	r2, [r3, #66]	; 0x42
 80068a6:	687b      	ldr	r3, [r7, #4]
 80068a8:	2201      	movs	r2, #1
 80068aa:	f883 2043 	strb.w	r2, [r3, #67]	; 0x43
 80068ae:	687b      	ldr	r3, [r7, #4]
 80068b0:	2201      	movs	r2, #1
 80068b2:	f883 2044 	strb.w	r2, [r3, #68]	; 0x44
 80068b6:	687b      	ldr	r3, [r7, #4]
 80068b8:	2201      	movs	r2, #1
 80068ba:	f883 2045 	strb.w	r2, [r3, #69]	; 0x45
 80068be:	687b      	ldr	r3, [r7, #4]
 80068c0:	2201      	movs	r2, #1
 80068c2:	f883 2046 	strb.w	r2, [r3, #70]	; 0x46
 80068c6:	687b      	ldr	r3, [r7, #4]
 80068c8:	2201      	movs	r2, #1
 80068ca:	f883 2047 	strb.w	r2, [r3, #71]	; 0x47
 80068ce:	687b      	ldr	r3, [r7, #4]
 80068d0:	2201      	movs	r2, #1
 80068d2:	f883 203d 	strb.w	r2, [r3, #61]	; 0x3d
 80068d6:	2300      	movs	r3, #0
 80068d8:	4618      	mov	r0, r3
 80068da:	3708      	adds	r7, #8
 80068dc:	46bd      	mov	sp, r7
 80068de:	bd80      	pop	{r7, pc}

080068e0 <HAL_TIM_PWM_MspInit>:
 80068e0:	b480      	push	{r7}
 80068e2:	b083      	sub	sp, #12
 80068e4:	af00      	add	r7, sp, #0
 80068e6:	6078      	str	r0, [r7, #4]
 80068e8:	bf00      	nop
 80068ea:	370c      	adds	r7, #12
 80068ec:	46bd      	mov	sp, r7
 80068ee:	f85d 7b04 	ldr.w	r7, [sp], #4
 80068f2:	4770      	bx	lr

080068f4 <HAL_TIM_PWM_Start_IT>:
 80068f4:	b580      	push	{r7, lr}
 80068f6:	b084      	sub	sp, #16
 80068f8:	af00      	add	r7, sp, #0
 80068fa:	6078      	str	r0, [r7, #4]
 80068fc:	6039      	str	r1, [r7, #0]
 80068fe:	2300      	movs	r3, #0
 8006900:	73fb      	strb	r3, [r7, #15]
 8006902:	683b      	ldr	r3, [r7, #0]
 8006904:	2b00      	cmp	r3, #0
 8006906:	d109      	bne.n	800691c <HAL_TIM_PWM_Start_IT+0x28>
 8006908:	687b      	ldr	r3, [r7, #4]
 800690a:	f893 303e 	ldrb.w	r3, [r3, #62]	; 0x3e
 800690e:	b2db      	uxtb	r3, r3
 8006910:	2b01      	cmp	r3, #1
 8006912:	bf14      	ite	ne
 8006914:	2301      	movne	r3, #1
 8006916:	2300      	moveq	r3, #0
 8006918:	b2db      	uxtb	r3, r3
 800691a:	e03c      	b.n	8006996 <HAL_TIM_PWM_Start_IT+0xa2>
 800691c:	683b      	ldr	r3, [r7, #0]
 800691e:	2b04      	cmp	r3, #4
 8006920:	d109      	bne.n	8006936 <HAL_TIM_PWM_Start_IT+0x42>
 8006922:	687b      	ldr	r3, [r7, #4]
 8006924:	f893 303f 	ldrb.w	r3, [r3, #63]	; 0x3f
 8006928:	b2db      	uxtb	r3, r3
 800692a:	2b01      	cmp	r3, #1
 800692c:	bf14      	ite	ne
 800692e:	2301      	movne	r3, #1
 8006930:	2300      	moveq	r3, #0
 8006932:	b2db      	uxtb	r3, r3
 8006934:	e02f      	b.n	8006996 <HAL_TIM_PWM_Start_IT+0xa2>
 8006936:	683b      	ldr	r3, [r7, #0]
 8006938:	2b08      	cmp	r3, #8
 800693a:	d109      	bne.n	8006950 <HAL_TIM_PWM_Start_IT+0x5c>
 800693c:	687b      	ldr	r3, [r7, #4]
 800693e:	f893 3040 	ldrb.w	r3, [r3, #64]	; 0x40
 8006942:	b2db      	uxtb	r3, r3
 8006944:	2b01      	cmp	r3, #1
 8006946:	bf14      	ite	ne
 8006948:	2301      	movne	r3, #1
 800694a:	2300      	moveq	r3, #0
 800694c:	b2db      	uxtb	r3, r3
 800694e:	e022      	b.n	8006996 <HAL_TIM_PWM_Start_IT+0xa2>
 8006950:	683b      	ldr	r3, [r7, #0]
 8006952:	2b0c      	cmp	r3, #12
 8006954:	d109      	bne.n	800696a <HAL_TIM_PWM_Start_IT+0x76>
 8006956:	687b      	ldr	r3, [r7, #4]
 8006958:	f893 3041 	ldrb.w	r3, [r3, #65]	; 0x41
 800695c:	b2db      	uxtb	r3, r3
 800695e:	2b01      	cmp	r3, #1
 8006960:	bf14      	ite	ne
 8006962:	2301      	movne	r3, #1
 8006964:	2300      	moveq	r3, #0
 8006966:	b2db      	uxtb	r3, r3
 8006968:	e015      	b.n	8006996 <HAL_TIM_PWM_Start_IT+0xa2>
 800696a:	683b      	ldr	r3, [r7, #0]
 800696c:	2b10      	cmp	r3, #16
 800696e:	d109      	bne.n	8006984 <HAL_TIM_PWM_Start_IT+0x90>
 8006970:	687b      	ldr	r3, [r7, #4]
 8006972:	f893 3042 	ldrb.w	r3, [r3, #66]	; 0x42
 8006976:	b2db      	uxtb	r3, r3
 8006978:	2b01      	cmp	r3, #1
 800697a:	bf14      	ite	ne
 800697c:	2301      	movne	r3, #1
 800697e:	2300      	moveq	r3, #0
 8006980:	b2db      	uxtb	r3, r3
 8006982:	e008      	b.n	8006996 <HAL_TIM_PWM_Start_IT+0xa2>
 8006984:	687b      	ldr	r3, [r7, #4]
 8006986:	f893 3043 	ldrb.w	r3, [r3, #67]	; 0x43
 800698a:	b2db      	uxtb	r3, r3
 800698c:	2b01      	cmp	r3, #1
 800698e:	bf14      	ite	ne
 8006990:	2301      	movne	r3, #1
 8006992:	2300      	moveq	r3, #0
 8006994:	b2db      	uxtb	r3, r3
 8006996:	2b00      	cmp	r3, #0
 8006998:	d001      	beq.n	800699e <HAL_TIM_PWM_Start_IT+0xaa>
 800699a:	2301      	movs	r3, #1
 800699c:	e0e2      	b.n	8006b64 <HAL_TIM_PWM_Start_IT+0x270>
 800699e:	683b      	ldr	r3, [r7, #0]
 80069a0:	2b00      	cmp	r3, #0
 80069a2:	d104      	bne.n	80069ae <HAL_TIM_PWM_Start_IT+0xba>
 80069a4:	687b      	ldr	r3, [r7, #4]
 80069a6:	2202      	movs	r2, #2
 80069a8:	f883 203e 	strb.w	r2, [r3, #62]	; 0x3e
 80069ac:	e023      	b.n	80069f6 <HAL_TIM_PWM_Start_IT+0x102>
 80069ae:	683b      	ldr	r3, [r7, #0]
 80069b0:	2b04      	cmp	r3, #4
 80069b2:	d104      	bne.n	80069be <HAL_TIM_PWM_Start_IT+0xca>
 80069b4:	687b      	ldr	r3, [r7, #4]
 80069b6:	2202      	movs	r2, #2
 80069b8:	f883 203f 	strb.w	r2, [r3, #63]	; 0x3f
 80069bc:	e01b      	b.n	80069f6 <HAL_TIM_PWM_Start_IT+0x102>
 80069be:	683b      	ldr	r3, [r7, #0]
 80069c0:	2b08      	cmp	r3, #8
 80069c2:	d104      	bne.n	80069ce <HAL_TIM_PWM_Start_IT+0xda>
 80069c4:	687b      	ldr	r3, [r7, #4]
 80069c6:	2202      	movs	r2, #2
 80069c8:	f883 2040 	strb.w	r2, [r3, #64]	; 0x40
 80069cc:	e013      	b.n	80069f6 <HAL_TIM_PWM_Start_IT+0x102>
 80069ce:	683b      	ldr	r3, [r7, #0]
 80069d0:	2b0c      	cmp	r3, #12
 80069d2:	d104      	bne.n	80069de <HAL_TIM_PWM_Start_IT+0xea>
 80069d4:	687b      	ldr	r3, [r7, #4]
 80069d6:	2202      	movs	r2, #2
 80069d8:	f883 2041 	strb.w	r2, [r3, #65]	; 0x41
 80069dc:	e00b      	b.n	80069f6 <HAL_TIM_PWM_Start_IT+0x102>
 80069de:	683b      	ldr	r3, [r7, #0]
 80069e0:	2b10      	cmp	r3, #16
 80069e2:	d104      	bne.n	80069ee <HAL_TIM_PWM_Start_IT+0xfa>
 80069e4:	687b      	ldr	r3, [r7, #4]
 80069e6:	2202      	movs	r2, #2
 80069e8:	f883 2042 	strb.w	r2, [r3, #66]	; 0x42
 80069ec:	e003      	b.n	80069f6 <HAL_TIM_PWM_Start_IT+0x102>
 80069ee:	687b      	ldr	r3, [r7, #4]
 80069f0:	2202      	movs	r2, #2
 80069f2:	f883 2043 	strb.w	r2, [r3, #67]	; 0x43
 80069f6:	683b      	ldr	r3, [r7, #0]
 80069f8:	2b0c      	cmp	r3, #12
 80069fa:	d841      	bhi.n	8006a80 <HAL_TIM_PWM_Start_IT+0x18c>
 80069fc:	a201      	add	r2, pc, #4	; (adr r2, 8006a04 <HAL_TIM_PWM_Start_IT+0x110>)
 80069fe:	f852 f023 	ldr.w	pc, [r2, r3, lsl #2]
 8006a02:	bf00      	nop
 8006a04:	08006a39 	.word	0x08006a39
 8006a08:	08006a81 	.word	0x08006a81
 8006a0c:	08006a81 	.word	0x08006a81
 8006a10:	08006a81 	.word	0x08006a81
 8006a14:	08006a4b 	.word	0x08006a4b
 8006a18:	08006a81 	.word	0x08006a81
 8006a1c:	08006a81 	.word	0x08006a81
 8006a20:	08006a81 	.word	0x08006a81
 8006a24:	08006a5d 	.word	0x08006a5d
 8006a28:	08006a81 	.word	0x08006a81
 8006a2c:	08006a81 	.word	0x08006a81
 8006a30:	08006a81 	.word	0x08006a81
 8006a34:	08006a6f 	.word	0x08006a6f
 8006a38:	687b      	ldr	r3, [r7, #4]
 8006a3a:	681b      	ldr	r3, [r3, #0]
 8006a3c:	68da      	ldr	r2, [r3, #12]
 8006a3e:	687b      	ldr	r3, [r7, #4]
 8006a40:	681b      	ldr	r3, [r3, #0]
 8006a42:	f042 0202 	orr.w	r2, r2, #2
 8006a46:	60da      	str	r2, [r3, #12]
 8006a48:	e01d      	b.n	8006a86 <HAL_TIM_PWM_Start_IT+0x192>
 8006a4a:	687b      	ldr	r3, [r7, #4]
 8006a4c:	681b      	ldr	r3, [r3, #0]
 8006a4e:	68da      	ldr	r2, [r3, #12]
 8006a50:	687b      	ldr	r3, [r7, #4]
 8006a52:	681b      	ldr	r3, [r3, #0]
 8006a54:	f042 0204 	orr.w	r2, r2, #4
 8006a58:	60da      	str	r2, [r3, #12]
 8006a5a:	e014      	b.n	8006a86 <HAL_TIM_PWM_Start_IT+0x192>
 8006a5c:	687b      	ldr	r3, [r7, #4]
 8006a5e:	681b      	ldr	r3, [r3, #0]
 8006a60:	68da      	ldr	r2, [r3, #12]
 8006a62:	687b      	ldr	r3, [r7, #4]
 8006a64:	681b      	ldr	r3, [r3, #0]
 8006a66:	f042 0208 	orr.w	r2, r2, #8
 8006a6a:	60da      	str	r2, [r3, #12]
 8006a6c:	e00b      	b.n	8006a86 <HAL_TIM_PWM_Start_IT+0x192>
 8006a6e:	687b      	ldr	r3, [r7, #4]
 8006a70:	681b      	ldr	r3, [r3, #0]
 8006a72:	68da      	ldr	r2, [r3, #12]
 8006a74:	687b      	ldr	r3, [r7, #4]
 8006a76:	681b      	ldr	r3, [r3, #0]
 8006a78:	f042 0210 	orr.w	r2, r2, #16
 8006a7c:	60da      	str	r2, [r3, #12]
 8006a7e:	e002      	b.n	8006a86 <HAL_TIM_PWM_Start_IT+0x192>
 8006a80:	2301      	movs	r3, #1
 8006a82:	73fb      	strb	r3, [r7, #15]
 8006a84:	bf00      	nop
 8006a86:	7bfb      	ldrb	r3, [r7, #15]
 8006a88:	2b00      	cmp	r3, #0
 8006a8a:	d16a      	bne.n	8006b62 <HAL_TIM_PWM_Start_IT+0x26e>
 8006a8c:	687b      	ldr	r3, [r7, #4]
 8006a8e:	681b      	ldr	r3, [r3, #0]
 8006a90:	2201      	movs	r2, #1
 8006a92:	6839      	ldr	r1, [r7, #0]
 8006a94:	4618      	mov	r0, r3
 8006a96:	f001 f8b5 	bl	8007c04 <TIM_CCxChannelCmd>
 8006a9a:	687b      	ldr	r3, [r7, #4]
 8006a9c:	681b      	ldr	r3, [r3, #0]
 8006a9e:	4a33      	ldr	r2, [pc, #204]	; (8006b6c <HAL_TIM_PWM_Start_IT+0x278>)
 8006aa0:	4293      	cmp	r3, r2
 8006aa2:	d013      	beq.n	8006acc <HAL_TIM_PWM_Start_IT+0x1d8>
 8006aa4:	687b      	ldr	r3, [r7, #4]
 8006aa6:	681b      	ldr	r3, [r3, #0]
 8006aa8:	4a31      	ldr	r2, [pc, #196]	; (8006b70 <HAL_TIM_PWM_Start_IT+0x27c>)
 8006aaa:	4293      	cmp	r3, r2
 8006aac:	d00e      	beq.n	8006acc <HAL_TIM_PWM_Start_IT+0x1d8>
 8006aae:	687b      	ldr	r3, [r7, #4]
 8006ab0:	681b      	ldr	r3, [r3, #0]
 8006ab2:	4a30      	ldr	r2, [pc, #192]	; (8006b74 <HAL_TIM_PWM_Start_IT+0x280>)
 8006ab4:	4293      	cmp	r3, r2
 8006ab6:	d009      	beq.n	8006acc <HAL_TIM_PWM_Start_IT+0x1d8>
 8006ab8:	687b      	ldr	r3, [r7, #4]
 8006aba:	681b      	ldr	r3, [r3, #0]
 8006abc:	4a2e      	ldr	r2, [pc, #184]	; (8006b78 <HAL_TIM_PWM_Start_IT+0x284>)
 8006abe:	4293      	cmp	r3, r2
 8006ac0:	d004      	beq.n	8006acc <HAL_TIM_PWM_Start_IT+0x1d8>
 8006ac2:	687b      	ldr	r3, [r7, #4]
 8006ac4:	681b      	ldr	r3, [r3, #0]
 8006ac6:	4a2d      	ldr	r2, [pc, #180]	; (8006b7c <HAL_TIM_PWM_Start_IT+0x288>)
 8006ac8:	4293      	cmp	r3, r2
 8006aca:	d101      	bne.n	8006ad0 <HAL_TIM_PWM_Start_IT+0x1dc>
 8006acc:	2301      	movs	r3, #1
 8006ace:	e000      	b.n	8006ad2 <HAL_TIM_PWM_Start_IT+0x1de>
 8006ad0:	2300      	movs	r3, #0
 8006ad2:	2b00      	cmp	r3, #0
 8006ad4:	d007      	beq.n	8006ae6 <HAL_TIM_PWM_Start_IT+0x1f2>
 8006ad6:	687b      	ldr	r3, [r7, #4]
 8006ad8:	681b      	ldr	r3, [r3, #0]
 8006ada:	6c5a      	ldr	r2, [r3, #68]	; 0x44
 8006adc:	687b      	ldr	r3, [r7, #4]
 8006ade:	681b      	ldr	r3, [r3, #0]
 8006ae0:	f442 4200 	orr.w	r2, r2, #32768	; 0x8000
 8006ae4:	645a      	str	r2, [r3, #68]	; 0x44
 8006ae6:	687b      	ldr	r3, [r7, #4]
 8006ae8:	681b      	ldr	r3, [r3, #0]
 8006aea:	4a20      	ldr	r2, [pc, #128]	; (8006b6c <HAL_TIM_PWM_Start_IT+0x278>)
 8006aec:	4293      	cmp	r3, r2
 8006aee:	d018      	beq.n	8006b22 <HAL_TIM_PWM_Start_IT+0x22e>
 8006af0:	687b      	ldr	r3, [r7, #4]
 8006af2:	681b      	ldr	r3, [r3, #0]
 8006af4:	f1b3 4f80 	cmp.w	r3, #1073741824	; 0x40000000
 8006af8:	d013      	beq.n	8006b22 <HAL_TIM_PWM_Start_IT+0x22e>
 8006afa:	687b      	ldr	r3, [r7, #4]
 8006afc:	681b      	ldr	r3, [r3, #0]
 8006afe:	4a20      	ldr	r2, [pc, #128]	; (8006b80 <HAL_TIM_PWM_Start_IT+0x28c>)
 8006b00:	4293      	cmp	r3, r2
 8006b02:	d00e      	beq.n	8006b22 <HAL_TIM_PWM_Start_IT+0x22e>
 8006b04:	687b      	ldr	r3, [r7, #4]
 8006b06:	681b      	ldr	r3, [r3, #0]
 8006b08:	4a1e      	ldr	r2, [pc, #120]	; (8006b84 <HAL_TIM_PWM_Start_IT+0x290>)
 8006b0a:	4293      	cmp	r3, r2
 8006b0c:	d009      	beq.n	8006b22 <HAL_TIM_PWM_Start_IT+0x22e>
 8006b0e:	687b      	ldr	r3, [r7, #4]
 8006b10:	681b      	ldr	r3, [r3, #0]
 8006b12:	4a17      	ldr	r2, [pc, #92]	; (8006b70 <HAL_TIM_PWM_Start_IT+0x27c>)
 8006b14:	4293      	cmp	r3, r2
 8006b16:	d004      	beq.n	8006b22 <HAL_TIM_PWM_Start_IT+0x22e>
 8006b18:	687b      	ldr	r3, [r7, #4]
 8006b1a:	681b      	ldr	r3, [r3, #0]
 8006b1c:	4a15      	ldr	r2, [pc, #84]	; (8006b74 <HAL_TIM_PWM_Start_IT+0x280>)
 8006b1e:	4293      	cmp	r3, r2
 8006b20:	d115      	bne.n	8006b4e <HAL_TIM_PWM_Start_IT+0x25a>
 8006b22:	687b      	ldr	r3, [r7, #4]
 8006b24:	681b      	ldr	r3, [r3, #0]
 8006b26:	689a      	ldr	r2, [r3, #8]
 8006b28:	4b17      	ldr	r3, [pc, #92]	; (8006b88 <HAL_TIM_PWM_Start_IT+0x294>)
 8006b2a:	4013      	ands	r3, r2
 8006b2c:	60bb      	str	r3, [r7, #8]
 8006b2e:	68bb      	ldr	r3, [r7, #8]
 8006b30:	2b06      	cmp	r3, #6
 8006b32:	d015      	beq.n	8006b60 <HAL_TIM_PWM_Start_IT+0x26c>
 8006b34:	68bb      	ldr	r3, [r7, #8]
 8006b36:	f5b3 3f80 	cmp.w	r3, #65536	; 0x10000
 8006b3a:	d011      	beq.n	8006b60 <HAL_TIM_PWM_Start_IT+0x26c>
 8006b3c:	687b      	ldr	r3, [r7, #4]
 8006b3e:	681b      	ldr	r3, [r3, #0]
 8006b40:	681a      	ldr	r2, [r3, #0]
 8006b42:	687b      	ldr	r3, [r7, #4]
 8006b44:	681b      	ldr	r3, [r3, #0]
 8006b46:	f042 0201 	orr.w	r2, r2, #1
 8006b4a:	601a      	str	r2, [r3, #0]
 8006b4c:	e008      	b.n	8006b60 <HAL_TIM_PWM_Start_IT+0x26c>
 8006b4e:	687b      	ldr	r3, [r7, #4]
 8006b50:	681b      	ldr	r3, [r3, #0]
 8006b52:	681a      	ldr	r2, [r3, #0]
 8006b54:	687b      	ldr	r3, [r7, #4]
 8006b56:	681b      	ldr	r3, [r3, #0]
 8006b58:	f042 0201 	orr.w	r2, r2, #1
 8006b5c:	601a      	str	r2, [r3, #0]
 8006b5e:	e000      	b.n	8006b62 <HAL_TIM_PWM_Start_IT+0x26e>
 8006b60:	bf00      	nop
 8006b62:	7bfb      	ldrb	r3, [r7, #15]
 8006b64:	4618      	mov	r0, r3
 8006b66:	3710      	adds	r7, #16
 8006b68:	46bd      	mov	sp, r7
 8006b6a:	bd80      	pop	{r7, pc}
 8006b6c:	40012c00 	.word	0x40012c00
 8006b70:	40013400 	.word	0x40013400
 8006b74:	40014000 	.word	0x40014000
 8006b78:	40014400 	.word	0x40014400
 8006b7c:	40014800 	.word	0x40014800
 8006b80:	40000400 	.word	0x40000400
 8006b84:	40000800 	.word	0x40000800
 8006b88:	00010007 	.word	0x00010007

08006b8c <HAL_TIM_OnePulse_Init>:
 8006b8c:	b580      	push	{r7, lr}
 8006b8e:	b082      	sub	sp, #8
 8006b90:	af00      	add	r7, sp, #0
 8006b92:	6078      	str	r0, [r7, #4]
 8006b94:	6039      	str	r1, [r7, #0]
 8006b96:	687b      	ldr	r3, [r7, #4]
 8006b98:	2b00      	cmp	r3, #0
 8006b9a:	d101      	bne.n	8006ba0 <HAL_TIM_OnePulse_Init+0x14>
 8006b9c:	2301      	movs	r3, #1
 8006b9e:	e041      	b.n	8006c24 <HAL_TIM_OnePulse_Init+0x98>
 8006ba0:	687b      	ldr	r3, [r7, #4]
 8006ba2:	f893 303d 	ldrb.w	r3, [r3, #61]	; 0x3d
 8006ba6:	b2db      	uxtb	r3, r3
 8006ba8:	2b00      	cmp	r3, #0
 8006baa:	d106      	bne.n	8006bba <HAL_TIM_OnePulse_Init+0x2e>
 8006bac:	687b      	ldr	r3, [r7, #4]
 8006bae:	2200      	movs	r2, #0
 8006bb0:	f883 203c 	strb.w	r2, [r3, #60]	; 0x3c
 8006bb4:	6878      	ldr	r0, [r7, #4]
 8006bb6:	f000 f839 	bl	8006c2c <HAL_TIM_OnePulse_MspInit>
 8006bba:	687b      	ldr	r3, [r7, #4]
 8006bbc:	2202      	movs	r2, #2
 8006bbe:	f883 203d 	strb.w	r2, [r3, #61]	; 0x3d
 8006bc2:	687b      	ldr	r3, [r7, #4]
 8006bc4:	681a      	ldr	r2, [r3, #0]
 8006bc6:	687b      	ldr	r3, [r7, #4]
 8006bc8:	3304      	adds	r3, #4
 8006bca:	4619      	mov	r1, r3
 8006bcc:	4610      	mov	r0, r2
 8006bce:	f000 fbf7 	bl	80073c0 <TIM_Base_SetConfig>
 8006bd2:	687b      	ldr	r3, [r7, #4]
 8006bd4:	681b      	ldr	r3, [r3, #0]
 8006bd6:	681a      	ldr	r2, [r3, #0]
 8006bd8:	687b      	ldr	r3, [r7, #4]
 8006bda:	681b      	ldr	r3, [r3, #0]
 8006bdc:	f022 0208 	bic.w	r2, r2, #8
 8006be0:	601a      	str	r2, [r3, #0]
 8006be2:	687b      	ldr	r3, [r7, #4]
 8006be4:	681b      	ldr	r3, [r3, #0]
 8006be6:	6819      	ldr	r1, [r3, #0]
 8006be8:	687b      	ldr	r3, [r7, #4]
 8006bea:	681b      	ldr	r3, [r3, #0]
 8006bec:	683a      	ldr	r2, [r7, #0]
 8006bee:	430a      	orrs	r2, r1
 8006bf0:	601a      	str	r2, [r3, #0]
 8006bf2:	687b      	ldr	r3, [r7, #4]
 8006bf4:	2201      	movs	r2, #1
 8006bf6:	f883 2048 	strb.w	r2, [r3, #72]	; 0x48
 8006bfa:	687b      	ldr	r3, [r7, #4]
 8006bfc:	2201      	movs	r2, #1
 8006bfe:	f883 203e 	strb.w	r2, [r3, #62]	; 0x3e
 8006c02:	687b      	ldr	r3, [r7, #4]
 8006c04:	2201      	movs	r2, #1
 8006c06:	f883 203f 	strb.w	r2, [r3, #63]	; 0x3f
 8006c0a:	687b      	ldr	r3, [r7, #4]
 8006c0c:	2201      	movs	r2, #1
 8006c0e:	f883 2044 	strb.w	r2, [r3, #68]	; 0x44
 8006c12:	687b      	ldr	r3, [r7, #4]
 8006c14:	2201      	movs	r2, #1
 8006c16:	f883 2045 	strb.w	r2, [r3, #69]	; 0x45
 8006c1a:	687b      	ldr	r3, [r7, #4]
 8006c1c:	2201      	movs	r2, #1
 8006c1e:	f883 203d 	strb.w	r2, [r3, #61]	; 0x3d
 8006c22:	2300      	movs	r3, #0
 8006c24:	4618      	mov	r0, r3
 8006c26:	3708      	adds	r7, #8
 8006c28:	46bd      	mov	sp, r7
 8006c2a:	bd80      	pop	{r7, pc}

08006c2c <HAL_TIM_OnePulse_MspInit>:
 8006c2c:	b480      	push	{r7}
 8006c2e:	b083      	sub	sp, #12
 8006c30:	af00      	add	r7, sp, #0
 8006c32:	6078      	str	r0, [r7, #4]
 8006c34:	bf00      	nop
 8006c36:	370c      	adds	r7, #12
 8006c38:	46bd      	mov	sp, r7
 8006c3a:	f85d 7b04 	ldr.w	r7, [sp], #4
 8006c3e:	4770      	bx	lr

08006c40 <HAL_TIM_IRQHandler>:
 8006c40:	b580      	push	{r7, lr}
 8006c42:	b082      	sub	sp, #8
 8006c44:	af00      	add	r7, sp, #0
 8006c46:	6078      	str	r0, [r7, #4]
 8006c48:	687b      	ldr	r3, [r7, #4]
 8006c4a:	681b      	ldr	r3, [r3, #0]
 8006c4c:	691b      	ldr	r3, [r3, #16]
 8006c4e:	f003 0302 	and.w	r3, r3, #2
 8006c52:	2b02      	cmp	r3, #2
 8006c54:	d122      	bne.n	8006c9c <HAL_TIM_IRQHandler+0x5c>
 8006c56:	687b      	ldr	r3, [r7, #4]
 8006c58:	681b      	ldr	r3, [r3, #0]
 8006c5a:	68db      	ldr	r3, [r3, #12]
 8006c5c:	f003 0302 	and.w	r3, r3, #2
 8006c60:	2b02      	cmp	r3, #2
 8006c62:	d11b      	bne.n	8006c9c <HAL_TIM_IRQHandler+0x5c>
 8006c64:	687b      	ldr	r3, [r7, #4]
 8006c66:	681b      	ldr	r3, [r3, #0]
 8006c68:	f06f 0202 	mvn.w	r2, #2
 8006c6c:	611a      	str	r2, [r3, #16]
 8006c6e:	687b      	ldr	r3, [r7, #4]
 8006c70:	2201      	movs	r2, #1
 8006c72:	771a      	strb	r2, [r3, #28]
 8006c74:	687b      	ldr	r3, [r7, #4]
 8006c76:	681b      	ldr	r3, [r3, #0]
 8006c78:	699b      	ldr	r3, [r3, #24]
 8006c7a:	f003 0303 	and.w	r3, r3, #3
 8006c7e:	2b00      	cmp	r3, #0
 8006c80:	d003      	beq.n	8006c8a <HAL_TIM_IRQHandler+0x4a>
 8006c82:	6878      	ldr	r0, [r7, #4]
 8006c84:	f000 fb7e 	bl	8007384 <HAL_TIM_IC_CaptureCallback>
 8006c88:	e005      	b.n	8006c96 <HAL_TIM_IRQHandler+0x56>
 8006c8a:	6878      	ldr	r0, [r7, #4]
 8006c8c:	f000 fb70 	bl	8007370 <HAL_TIM_OC_DelayElapsedCallback>
 8006c90:	6878      	ldr	r0, [r7, #4]
 8006c92:	f000 fb81 	bl	8007398 <HAL_TIM_PWM_PulseFinishedCallback>
 8006c96:	687b      	ldr	r3, [r7, #4]
 8006c98:	2200      	movs	r2, #0
 8006c9a:	771a      	strb	r2, [r3, #28]
 8006c9c:	687b      	ldr	r3, [r7, #4]
 8006c9e:	681b      	ldr	r3, [r3, #0]
 8006ca0:	691b      	ldr	r3, [r3, #16]
 8006ca2:	f003 0304 	and.w	r3, r3, #4
 8006ca6:	2b04      	cmp	r3, #4
 8006ca8:	d122      	bne.n	8006cf0 <HAL_TIM_IRQHandler+0xb0>
 8006caa:	687b      	ldr	r3, [r7, #4]
 8006cac:	681b      	ldr	r3, [r3, #0]
 8006cae:	68db      	ldr	r3, [r3, #12]
 8006cb0:	f003 0304 	and.w	r3, r3, #4
 8006cb4:	2b04      	cmp	r3, #4
 8006cb6:	d11b      	bne.n	8006cf0 <HAL_TIM_IRQHandler+0xb0>
 8006cb8:	687b      	ldr	r3, [r7, #4]
 8006cba:	681b      	ldr	r3, [r3, #0]
 8006cbc:	f06f 0204 	mvn.w	r2, #4
 8006cc0:	611a      	str	r2, [r3, #16]
 8006cc2:	687b      	ldr	r3, [r7, #4]
 8006cc4:	2202      	movs	r2, #2
 8006cc6:	771a      	strb	r2, [r3, #28]
 8006cc8:	687b      	ldr	r3, [r7, #4]
 8006cca:	681b      	ldr	r3, [r3, #0]
 8006ccc:	699b      	ldr	r3, [r3, #24]
 8006cce:	f403 7340 	and.w	r3, r3, #768	; 0x300
 8006cd2:	2b00      	cmp	r3, #0
 8006cd4:	d003      	beq.n	8006cde <HAL_TIM_IRQHandler+0x9e>
 8006cd6:	6878      	ldr	r0, [r7, #4]
 8006cd8:	f000 fb54 	bl	8007384 <HAL_TIM_IC_CaptureCallback>
 8006cdc:	e005      	b.n	8006cea <HAL_TIM_IRQHandler+0xaa>
 8006cde:	6878      	ldr	r0, [r7, #4]
 8006ce0:	f000 fb46 	bl	8007370 <HAL_TIM_OC_DelayElapsedCallback>
 8006ce4:	6878      	ldr	r0, [r7, #4]
 8006ce6:	f000 fb57 	bl	8007398 <HAL_TIM_PWM_PulseFinishedCallback>
 8006cea:	687b      	ldr	r3, [r7, #4]
 8006cec:	2200      	movs	r2, #0
 8006cee:	771a      	strb	r2, [r3, #28]
 8006cf0:	687b      	ldr	r3, [r7, #4]
 8006cf2:	681b      	ldr	r3, [r3, #0]
 8006cf4:	691b      	ldr	r3, [r3, #16]
 8006cf6:	f003 0308 	and.w	r3, r3, #8
 8006cfa:	2b08      	cmp	r3, #8
 8006cfc:	d122      	bne.n	8006d44 <HAL_TIM_IRQHandler+0x104>
 8006cfe:	687b      	ldr	r3, [r7, #4]
 8006d00:	681b      	ldr	r3, [r3, #0]
 8006d02:	68db      	ldr	r3, [r3, #12]
 8006d04:	f003 0308 	and.w	r3, r3, #8
 8006d08:	2b08      	cmp	r3, #8
 8006d0a:	d11b      	bne.n	8006d44 <HAL_TIM_IRQHandler+0x104>
 8006d0c:	687b      	ldr	r3, [r7, #4]
 8006d0e:	681b      	ldr	r3, [r3, #0]
 8006d10:	f06f 0208 	mvn.w	r2, #8
 8006d14:	611a      	str	r2, [r3, #16]
 8006d16:	687b      	ldr	r3, [r7, #4]
 8006d18:	2204      	movs	r2, #4
 8006d1a:	771a      	strb	r2, [r3, #28]
 8006d1c:	687b      	ldr	r3, [r7, #4]
 8006d1e:	681b      	ldr	r3, [r3, #0]
 8006d20:	69db      	ldr	r3, [r3, #28]
 8006d22:	f003 0303 	and.w	r3, r3, #3
 8006d26:	2b00      	cmp	r3, #0
 8006d28:	d003      	beq.n	8006d32 <HAL_TIM_IRQHandler+0xf2>
 8006d2a:	6878      	ldr	r0, [r7, #4]
 8006d2c:	f000 fb2a 	bl	8007384 <HAL_TIM_IC_CaptureCallback>
 8006d30:	e005      	b.n	8006d3e <HAL_TIM_IRQHandler+0xfe>
 8006d32:	6878      	ldr	r0, [r7, #4]
 8006d34:	f000 fb1c 	bl	8007370 <HAL_TIM_OC_DelayElapsedCallback>
 8006d38:	6878      	ldr	r0, [r7, #4]
 8006d3a:	f000 fb2d 	bl	8007398 <HAL_TIM_PWM_PulseFinishedCallback>
 8006d3e:	687b      	ldr	r3, [r7, #4]
 8006d40:	2200      	movs	r2, #0
 8006d42:	771a      	strb	r2, [r3, #28]
 8006d44:	687b      	ldr	r3, [r7, #4]
 8006d46:	681b      	ldr	r3, [r3, #0]
 8006d48:	691b      	ldr	r3, [r3, #16]
 8006d4a:	f003 0310 	and.w	r3, r3, #16
 8006d4e:	2b10      	cmp	r3, #16
 8006d50:	d122      	bne.n	8006d98 <HAL_TIM_IRQHandler+0x158>
 8006d52:	687b      	ldr	r3, [r7, #4]
 8006d54:	681b      	ldr	r3, [r3, #0]
 8006d56:	68db      	ldr	r3, [r3, #12]
 8006d58:	f003 0310 	and.w	r3, r3, #16
 8006d5c:	2b10      	cmp	r3, #16
 8006d5e:	d11b      	bne.n	8006d98 <HAL_TIM_IRQHandler+0x158>
 8006d60:	687b      	ldr	r3, [r7, #4]
 8006d62:	681b      	ldr	r3, [r3, #0]
 8006d64:	f06f 0210 	mvn.w	r2, #16
 8006d68:	611a      	str	r2, [r3, #16]
 8006d6a:	687b      	ldr	r3, [r7, #4]
 8006d6c:	2208      	movs	r2, #8
 8006d6e:	771a      	strb	r2, [r3, #28]
 8006d70:	687b      	ldr	r3, [r7, #4]
 8006d72:	681b      	ldr	r3, [r3, #0]
 8006d74:	69db      	ldr	r3, [r3, #28]
 8006d76:	f403 7340 	and.w	r3, r3, #768	; 0x300
 8006d7a:	2b00      	cmp	r3, #0
 8006d7c:	d003      	beq.n	8006d86 <HAL_TIM_IRQHandler+0x146>
 8006d7e:	6878      	ldr	r0, [r7, #4]
 8006d80:	f000 fb00 	bl	8007384 <HAL_TIM_IC_CaptureCallback>
 8006d84:	e005      	b.n	8006d92 <HAL_TIM_IRQHandler+0x152>
 8006d86:	6878      	ldr	r0, [r7, #4]
 8006d88:	f000 faf2 	bl	8007370 <HAL_TIM_OC_DelayElapsedCallback>
 8006d8c:	6878      	ldr	r0, [r7, #4]
 8006d8e:	f000 fb03 	bl	8007398 <HAL_TIM_PWM_PulseFinishedCallback>
 8006d92:	687b      	ldr	r3, [r7, #4]
 8006d94:	2200      	movs	r2, #0
 8006d96:	771a      	strb	r2, [r3, #28]
 8006d98:	687b      	ldr	r3, [r7, #4]
 8006d9a:	681b      	ldr	r3, [r3, #0]
 8006d9c:	691b      	ldr	r3, [r3, #16]
 8006d9e:	f003 0301 	and.w	r3, r3, #1
 8006da2:	2b01      	cmp	r3, #1
 8006da4:	d10e      	bne.n	8006dc4 <HAL_TIM_IRQHandler+0x184>
 8006da6:	687b      	ldr	r3, [r7, #4]
 8006da8:	681b      	ldr	r3, [r3, #0]
 8006daa:	68db      	ldr	r3, [r3, #12]
 8006dac:	f003 0301 	and.w	r3, r3, #1
 8006db0:	2b01      	cmp	r3, #1
 8006db2:	d107      	bne.n	8006dc4 <HAL_TIM_IRQHandler+0x184>
 8006db4:	687b      	ldr	r3, [r7, #4]
 8006db6:	681b      	ldr	r3, [r3, #0]
 8006db8:	f06f 0201 	mvn.w	r2, #1
 8006dbc:	611a      	str	r2, [r3, #16]
 8006dbe:	6878      	ldr	r0, [r7, #4]
 8006dc0:	f000 facc 	bl	800735c <HAL_TIM_PeriodElapsedCallback>
 8006dc4:	687b      	ldr	r3, [r7, #4]
 8006dc6:	681b      	ldr	r3, [r3, #0]
 8006dc8:	691b      	ldr	r3, [r3, #16]
 8006dca:	f003 0380 	and.w	r3, r3, #128	; 0x80
 8006dce:	2b80      	cmp	r3, #128	; 0x80
 8006dd0:	d10e      	bne.n	8006df0 <HAL_TIM_IRQHandler+0x1b0>
 8006dd2:	687b      	ldr	r3, [r7, #4]
 8006dd4:	681b      	ldr	r3, [r3, #0]
 8006dd6:	68db      	ldr	r3, [r3, #12]
 8006dd8:	f003 0380 	and.w	r3, r3, #128	; 0x80
 8006ddc:	2b80      	cmp	r3, #128	; 0x80
 8006dde:	d107      	bne.n	8006df0 <HAL_TIM_IRQHandler+0x1b0>
 8006de0:	687b      	ldr	r3, [r7, #4]
 8006de2:	681b      	ldr	r3, [r3, #0]
 8006de4:	f06f 0280 	mvn.w	r2, #128	; 0x80
 8006de8:	611a      	str	r2, [r3, #16]
 8006dea:	6878      	ldr	r0, [r7, #4]
 8006dec:	f7fa fcd9 	bl	80017a2 <HAL_TIMEx_BreakCallback>
 8006df0:	687b      	ldr	r3, [r7, #4]
 8006df2:	681b      	ldr	r3, [r3, #0]
 8006df4:	691b      	ldr	r3, [r3, #16]
 8006df6:	f403 7380 	and.w	r3, r3, #256	; 0x100
 8006dfa:	f5b3 7f80 	cmp.w	r3, #256	; 0x100
 8006dfe:	d10e      	bne.n	8006e1e <HAL_TIM_IRQHandler+0x1de>
 8006e00:	687b      	ldr	r3, [r7, #4]
 8006e02:	681b      	ldr	r3, [r3, #0]
 8006e04:	68db      	ldr	r3, [r3, #12]
 8006e06:	f003 0380 	and.w	r3, r3, #128	; 0x80
 8006e0a:	2b80      	cmp	r3, #128	; 0x80
 8006e0c:	d107      	bne.n	8006e1e <HAL_TIM_IRQHandler+0x1de>
 8006e0e:	687b      	ldr	r3, [r7, #4]
 8006e10:	681b      	ldr	r3, [r3, #0]
 8006e12:	f46f 7280 	mvn.w	r2, #256	; 0x100
 8006e16:	611a      	str	r2, [r3, #16]
 8006e18:	6878      	ldr	r0, [r7, #4]
 8006e1a:	f001 fa38 	bl	800828e <HAL_TIMEx_Break2Callback>
 8006e1e:	687b      	ldr	r3, [r7, #4]
 8006e20:	681b      	ldr	r3, [r3, #0]
 8006e22:	691b      	ldr	r3, [r3, #16]
 8006e24:	f003 0340 	and.w	r3, r3, #64	; 0x40
 8006e28:	2b40      	cmp	r3, #64	; 0x40
 8006e2a:	d10e      	bne.n	8006e4a <HAL_TIM_IRQHandler+0x20a>
 8006e2c:	687b      	ldr	r3, [r7, #4]
 8006e2e:	681b      	ldr	r3, [r3, #0]
 8006e30:	68db      	ldr	r3, [r3, #12]
 8006e32:	f003 0340 	and.w	r3, r3, #64	; 0x40
 8006e36:	2b40      	cmp	r3, #64	; 0x40
 8006e38:	d107      	bne.n	8006e4a <HAL_TIM_IRQHandler+0x20a>
 8006e3a:	687b      	ldr	r3, [r7, #4]
 8006e3c:	681b      	ldr	r3, [r3, #0]
 8006e3e:	f06f 0240 	mvn.w	r2, #64	; 0x40
 8006e42:	611a      	str	r2, [r3, #16]
 8006e44:	6878      	ldr	r0, [r7, #4]
 8006e46:	f000 fab1 	bl	80073ac <HAL_TIM_TriggerCallback>
 8006e4a:	687b      	ldr	r3, [r7, #4]
 8006e4c:	681b      	ldr	r3, [r3, #0]
 8006e4e:	691b      	ldr	r3, [r3, #16]
 8006e50:	f003 0320 	and.w	r3, r3, #32
 8006e54:	2b20      	cmp	r3, #32
 8006e56:	d10e      	bne.n	8006e76 <HAL_TIM_IRQHandler+0x236>
 8006e58:	687b      	ldr	r3, [r7, #4]
 8006e5a:	681b      	ldr	r3, [r3, #0]
 8006e5c:	68db      	ldr	r3, [r3, #12]
 8006e5e:	f003 0320 	and.w	r3, r3, #32
 8006e62:	2b20      	cmp	r3, #32
 8006e64:	d107      	bne.n	8006e76 <HAL_TIM_IRQHandler+0x236>
 8006e66:	687b      	ldr	r3, [r7, #4]
 8006e68:	681b      	ldr	r3, [r3, #0]
 8006e6a:	f06f 0220 	mvn.w	r2, #32
 8006e6e:	611a      	str	r2, [r3, #16]
 8006e70:	6878      	ldr	r0, [r7, #4]
 8006e72:	f001 fa02 	bl	800827a <HAL_TIMEx_CommutCallback>
 8006e76:	687b      	ldr	r3, [r7, #4]
 8006e78:	681b      	ldr	r3, [r3, #0]
 8006e7a:	691b      	ldr	r3, [r3, #16]
 8006e7c:	f403 1380 	and.w	r3, r3, #1048576	; 0x100000
 8006e80:	f5b3 1f80 	cmp.w	r3, #1048576	; 0x100000
 8006e84:	d10f      	bne.n	8006ea6 <HAL_TIM_IRQHandler+0x266>
 8006e86:	687b      	ldr	r3, [r7, #4]
 8006e88:	681b      	ldr	r3, [r3, #0]
 8006e8a:	68db      	ldr	r3, [r3, #12]
 8006e8c:	f403 1380 	and.w	r3, r3, #1048576	; 0x100000
 8006e90:	f5b3 1f80 	cmp.w	r3, #1048576	; 0x100000
 8006e94:	d107      	bne.n	8006ea6 <HAL_TIM_IRQHandler+0x266>
 8006e96:	687b      	ldr	r3, [r7, #4]
 8006e98:	681b      	ldr	r3, [r3, #0]
 8006e9a:	f46f 1280 	mvn.w	r2, #1048576	; 0x100000
 8006e9e:	611a      	str	r2, [r3, #16]
 8006ea0:	6878      	ldr	r0, [r7, #4]
 8006ea2:	f001 f9fe 	bl	80082a2 <HAL_TIMEx_EncoderIndexCallback>
 8006ea6:	687b      	ldr	r3, [r7, #4]
 8006ea8:	681b      	ldr	r3, [r3, #0]
 8006eaa:	691b      	ldr	r3, [r3, #16]
 8006eac:	f403 1300 	and.w	r3, r3, #2097152	; 0x200000
 8006eb0:	f5b3 1f00 	cmp.w	r3, #2097152	; 0x200000
 8006eb4:	d10f      	bne.n	8006ed6 <HAL_TIM_IRQHandler+0x296>
 8006eb6:	687b      	ldr	r3, [r7, #4]
 8006eb8:	681b      	ldr	r3, [r3, #0]
 8006eba:	68db      	ldr	r3, [r3, #12]
 8006ebc:	f403 1300 	and.w	r3, r3, #2097152	; 0x200000
 8006ec0:	f5b3 1f00 	cmp.w	r3, #2097152	; 0x200000
 8006ec4:	d107      	bne.n	8006ed6 <HAL_TIM_IRQHandler+0x296>
 8006ec6:	687b      	ldr	r3, [r7, #4]
 8006ec8:	681b      	ldr	r3, [r3, #0]
 8006eca:	f46f 1200 	mvn.w	r2, #2097152	; 0x200000
 8006ece:	611a      	str	r2, [r3, #16]
 8006ed0:	6878      	ldr	r0, [r7, #4]
 8006ed2:	f001 f9f0 	bl	80082b6 <HAL_TIMEx_DirectionChangeCallback>
 8006ed6:	687b      	ldr	r3, [r7, #4]
 8006ed8:	681b      	ldr	r3, [r3, #0]
 8006eda:	691b      	ldr	r3, [r3, #16]
 8006edc:	f403 0380 	and.w	r3, r3, #4194304	; 0x400000
 8006ee0:	f5b3 0f80 	cmp.w	r3, #4194304	; 0x400000
 8006ee4:	d10f      	bne.n	8006f06 <HAL_TIM_IRQHandler+0x2c6>
 8006ee6:	687b      	ldr	r3, [r7, #4]
 8006ee8:	681b      	ldr	r3, [r3, #0]
 8006eea:	68db      	ldr	r3, [r3, #12]
 8006eec:	f403 0380 	and.w	r3, r3, #4194304	; 0x400000
 8006ef0:	f5b3 0f80 	cmp.w	r3, #4194304	; 0x400000
 8006ef4:	d107      	bne.n	8006f06 <HAL_TIM_IRQHandler+0x2c6>
 8006ef6:	687b      	ldr	r3, [r7, #4]
 8006ef8:	681b      	ldr	r3, [r3, #0]
 8006efa:	f46f 0280 	mvn.w	r2, #4194304	; 0x400000
 8006efe:	611a      	str	r2, [r3, #16]
 8006f00:	6878      	ldr	r0, [r7, #4]
 8006f02:	f001 f9e2 	bl	80082ca <HAL_TIMEx_IndexErrorCallback>
 8006f06:	687b      	ldr	r3, [r7, #4]
 8006f08:	681b      	ldr	r3, [r3, #0]
 8006f0a:	691b      	ldr	r3, [r3, #16]
 8006f0c:	f403 0300 	and.w	r3, r3, #8388608	; 0x800000
 8006f10:	f5b3 0f00 	cmp.w	r3, #8388608	; 0x800000
 8006f14:	d10f      	bne.n	8006f36 <HAL_TIM_IRQHandler+0x2f6>
 8006f16:	687b      	ldr	r3, [r7, #4]
 8006f18:	681b      	ldr	r3, [r3, #0]
 8006f1a:	68db      	ldr	r3, [r3, #12]
 8006f1c:	f403 0300 	and.w	r3, r3, #8388608	; 0x800000
 8006f20:	f5b3 0f00 	cmp.w	r3, #8388608	; 0x800000
 8006f24:	d107      	bne.n	8006f36 <HAL_TIM_IRQHandler+0x2f6>
 8006f26:	687b      	ldr	r3, [r7, #4]
 8006f28:	681b      	ldr	r3, [r3, #0]
 8006f2a:	f46f 0200 	mvn.w	r2, #8388608	; 0x800000
 8006f2e:	611a      	str	r2, [r3, #16]
 8006f30:	6878      	ldr	r0, [r7, #4]
 8006f32:	f001 f9d4 	bl	80082de <HAL_TIMEx_TransitionErrorCallback>
 8006f36:	bf00      	nop
 8006f38:	3708      	adds	r7, #8
 8006f3a:	46bd      	mov	sp, r7
 8006f3c:	bd80      	pop	{r7, pc}
	...

08006f40 <HAL_TIM_PWM_ConfigChannel>:
 8006f40:	b580      	push	{r7, lr}
 8006f42:	b086      	sub	sp, #24
 8006f44:	af00      	add	r7, sp, #0
 8006f46:	60f8      	str	r0, [r7, #12]
 8006f48:	60b9      	str	r1, [r7, #8]
 8006f4a:	607a      	str	r2, [r7, #4]
 8006f4c:	2300      	movs	r3, #0
 8006f4e:	75fb      	strb	r3, [r7, #23]
 8006f50:	68fb      	ldr	r3, [r7, #12]
 8006f52:	f893 303c 	ldrb.w	r3, [r3, #60]	; 0x3c
 8006f56:	2b01      	cmp	r3, #1
 8006f58:	d101      	bne.n	8006f5e <HAL_TIM_PWM_ConfigChannel+0x1e>
 8006f5a:	2302      	movs	r3, #2
 8006f5c:	e0ff      	b.n	800715e <HAL_TIM_PWM_ConfigChannel+0x21e>
 8006f5e:	68fb      	ldr	r3, [r7, #12]
 8006f60:	2201      	movs	r2, #1
 8006f62:	f883 203c 	strb.w	r2, [r3, #60]	; 0x3c
 8006f66:	687b      	ldr	r3, [r7, #4]
 8006f68:	2b14      	cmp	r3, #20
 8006f6a:	f200 80f0 	bhi.w	800714e <HAL_TIM_PWM_ConfigChannel+0x20e>
 8006f6e:	a201      	add	r2, pc, #4	; (adr r2, 8006f74 <HAL_TIM_PWM_ConfigChannel+0x34>)
 8006f70:	f852 f023 	ldr.w	pc, [r2, r3, lsl #2]
 8006f74:	08006fc9 	.word	0x08006fc9
 8006f78:	0800714f 	.word	0x0800714f
 8006f7c:	0800714f 	.word	0x0800714f
 8006f80:	0800714f 	.word	0x0800714f
 8006f84:	08007009 	.word	0x08007009
 8006f88:	0800714f 	.word	0x0800714f
 8006f8c:	0800714f 	.word	0x0800714f
 8006f90:	0800714f 	.word	0x0800714f
 8006f94:	0800704b 	.word	0x0800704b
 8006f98:	0800714f 	.word	0x0800714f
 8006f9c:	0800714f 	.word	0x0800714f
 8006fa0:	0800714f 	.word	0x0800714f
 8006fa4:	0800708b 	.word	0x0800708b
 8006fa8:	0800714f 	.word	0x0800714f
 8006fac:	0800714f 	.word	0x0800714f
 8006fb0:	0800714f 	.word	0x0800714f
 8006fb4:	080070cd 	.word	0x080070cd
 8006fb8:	0800714f 	.word	0x0800714f
 8006fbc:	0800714f 	.word	0x0800714f
 8006fc0:	0800714f 	.word	0x0800714f
 8006fc4:	0800710d 	.word	0x0800710d
 8006fc8:	68fb      	ldr	r3, [r7, #12]
 8006fca:	681b      	ldr	r3, [r3, #0]
 8006fcc:	68b9      	ldr	r1, [r7, #8]
 8006fce:	4618      	mov	r0, r3
 8006fd0:	f000 fa86 	bl	80074e0 <TIM_OC1_SetConfig>
 8006fd4:	68fb      	ldr	r3, [r7, #12]
 8006fd6:	681b      	ldr	r3, [r3, #0]
 8006fd8:	699a      	ldr	r2, [r3, #24]
 8006fda:	68fb      	ldr	r3, [r7, #12]
 8006fdc:	681b      	ldr	r3, [r3, #0]
 8006fde:	f042 0208 	orr.w	r2, r2, #8
 8006fe2:	619a      	str	r2, [r3, #24]
 8006fe4:	68fb      	ldr	r3, [r7, #12]
 8006fe6:	681b      	ldr	r3, [r3, #0]
 8006fe8:	699a      	ldr	r2, [r3, #24]
 8006fea:	68fb      	ldr	r3, [r7, #12]
 8006fec:	681b      	ldr	r3, [r3, #0]
 8006fee:	f022 0204 	bic.w	r2, r2, #4
 8006ff2:	619a      	str	r2, [r3, #24]
 8006ff4:	68fb      	ldr	r3, [r7, #12]
 8006ff6:	681b      	ldr	r3, [r3, #0]
 8006ff8:	6999      	ldr	r1, [r3, #24]
 8006ffa:	68bb      	ldr	r3, [r7, #8]
 8006ffc:	691a      	ldr	r2, [r3, #16]
 8006ffe:	68fb      	ldr	r3, [r7, #12]
 8007000:	681b      	ldr	r3, [r3, #0]
 8007002:	430a      	orrs	r2, r1
 8007004:	619a      	str	r2, [r3, #24]
 8007006:	e0a5      	b.n	8007154 <HAL_TIM_PWM_ConfigChannel+0x214>
 8007008:	68fb      	ldr	r3, [r7, #12]
 800700a:	681b      	ldr	r3, [r3, #0]
 800700c:	68b9      	ldr	r1, [r7, #8]
 800700e:	4618      	mov	r0, r3
 8007010:	f000 faf6 	bl	8007600 <TIM_OC2_SetConfig>
 8007014:	68fb      	ldr	r3, [r7, #12]
 8007016:	681b      	ldr	r3, [r3, #0]
 8007018:	699a      	ldr	r2, [r3, #24]
 800701a:	68fb      	ldr	r3, [r7, #12]
 800701c:	681b      	ldr	r3, [r3, #0]
 800701e:	f442 6200 	orr.w	r2, r2, #2048	; 0x800
 8007022:	619a      	str	r2, [r3, #24]
 8007024:	68fb      	ldr	r3, [r7, #12]
 8007026:	681b      	ldr	r3, [r3, #0]
 8007028:	699a      	ldr	r2, [r3, #24]
 800702a:	68fb      	ldr	r3, [r7, #12]
 800702c:	681b      	ldr	r3, [r3, #0]
 800702e:	f422 6280 	bic.w	r2, r2, #1024	; 0x400
 8007032:	619a      	str	r2, [r3, #24]
 8007034:	68fb      	ldr	r3, [r7, #12]
 8007036:	681b      	ldr	r3, [r3, #0]
 8007038:	6999      	ldr	r1, [r3, #24]
 800703a:	68bb      	ldr	r3, [r7, #8]
 800703c:	691b      	ldr	r3, [r3, #16]
 800703e:	021a      	lsls	r2, r3, #8
 8007040:	68fb      	ldr	r3, [r7, #12]
 8007042:	681b      	ldr	r3, [r3, #0]
 8007044:	430a      	orrs	r2, r1
 8007046:	619a      	str	r2, [r3, #24]
 8007048:	e084      	b.n	8007154 <HAL_TIM_PWM_ConfigChannel+0x214>
 800704a:	68fb      	ldr	r3, [r7, #12]
 800704c:	681b      	ldr	r3, [r3, #0]
 800704e:	68b9      	ldr	r1, [r7, #8]
 8007050:	4618      	mov	r0, r3
 8007052:	f000 fb5f 	bl	8007714 <TIM_OC3_SetConfig>
 8007056:	68fb      	ldr	r3, [r7, #12]
 8007058:	681b      	ldr	r3, [r3, #0]
 800705a:	69da      	ldr	r2, [r3, #28]
 800705c:	68fb      	ldr	r3, [r7, #12]
 800705e:	681b      	ldr	r3, [r3, #0]
 8007060:	f042 0208 	orr.w	r2, r2, #8
 8007064:	61da      	str	r2, [r3, #28]
 8007066:	68fb      	ldr	r3, [r7, #12]
 8007068:	681b      	ldr	r3, [r3, #0]
 800706a:	69da      	ldr	r2, [r3, #28]
 800706c:	68fb      	ldr	r3, [r7, #12]
 800706e:	681b      	ldr	r3, [r3, #0]
 8007070:	f022 0204 	bic.w	r2, r2, #4
 8007074:	61da      	str	r2, [r3, #28]
 8007076:	68fb      	ldr	r3, [r7, #12]
 8007078:	681b      	ldr	r3, [r3, #0]
 800707a:	69d9      	ldr	r1, [r3, #28]
 800707c:	68bb      	ldr	r3, [r7, #8]
 800707e:	691a      	ldr	r2, [r3, #16]
 8007080:	68fb      	ldr	r3, [r7, #12]
 8007082:	681b      	ldr	r3, [r3, #0]
 8007084:	430a      	orrs	r2, r1
 8007086:	61da      	str	r2, [r3, #28]
 8007088:	e064      	b.n	8007154 <HAL_TIM_PWM_ConfigChannel+0x214>
 800708a:	68fb      	ldr	r3, [r7, #12]
 800708c:	681b      	ldr	r3, [r3, #0]
 800708e:	68b9      	ldr	r1, [r7, #8]
 8007090:	4618      	mov	r0, r3
 8007092:	f000 fbc7 	bl	8007824 <TIM_OC4_SetConfig>
 8007096:	68fb      	ldr	r3, [r7, #12]
 8007098:	681b      	ldr	r3, [r3, #0]
 800709a:	69da      	ldr	r2, [r3, #28]
 800709c:	68fb      	ldr	r3, [r7, #12]
 800709e:	681b      	ldr	r3, [r3, #0]
 80070a0:	f442 6200 	orr.w	r2, r2, #2048	; 0x800
 80070a4:	61da      	str	r2, [r3, #28]
 80070a6:	68fb      	ldr	r3, [r7, #12]
 80070a8:	681b      	ldr	r3, [r3, #0]
 80070aa:	69da      	ldr	r2, [r3, #28]
 80070ac:	68fb      	ldr	r3, [r7, #12]
 80070ae:	681b      	ldr	r3, [r3, #0]
 80070b0:	f422 6280 	bic.w	r2, r2, #1024	; 0x400
 80070b4:	61da      	str	r2, [r3, #28]
 80070b6:	68fb      	ldr	r3, [r7, #12]
 80070b8:	681b      	ldr	r3, [r3, #0]
 80070ba:	69d9      	ldr	r1, [r3, #28]
 80070bc:	68bb      	ldr	r3, [r7, #8]
 80070be:	691b      	ldr	r3, [r3, #16]
 80070c0:	021a      	lsls	r2, r3, #8
 80070c2:	68fb      	ldr	r3, [r7, #12]
 80070c4:	681b      	ldr	r3, [r3, #0]
 80070c6:	430a      	orrs	r2, r1
 80070c8:	61da      	str	r2, [r3, #28]
 80070ca:	e043      	b.n	8007154 <HAL_TIM_PWM_ConfigChannel+0x214>
 80070cc:	68fb      	ldr	r3, [r7, #12]
 80070ce:	681b      	ldr	r3, [r3, #0]
 80070d0:	68b9      	ldr	r1, [r7, #8]
 80070d2:	4618      	mov	r0, r3
 80070d4:	f000 fc30 	bl	8007938 <TIM_OC5_SetConfig>
 80070d8:	68fb      	ldr	r3, [r7, #12]
 80070da:	681b      	ldr	r3, [r3, #0]
 80070dc:	6d1a      	ldr	r2, [r3, #80]	; 0x50
 80070de:	68fb      	ldr	r3, [r7, #12]
 80070e0:	681b      	ldr	r3, [r3, #0]
 80070e2:	f042 0208 	orr.w	r2, r2, #8
 80070e6:	651a      	str	r2, [r3, #80]	; 0x50
 80070e8:	68fb      	ldr	r3, [r7, #12]
 80070ea:	681b      	ldr	r3, [r3, #0]
 80070ec:	6d1a      	ldr	r2, [r3, #80]	; 0x50
 80070ee:	68fb      	ldr	r3, [r7, #12]
 80070f0:	681b      	ldr	r3, [r3, #0]
 80070f2:	f022 0204 	bic.w	r2, r2, #4
 80070f6:	651a      	str	r2, [r3, #80]	; 0x50
 80070f8:	68fb      	ldr	r3, [r7, #12]
 80070fa:	681b      	ldr	r3, [r3, #0]
 80070fc:	6d19      	ldr	r1, [r3, #80]	; 0x50
 80070fe:	68bb      	ldr	r3, [r7, #8]
 8007100:	691a      	ldr	r2, [r3, #16]
 8007102:	68fb      	ldr	r3, [r7, #12]
 8007104:	681b      	ldr	r3, [r3, #0]
 8007106:	430a      	orrs	r2, r1
 8007108:	651a      	str	r2, [r3, #80]	; 0x50
 800710a:	e023      	b.n	8007154 <HAL_TIM_PWM_ConfigChannel+0x214>
 800710c:	68fb      	ldr	r3, [r7, #12]
 800710e:	681b      	ldr	r3, [r3, #0]
 8007110:	68b9      	ldr	r1, [r7, #8]
 8007112:	4618      	mov	r0, r3
 8007114:	f000 fc74 	bl	8007a00 <TIM_OC6_SetConfig>
 8007118:	68fb      	ldr	r3, [r7, #12]
 800711a:	681b      	ldr	r3, [r3, #0]
 800711c:	6d1a      	ldr	r2, [r3, #80]	; 0x50
 800711e:	68fb      	ldr	r3, [r7, #12]
 8007120:	681b      	ldr	r3, [r3, #0]
 8007122:	f442 6200 	orr.w	r2, r2, #2048	; 0x800
 8007126:	651a      	str	r2, [r3, #80]	; 0x50
 8007128:	68fb      	ldr	r3, [r7, #12]
 800712a:	681b      	ldr	r3, [r3, #0]
 800712c:	6d1a      	ldr	r2, [r3, #80]	; 0x50
 800712e:	68fb      	ldr	r3, [r7, #12]
 8007130:	681b      	ldr	r3, [r3, #0]
 8007132:	f422 6280 	bic.w	r2, r2, #1024	; 0x400
 8007136:	651a      	str	r2, [r3, #80]	; 0x50
 8007138:	68fb      	ldr	r3, [r7, #12]
 800713a:	681b      	ldr	r3, [r3, #0]
 800713c:	6d19      	ldr	r1, [r3, #80]	; 0x50
 800713e:	68bb      	ldr	r3, [r7, #8]
 8007140:	691b      	ldr	r3, [r3, #16]
 8007142:	021a      	lsls	r2, r3, #8
 8007144:	68fb      	ldr	r3, [r7, #12]
 8007146:	681b      	ldr	r3, [r3, #0]
 8007148:	430a      	orrs	r2, r1
 800714a:	651a      	str	r2, [r3, #80]	; 0x50
 800714c:	e002      	b.n	8007154 <HAL_TIM_PWM_ConfigChannel+0x214>
 800714e:	2301      	movs	r3, #1
 8007150:	75fb      	strb	r3, [r7, #23]
 8007152:	bf00      	nop
 8007154:	68fb      	ldr	r3, [r7, #12]
 8007156:	2200      	movs	r2, #0
 8007158:	f883 203c 	strb.w	r2, [r3, #60]	; 0x3c
 800715c:	7dfb      	ldrb	r3, [r7, #23]
 800715e:	4618      	mov	r0, r3
 8007160:	3718      	adds	r7, #24
 8007162:	46bd      	mov	sp, r7
 8007164:	bd80      	pop	{r7, pc}
 8007166:	bf00      	nop

08007168 <HAL_TIM_ConfigClockSource>:
 8007168:	b580      	push	{r7, lr}
 800716a:	b084      	sub	sp, #16
 800716c:	af00      	add	r7, sp, #0
 800716e:	6078      	str	r0, [r7, #4]
 8007170:	6039      	str	r1, [r7, #0]
 8007172:	2300      	movs	r3, #0
 8007174:	73fb      	strb	r3, [r7, #15]
 8007176:	687b      	ldr	r3, [r7, #4]
 8007178:	f893 303c 	ldrb.w	r3, [r3, #60]	; 0x3c
 800717c:	2b01      	cmp	r3, #1
 800717e:	d101      	bne.n	8007184 <HAL_TIM_ConfigClockSource+0x1c>
 8007180:	2302      	movs	r3, #2
 8007182:	e0de      	b.n	8007342 <HAL_TIM_ConfigClockSource+0x1da>
 8007184:	687b      	ldr	r3, [r7, #4]
 8007186:	2201      	movs	r2, #1
 8007188:	f883 203c 	strb.w	r2, [r3, #60]	; 0x3c
 800718c:	687b      	ldr	r3, [r7, #4]
 800718e:	2202      	movs	r2, #2
 8007190:	f883 203d 	strb.w	r2, [r3, #61]	; 0x3d
 8007194:	687b      	ldr	r3, [r7, #4]
 8007196:	681b      	ldr	r3, [r3, #0]
 8007198:	689b      	ldr	r3, [r3, #8]
 800719a:	60bb      	str	r3, [r7, #8]
 800719c:	68bb      	ldr	r3, [r7, #8]
 800719e:	f423 1344 	bic.w	r3, r3, #3211264	; 0x310000
 80071a2:	f023 0377 	bic.w	r3, r3, #119	; 0x77
 80071a6:	60bb      	str	r3, [r7, #8]
 80071a8:	68bb      	ldr	r3, [r7, #8]
 80071aa:	f423 437f 	bic.w	r3, r3, #65280	; 0xff00
 80071ae:	60bb      	str	r3, [r7, #8]
 80071b0:	687b      	ldr	r3, [r7, #4]
 80071b2:	681b      	ldr	r3, [r3, #0]
 80071b4:	68ba      	ldr	r2, [r7, #8]
 80071b6:	609a      	str	r2, [r3, #8]
 80071b8:	683b      	ldr	r3, [r7, #0]
 80071ba:	681b      	ldr	r3, [r3, #0]
 80071bc:	4a63      	ldr	r2, [pc, #396]	; (800734c <HAL_TIM_ConfigClockSource+0x1e4>)
 80071be:	4293      	cmp	r3, r2
 80071c0:	f000 80a9 	beq.w	8007316 <HAL_TIM_ConfigClockSource+0x1ae>
 80071c4:	4a61      	ldr	r2, [pc, #388]	; (800734c <HAL_TIM_ConfigClockSource+0x1e4>)
 80071c6:	4293      	cmp	r3, r2
 80071c8:	f200 80ae 	bhi.w	8007328 <HAL_TIM_ConfigClockSource+0x1c0>
 80071cc:	4a60      	ldr	r2, [pc, #384]	; (8007350 <HAL_TIM_ConfigClockSource+0x1e8>)
 80071ce:	4293      	cmp	r3, r2
 80071d0:	f000 80a1 	beq.w	8007316 <HAL_TIM_ConfigClockSource+0x1ae>
 80071d4:	4a5e      	ldr	r2, [pc, #376]	; (8007350 <HAL_TIM_ConfigClockSource+0x1e8>)
 80071d6:	4293      	cmp	r3, r2
 80071d8:	f200 80a6 	bhi.w	8007328 <HAL_TIM_ConfigClockSource+0x1c0>
 80071dc:	4a5d      	ldr	r2, [pc, #372]	; (8007354 <HAL_TIM_ConfigClockSource+0x1ec>)
 80071de:	4293      	cmp	r3, r2
 80071e0:	f000 8099 	beq.w	8007316 <HAL_TIM_ConfigClockSource+0x1ae>
 80071e4:	4a5b      	ldr	r2, [pc, #364]	; (8007354 <HAL_TIM_ConfigClockSource+0x1ec>)
 80071e6:	4293      	cmp	r3, r2
 80071e8:	f200 809e 	bhi.w	8007328 <HAL_TIM_ConfigClockSource+0x1c0>
 80071ec:	4a5a      	ldr	r2, [pc, #360]	; (8007358 <HAL_TIM_ConfigClockSource+0x1f0>)
 80071ee:	4293      	cmp	r3, r2
 80071f0:	f000 8091 	beq.w	8007316 <HAL_TIM_ConfigClockSource+0x1ae>
 80071f4:	4a58      	ldr	r2, [pc, #352]	; (8007358 <HAL_TIM_ConfigClockSource+0x1f0>)
 80071f6:	4293      	cmp	r3, r2
 80071f8:	f200 8096 	bhi.w	8007328 <HAL_TIM_ConfigClockSource+0x1c0>
 80071fc:	f1b3 1f10 	cmp.w	r3, #1048592	; 0x100010
 8007200:	f000 8089 	beq.w	8007316 <HAL_TIM_ConfigClockSource+0x1ae>
 8007204:	f1b3 1f10 	cmp.w	r3, #1048592	; 0x100010
 8007208:	f200 808e 	bhi.w	8007328 <HAL_TIM_ConfigClockSource+0x1c0>
 800720c:	f5b3 5f00 	cmp.w	r3, #8192	; 0x2000
 8007210:	d03e      	beq.n	8007290 <HAL_TIM_ConfigClockSource+0x128>
 8007212:	f5b3 5f00 	cmp.w	r3, #8192	; 0x2000
 8007216:	f200 8087 	bhi.w	8007328 <HAL_TIM_ConfigClockSource+0x1c0>
 800721a:	f5b3 5f80 	cmp.w	r3, #4096	; 0x1000
 800721e:	f000 8086 	beq.w	800732e <HAL_TIM_ConfigClockSource+0x1c6>
 8007222:	f5b3 5f80 	cmp.w	r3, #4096	; 0x1000
 8007226:	d87f      	bhi.n	8007328 <HAL_TIM_ConfigClockSource+0x1c0>
 8007228:	2b70      	cmp	r3, #112	; 0x70
 800722a:	d01a      	beq.n	8007262 <HAL_TIM_ConfigClockSource+0xfa>
 800722c:	2b70      	cmp	r3, #112	; 0x70
 800722e:	d87b      	bhi.n	8007328 <HAL_TIM_ConfigClockSource+0x1c0>
 8007230:	2b60      	cmp	r3, #96	; 0x60
 8007232:	d050      	beq.n	80072d6 <HAL_TIM_ConfigClockSource+0x16e>
 8007234:	2b60      	cmp	r3, #96	; 0x60
 8007236:	d877      	bhi.n	8007328 <HAL_TIM_ConfigClockSource+0x1c0>
 8007238:	2b50      	cmp	r3, #80	; 0x50
 800723a:	d03c      	beq.n	80072b6 <HAL_TIM_ConfigClockSource+0x14e>
 800723c:	2b50      	cmp	r3, #80	; 0x50
 800723e:	d873      	bhi.n	8007328 <HAL_TIM_ConfigClockSource+0x1c0>
 8007240:	2b40      	cmp	r3, #64	; 0x40
 8007242:	d058      	beq.n	80072f6 <HAL_TIM_ConfigClockSource+0x18e>
 8007244:	2b40      	cmp	r3, #64	; 0x40
 8007246:	d86f      	bhi.n	8007328 <HAL_TIM_ConfigClockSource+0x1c0>
 8007248:	2b30      	cmp	r3, #48	; 0x30
 800724a:	d064      	beq.n	8007316 <HAL_TIM_ConfigClockSource+0x1ae>
 800724c:	2b30      	cmp	r3, #48	; 0x30
 800724e:	d86b      	bhi.n	8007328 <HAL_TIM_ConfigClockSource+0x1c0>
 8007250:	2b20      	cmp	r3, #32
 8007252:	d060      	beq.n	8007316 <HAL_TIM_ConfigClockSource+0x1ae>
 8007254:	2b20      	cmp	r3, #32
 8007256:	d867      	bhi.n	8007328 <HAL_TIM_ConfigClockSource+0x1c0>
 8007258:	2b00      	cmp	r3, #0
 800725a:	d05c      	beq.n	8007316 <HAL_TIM_ConfigClockSource+0x1ae>
 800725c:	2b10      	cmp	r3, #16
 800725e:	d05a      	beq.n	8007316 <HAL_TIM_ConfigClockSource+0x1ae>
 8007260:	e062      	b.n	8007328 <HAL_TIM_ConfigClockSource+0x1c0>
 8007262:	687b      	ldr	r3, [r7, #4]
 8007264:	6818      	ldr	r0, [r3, #0]
 8007266:	683b      	ldr	r3, [r7, #0]
 8007268:	6899      	ldr	r1, [r3, #8]
 800726a:	683b      	ldr	r3, [r7, #0]
 800726c:	685a      	ldr	r2, [r3, #4]
 800726e:	683b      	ldr	r3, [r7, #0]
 8007270:	68db      	ldr	r3, [r3, #12]
 8007272:	f000 fca7 	bl	8007bc4 <TIM_ETR_SetConfig>
 8007276:	687b      	ldr	r3, [r7, #4]
 8007278:	681b      	ldr	r3, [r3, #0]
 800727a:	689b      	ldr	r3, [r3, #8]
 800727c:	60bb      	str	r3, [r7, #8]
 800727e:	68bb      	ldr	r3, [r7, #8]
 8007280:	f043 0377 	orr.w	r3, r3, #119	; 0x77
 8007284:	60bb      	str	r3, [r7, #8]
 8007286:	687b      	ldr	r3, [r7, #4]
 8007288:	681b      	ldr	r3, [r3, #0]
 800728a:	68ba      	ldr	r2, [r7, #8]
 800728c:	609a      	str	r2, [r3, #8]
 800728e:	e04f      	b.n	8007330 <HAL_TIM_ConfigClockSource+0x1c8>
 8007290:	687b      	ldr	r3, [r7, #4]
 8007292:	6818      	ldr	r0, [r3, #0]
 8007294:	683b      	ldr	r3, [r7, #0]
 8007296:	6899      	ldr	r1, [r3, #8]
 8007298:	683b      	ldr	r3, [r7, #0]
 800729a:	685a      	ldr	r2, [r3, #4]
 800729c:	683b      	ldr	r3, [r7, #0]
 800729e:	68db      	ldr	r3, [r3, #12]
 80072a0:	f000 fc90 	bl	8007bc4 <TIM_ETR_SetConfig>
 80072a4:	687b      	ldr	r3, [r7, #4]
 80072a6:	681b      	ldr	r3, [r3, #0]
 80072a8:	689a      	ldr	r2, [r3, #8]
 80072aa:	687b      	ldr	r3, [r7, #4]
 80072ac:	681b      	ldr	r3, [r3, #0]
 80072ae:	f442 4280 	orr.w	r2, r2, #16384	; 0x4000
 80072b2:	609a      	str	r2, [r3, #8]
 80072b4:	e03c      	b.n	8007330 <HAL_TIM_ConfigClockSource+0x1c8>
 80072b6:	687b      	ldr	r3, [r7, #4]
 80072b8:	6818      	ldr	r0, [r3, #0]
 80072ba:	683b      	ldr	r3, [r7, #0]
 80072bc:	6859      	ldr	r1, [r3, #4]
 80072be:	683b      	ldr	r3, [r7, #0]
 80072c0:	68db      	ldr	r3, [r3, #12]
 80072c2:	461a      	mov	r2, r3
 80072c4:	f000 fc02 	bl	8007acc <TIM_TI1_ConfigInputStage>
 80072c8:	687b      	ldr	r3, [r7, #4]
 80072ca:	681b      	ldr	r3, [r3, #0]
 80072cc:	2150      	movs	r1, #80	; 0x50
 80072ce:	4618      	mov	r0, r3
 80072d0:	f000 fc5b 	bl	8007b8a <TIM_ITRx_SetConfig>
 80072d4:	e02c      	b.n	8007330 <HAL_TIM_ConfigClockSource+0x1c8>
 80072d6:	687b      	ldr	r3, [r7, #4]
 80072d8:	6818      	ldr	r0, [r3, #0]
 80072da:	683b      	ldr	r3, [r7, #0]
 80072dc:	6859      	ldr	r1, [r3, #4]
 80072de:	683b      	ldr	r3, [r7, #0]
 80072e0:	68db      	ldr	r3, [r3, #12]
 80072e2:	461a      	mov	r2, r3
 80072e4:	f000 fc21 	bl	8007b2a <TIM_TI2_ConfigInputStage>
 80072e8:	687b      	ldr	r3, [r7, #4]
 80072ea:	681b      	ldr	r3, [r3, #0]
 80072ec:	2160      	movs	r1, #96	; 0x60
 80072ee:	4618      	mov	r0, r3
 80072f0:	f000 fc4b 	bl	8007b8a <TIM_ITRx_SetConfig>
 80072f4:	e01c      	b.n	8007330 <HAL_TIM_ConfigClockSource+0x1c8>
 80072f6:	687b      	ldr	r3, [r7, #4]
 80072f8:	6818      	ldr	r0, [r3, #0]
 80072fa:	683b      	ldr	r3, [r7, #0]
 80072fc:	6859      	ldr	r1, [r3, #4]
 80072fe:	683b      	ldr	r3, [r7, #0]
 8007300:	68db      	ldr	r3, [r3, #12]
 8007302:	461a      	mov	r2, r3
 8007304:	f000 fbe2 	bl	8007acc <TIM_TI1_ConfigInputStage>
 8007308:	687b      	ldr	r3, [r7, #4]
 800730a:	681b      	ldr	r3, [r3, #0]
 800730c:	2140      	movs	r1, #64	; 0x40
 800730e:	4618      	mov	r0, r3
 8007310:	f000 fc3b 	bl	8007b8a <TIM_ITRx_SetConfig>
 8007314:	e00c      	b.n	8007330 <HAL_TIM_ConfigClockSource+0x1c8>
 8007316:	687b      	ldr	r3, [r7, #4]
 8007318:	681a      	ldr	r2, [r3, #0]
 800731a:	683b      	ldr	r3, [r7, #0]
 800731c:	681b      	ldr	r3, [r3, #0]
 800731e:	4619      	mov	r1, r3
 8007320:	4610      	mov	r0, r2
 8007322:	f000 fc32 	bl	8007b8a <TIM_ITRx_SetConfig>
 8007326:	e003      	b.n	8007330 <HAL_TIM_ConfigClockSource+0x1c8>
 8007328:	2301      	movs	r3, #1
 800732a:	73fb      	strb	r3, [r7, #15]
 800732c:	e000      	b.n	8007330 <HAL_TIM_ConfigClockSource+0x1c8>
 800732e:	bf00      	nop
 8007330:	687b      	ldr	r3, [r7, #4]
 8007332:	2201      	movs	r2, #1
 8007334:	f883 203d 	strb.w	r2, [r3, #61]	; 0x3d
 8007338:	687b      	ldr	r3, [r7, #4]
 800733a:	2200      	movs	r2, #0
 800733c:	f883 203c 	strb.w	r2, [r3, #60]	; 0x3c
 8007340:	7bfb      	ldrb	r3, [r7, #15]
 8007342:	4618      	mov	r0, r3
 8007344:	3710      	adds	r7, #16
 8007346:	46bd      	mov	sp, r7
 8007348:	bd80      	pop	{r7, pc}
 800734a:	bf00      	nop
 800734c:	00100070 	.word	0x00100070
 8007350:	00100040 	.word	0x00100040
 8007354:	00100030 	.word	0x00100030
 8007358:	00100020 	.word	0x00100020

0800735c <HAL_TIM_PeriodElapsedCallback>:
 800735c:	b480      	push	{r7}
 800735e:	b083      	sub	sp, #12
 8007360:	af00      	add	r7, sp, #0
 8007362:	6078      	str	r0, [r7, #4]
 8007364:	bf00      	nop
 8007366:	370c      	adds	r7, #12
 8007368:	46bd      	mov	sp, r7
 800736a:	f85d 7b04 	ldr.w	r7, [sp], #4
 800736e:	4770      	bx	lr

08007370 <HAL_TIM_OC_DelayElapsedCallback>:
 8007370:	b480      	push	{r7}
 8007372:	b083      	sub	sp, #12
 8007374:	af00      	add	r7, sp, #0
 8007376:	6078      	str	r0, [r7, #4]
 8007378:	bf00      	nop
 800737a:	370c      	adds	r7, #12
 800737c:	46bd      	mov	sp, r7
 800737e:	f85d 7b04 	ldr.w	r7, [sp], #4
 8007382:	4770      	bx	lr

08007384 <HAL_TIM_IC_CaptureCallback>:
 8007384:	b480      	push	{r7}
 8007386:	b083      	sub	sp, #12
 8007388:	af00      	add	r7, sp, #0
 800738a:	6078      	str	r0, [r7, #4]
 800738c:	bf00      	nop
 800738e:	370c      	adds	r7, #12
 8007390:	46bd      	mov	sp, r7
 8007392:	f85d 7b04 	ldr.w	r7, [sp], #4
 8007396:	4770      	bx	lr

08007398 <HAL_TIM_PWM_PulseFinishedCallback>:
 8007398:	b480      	push	{r7}
 800739a:	b083      	sub	sp, #12
 800739c:	af00      	add	r7, sp, #0
 800739e:	6078      	str	r0, [r7, #4]
 80073a0:	bf00      	nop
 80073a2:	370c      	adds	r7, #12
 80073a4:	46bd      	mov	sp, r7
 80073a6:	f85d 7b04 	ldr.w	r7, [sp], #4
 80073aa:	4770      	bx	lr

080073ac <HAL_TIM_TriggerCallback>:
 80073ac:	b480      	push	{r7}
 80073ae:	b083      	sub	sp, #12
 80073b0:	af00      	add	r7, sp, #0
 80073b2:	6078      	str	r0, [r7, #4]
 80073b4:	bf00      	nop
 80073b6:	370c      	adds	r7, #12
 80073b8:	46bd      	mov	sp, r7
 80073ba:	f85d 7b04 	ldr.w	r7, [sp], #4
 80073be:	4770      	bx	lr

080073c0 <TIM_Base_SetConfig>:
 80073c0:	b480      	push	{r7}
 80073c2:	b085      	sub	sp, #20
 80073c4:	af00      	add	r7, sp, #0
 80073c6:	6078      	str	r0, [r7, #4]
 80073c8:	6039      	str	r1, [r7, #0]
 80073ca:	687b      	ldr	r3, [r7, #4]
 80073cc:	681b      	ldr	r3, [r3, #0]
 80073ce:	60fb      	str	r3, [r7, #12]
 80073d0:	687b      	ldr	r3, [r7, #4]
 80073d2:	4a3c      	ldr	r2, [pc, #240]	; (80074c4 <TIM_Base_SetConfig+0x104>)
 80073d4:	4293      	cmp	r3, r2
 80073d6:	d00f      	beq.n	80073f8 <TIM_Base_SetConfig+0x38>
 80073d8:	687b      	ldr	r3, [r7, #4]
 80073da:	f1b3 4f80 	cmp.w	r3, #1073741824	; 0x40000000
 80073de:	d00b      	beq.n	80073f8 <TIM_Base_SetConfig+0x38>
 80073e0:	687b      	ldr	r3, [r7, #4]
 80073e2:	4a39      	ldr	r2, [pc, #228]	; (80074c8 <TIM_Base_SetConfig+0x108>)
 80073e4:	4293      	cmp	r3, r2
 80073e6:	d007      	beq.n	80073f8 <TIM_Base_SetConfig+0x38>
 80073e8:	687b      	ldr	r3, [r7, #4]
 80073ea:	4a38      	ldr	r2, [pc, #224]	; (80074cc <TIM_Base_SetConfig+0x10c>)
 80073ec:	4293      	cmp	r3, r2
 80073ee:	d003      	beq.n	80073f8 <TIM_Base_SetConfig+0x38>
 80073f0:	687b      	ldr	r3, [r7, #4]
 80073f2:	4a37      	ldr	r2, [pc, #220]	; (80074d0 <TIM_Base_SetConfig+0x110>)
 80073f4:	4293      	cmp	r3, r2
 80073f6:	d108      	bne.n	800740a <TIM_Base_SetConfig+0x4a>
 80073f8:	68fb      	ldr	r3, [r7, #12]
 80073fa:	f023 0370 	bic.w	r3, r3, #112	; 0x70
 80073fe:	60fb      	str	r3, [r7, #12]
 8007400:	683b      	ldr	r3, [r7, #0]
 8007402:	685b      	ldr	r3, [r3, #4]
 8007404:	68fa      	ldr	r2, [r7, #12]
 8007406:	4313      	orrs	r3, r2
 8007408:	60fb      	str	r3, [r7, #12]
 800740a:	687b      	ldr	r3, [r7, #4]
 800740c:	4a2d      	ldr	r2, [pc, #180]	; (80074c4 <TIM_Base_SetConfig+0x104>)
 800740e:	4293      	cmp	r3, r2
 8007410:	d01b      	beq.n	800744a <TIM_Base_SetConfig+0x8a>
 8007412:	687b      	ldr	r3, [r7, #4]
 8007414:	f1b3 4f80 	cmp.w	r3, #1073741824	; 0x40000000
 8007418:	d017      	beq.n	800744a <TIM_Base_SetConfig+0x8a>
 800741a:	687b      	ldr	r3, [r7, #4]
 800741c:	4a2a      	ldr	r2, [pc, #168]	; (80074c8 <TIM_Base_SetConfig+0x108>)
 800741e:	4293      	cmp	r3, r2
 8007420:	d013      	beq.n	800744a <TIM_Base_SetConfig+0x8a>
 8007422:	687b      	ldr	r3, [r7, #4]
 8007424:	4a29      	ldr	r2, [pc, #164]	; (80074cc <TIM_Base_SetConfig+0x10c>)
 8007426:	4293      	cmp	r3, r2
 8007428:	d00f      	beq.n	800744a <TIM_Base_SetConfig+0x8a>
 800742a:	687b      	ldr	r3, [r7, #4]
 800742c:	4a28      	ldr	r2, [pc, #160]	; (80074d0 <TIM_Base_SetConfig+0x110>)
 800742e:	4293      	cmp	r3, r2
 8007430:	d00b      	beq.n	800744a <TIM_Base_SetConfig+0x8a>
 8007432:	687b      	ldr	r3, [r7, #4]
 8007434:	4a27      	ldr	r2, [pc, #156]	; (80074d4 <TIM_Base_SetConfig+0x114>)
 8007436:	4293      	cmp	r3, r2
 8007438:	d007      	beq.n	800744a <TIM_Base_SetConfig+0x8a>
 800743a:	687b      	ldr	r3, [r7, #4]
 800743c:	4a26      	ldr	r2, [pc, #152]	; (80074d8 <TIM_Base_SetConfig+0x118>)
 800743e:	4293      	cmp	r3, r2
 8007440:	d003      	beq.n	800744a <TIM_Base_SetConfig+0x8a>
 8007442:	687b      	ldr	r3, [r7, #4]
 8007444:	4a25      	ldr	r2, [pc, #148]	; (80074dc <TIM_Base_SetConfig+0x11c>)
 8007446:	4293      	cmp	r3, r2
 8007448:	d108      	bne.n	800745c <TIM_Base_SetConfig+0x9c>
 800744a:	68fb      	ldr	r3, [r7, #12]
 800744c:	f423 7340 	bic.w	r3, r3, #768	; 0x300
 8007450:	60fb      	str	r3, [r7, #12]
 8007452:	683b      	ldr	r3, [r7, #0]
 8007454:	68db      	ldr	r3, [r3, #12]
 8007456:	68fa      	ldr	r2, [r7, #12]
 8007458:	4313      	orrs	r3, r2
 800745a:	60fb      	str	r3, [r7, #12]
 800745c:	68fb      	ldr	r3, [r7, #12]
 800745e:	f023 0280 	bic.w	r2, r3, #128	; 0x80
 8007462:	683b      	ldr	r3, [r7, #0]
 8007464:	695b      	ldr	r3, [r3, #20]
 8007466:	4313      	orrs	r3, r2
 8007468:	60fb      	str	r3, [r7, #12]
 800746a:	687b      	ldr	r3, [r7, #4]
 800746c:	68fa      	ldr	r2, [r7, #12]
 800746e:	601a      	str	r2, [r3, #0]
 8007470:	683b      	ldr	r3, [r7, #0]
 8007472:	689a      	ldr	r2, [r3, #8]
 8007474:	687b      	ldr	r3, [r7, #4]
 8007476:	62da      	str	r2, [r3, #44]	; 0x2c
 8007478:	683b      	ldr	r3, [r7, #0]
 800747a:	681a      	ldr	r2, [r3, #0]
 800747c:	687b      	ldr	r3, [r7, #4]
 800747e:	629a      	str	r2, [r3, #40]	; 0x28
 8007480:	687b      	ldr	r3, [r7, #4]
 8007482:	4a10      	ldr	r2, [pc, #64]	; (80074c4 <TIM_Base_SetConfig+0x104>)
 8007484:	4293      	cmp	r3, r2
 8007486:	d00f      	beq.n	80074a8 <TIM_Base_SetConfig+0xe8>
 8007488:	687b      	ldr	r3, [r7, #4]
 800748a:	4a11      	ldr	r2, [pc, #68]	; (80074d0 <TIM_Base_SetConfig+0x110>)
 800748c:	4293      	cmp	r3, r2
 800748e:	d00b      	beq.n	80074a8 <TIM_Base_SetConfig+0xe8>
 8007490:	687b      	ldr	r3, [r7, #4]
 8007492:	4a10      	ldr	r2, [pc, #64]	; (80074d4 <TIM_Base_SetConfig+0x114>)
 8007494:	4293      	cmp	r3, r2
 8007496:	d007      	beq.n	80074a8 <TIM_Base_SetConfig+0xe8>
 8007498:	687b      	ldr	r3, [r7, #4]
 800749a:	4a0f      	ldr	r2, [pc, #60]	; (80074d8 <TIM_Base_SetConfig+0x118>)
 800749c:	4293      	cmp	r3, r2
 800749e:	d003      	beq.n	80074a8 <TIM_Base_SetConfig+0xe8>
 80074a0:	687b      	ldr	r3, [r7, #4]
 80074a2:	4a0e      	ldr	r2, [pc, #56]	; (80074dc <TIM_Base_SetConfig+0x11c>)
 80074a4:	4293      	cmp	r3, r2
 80074a6:	d103      	bne.n	80074b0 <TIM_Base_SetConfig+0xf0>
 80074a8:	683b      	ldr	r3, [r7, #0]
 80074aa:	691a      	ldr	r2, [r3, #16]
 80074ac:	687b      	ldr	r3, [r7, #4]
 80074ae:	631a      	str	r2, [r3, #48]	; 0x30
 80074b0:	687b      	ldr	r3, [r7, #4]
 80074b2:	2201      	movs	r2, #1
 80074b4:	615a      	str	r2, [r3, #20]
 80074b6:	bf00      	nop
 80074b8:	3714      	adds	r7, #20
 80074ba:	46bd      	mov	sp, r7
 80074bc:	f85d 7b04 	ldr.w	r7, [sp], #4
 80074c0:	4770      	bx	lr
 80074c2:	bf00      	nop
 80074c4:	40012c00 	.word	0x40012c00
 80074c8:	40000400 	.word	0x40000400
 80074cc:	40000800 	.word	0x40000800
 80074d0:	40013400 	.word	0x40013400
 80074d4:	40014000 	.word	0x40014000
 80074d8:	40014400 	.word	0x40014400
 80074dc:	40014800 	.word	0x40014800

080074e0 <TIM_OC1_SetConfig>:
 80074e0:	b480      	push	{r7}
 80074e2:	b087      	sub	sp, #28
 80074e4:	af00      	add	r7, sp, #0
 80074e6:	6078      	str	r0, [r7, #4]
 80074e8:	6039      	str	r1, [r7, #0]
 80074ea:	687b      	ldr	r3, [r7, #4]
 80074ec:	6a1b      	ldr	r3, [r3, #32]
 80074ee:	f023 0201 	bic.w	r2, r3, #1
 80074f2:	687b      	ldr	r3, [r7, #4]
 80074f4:	621a      	str	r2, [r3, #32]
 80074f6:	687b      	ldr	r3, [r7, #4]
 80074f8:	6a1b      	ldr	r3, [r3, #32]
 80074fa:	617b      	str	r3, [r7, #20]
 80074fc:	687b      	ldr	r3, [r7, #4]
 80074fe:	685b      	ldr	r3, [r3, #4]
 8007500:	613b      	str	r3, [r7, #16]
 8007502:	687b      	ldr	r3, [r7, #4]
 8007504:	699b      	ldr	r3, [r3, #24]
 8007506:	60fb      	str	r3, [r7, #12]
 8007508:	68fb      	ldr	r3, [r7, #12]
 800750a:	f423 3380 	bic.w	r3, r3, #65536	; 0x10000
 800750e:	f023 0370 	bic.w	r3, r3, #112	; 0x70
 8007512:	60fb      	str	r3, [r7, #12]
 8007514:	68fb      	ldr	r3, [r7, #12]
 8007516:	f023 0303 	bic.w	r3, r3, #3
 800751a:	60fb      	str	r3, [r7, #12]
 800751c:	683b      	ldr	r3, [r7, #0]
 800751e:	681b      	ldr	r3, [r3, #0]
 8007520:	68fa      	ldr	r2, [r7, #12]
 8007522:	4313      	orrs	r3, r2
 8007524:	60fb      	str	r3, [r7, #12]
 8007526:	697b      	ldr	r3, [r7, #20]
 8007528:	f023 0302 	bic.w	r3, r3, #2
 800752c:	617b      	str	r3, [r7, #20]
 800752e:	683b      	ldr	r3, [r7, #0]
 8007530:	689b      	ldr	r3, [r3, #8]
 8007532:	697a      	ldr	r2, [r7, #20]
 8007534:	4313      	orrs	r3, r2
 8007536:	617b      	str	r3, [r7, #20]
 8007538:	687b      	ldr	r3, [r7, #4]
 800753a:	4a2c      	ldr	r2, [pc, #176]	; (80075ec <TIM_OC1_SetConfig+0x10c>)
 800753c:	4293      	cmp	r3, r2
 800753e:	d00f      	beq.n	8007560 <TIM_OC1_SetConfig+0x80>
 8007540:	687b      	ldr	r3, [r7, #4]
 8007542:	4a2b      	ldr	r2, [pc, #172]	; (80075f0 <TIM_OC1_SetConfig+0x110>)
 8007544:	4293      	cmp	r3, r2
 8007546:	d00b      	beq.n	8007560 <TIM_OC1_SetConfig+0x80>
 8007548:	687b      	ldr	r3, [r7, #4]
 800754a:	4a2a      	ldr	r2, [pc, #168]	; (80075f4 <TIM_OC1_SetConfig+0x114>)
 800754c:	4293      	cmp	r3, r2
 800754e:	d007      	beq.n	8007560 <TIM_OC1_SetConfig+0x80>
 8007550:	687b      	ldr	r3, [r7, #4]
 8007552:	4a29      	ldr	r2, [pc, #164]	; (80075f8 <TIM_OC1_SetConfig+0x118>)
 8007554:	4293      	cmp	r3, r2
 8007556:	d003      	beq.n	8007560 <TIM_OC1_SetConfig+0x80>
 8007558:	687b      	ldr	r3, [r7, #4]
 800755a:	4a28      	ldr	r2, [pc, #160]	; (80075fc <TIM_OC1_SetConfig+0x11c>)
 800755c:	4293      	cmp	r3, r2
 800755e:	d10c      	bne.n	800757a <TIM_OC1_SetConfig+0x9a>
 8007560:	697b      	ldr	r3, [r7, #20]
 8007562:	f023 0308 	bic.w	r3, r3, #8
 8007566:	617b      	str	r3, [r7, #20]
 8007568:	683b      	ldr	r3, [r7, #0]
 800756a:	68db      	ldr	r3, [r3, #12]
 800756c:	697a      	ldr	r2, [r7, #20]
 800756e:	4313      	orrs	r3, r2
 8007570:	617b      	str	r3, [r7, #20]
 8007572:	697b      	ldr	r3, [r7, #20]
 8007574:	f023 0304 	bic.w	r3, r3, #4
 8007578:	617b      	str	r3, [r7, #20]
 800757a:	687b      	ldr	r3, [r7, #4]
 800757c:	4a1b      	ldr	r2, [pc, #108]	; (80075ec <TIM_OC1_SetConfig+0x10c>)
 800757e:	4293      	cmp	r3, r2
 8007580:	d00f      	beq.n	80075a2 <TIM_OC1_SetConfig+0xc2>
 8007582:	687b      	ldr	r3, [r7, #4]
 8007584:	4a1a      	ldr	r2, [pc, #104]	; (80075f0 <TIM_OC1_SetConfig+0x110>)
 8007586:	4293      	cmp	r3, r2
 8007588:	d00b      	beq.n	80075a2 <TIM_OC1_SetConfig+0xc2>
 800758a:	687b      	ldr	r3, [r7, #4]
 800758c:	4a19      	ldr	r2, [pc, #100]	; (80075f4 <TIM_OC1_SetConfig+0x114>)
 800758e:	4293      	cmp	r3, r2
 8007590:	d007      	beq.n	80075a2 <TIM_OC1_SetConfig+0xc2>
 8007592:	687b      	ldr	r3, [r7, #4]
 8007594:	4a18      	ldr	r2, [pc, #96]	; (80075f8 <TIM_OC1_SetConfig+0x118>)
 8007596:	4293      	cmp	r3, r2
 8007598:	d003      	beq.n	80075a2 <TIM_OC1_SetConfig+0xc2>
 800759a:	687b      	ldr	r3, [r7, #4]
 800759c:	4a17      	ldr	r2, [pc, #92]	; (80075fc <TIM_OC1_SetConfig+0x11c>)
 800759e:	4293      	cmp	r3, r2
 80075a0:	d111      	bne.n	80075c6 <TIM_OC1_SetConfig+0xe6>
 80075a2:	693b      	ldr	r3, [r7, #16]
 80075a4:	f423 7380 	bic.w	r3, r3, #256	; 0x100
 80075a8:	613b      	str	r3, [r7, #16]
 80075aa:	693b      	ldr	r3, [r7, #16]
 80075ac:	f423 7300 	bic.w	r3, r3, #512	; 0x200
 80075b0:	613b      	str	r3, [r7, #16]
 80075b2:	683b      	ldr	r3, [r7, #0]
 80075b4:	695b      	ldr	r3, [r3, #20]
 80075b6:	693a      	ldr	r2, [r7, #16]
 80075b8:	4313      	orrs	r3, r2
 80075ba:	613b      	str	r3, [r7, #16]
 80075bc:	683b      	ldr	r3, [r7, #0]
 80075be:	699b      	ldr	r3, [r3, #24]
 80075c0:	693a      	ldr	r2, [r7, #16]
 80075c2:	4313      	orrs	r3, r2
 80075c4:	613b      	str	r3, [r7, #16]
 80075c6:	687b      	ldr	r3, [r7, #4]
 80075c8:	693a      	ldr	r2, [r7, #16]
 80075ca:	605a      	str	r2, [r3, #4]
 80075cc:	687b      	ldr	r3, [r7, #4]
 80075ce:	68fa      	ldr	r2, [r7, #12]
 80075d0:	619a      	str	r2, [r3, #24]
 80075d2:	683b      	ldr	r3, [r7, #0]
 80075d4:	685a      	ldr	r2, [r3, #4]
 80075d6:	687b      	ldr	r3, [r7, #4]
 80075d8:	635a      	str	r2, [r3, #52]	; 0x34
 80075da:	687b      	ldr	r3, [r7, #4]
 80075dc:	697a      	ldr	r2, [r7, #20]
 80075de:	621a      	str	r2, [r3, #32]
 80075e0:	bf00      	nop
 80075e2:	371c      	adds	r7, #28
 80075e4:	46bd      	mov	sp, r7
 80075e6:	f85d 7b04 	ldr.w	r7, [sp], #4
 80075ea:	4770      	bx	lr
 80075ec:	40012c00 	.word	0x40012c00
 80075f0:	40013400 	.word	0x40013400
 80075f4:	40014000 	.word	0x40014000
 80075f8:	40014400 	.word	0x40014400
 80075fc:	40014800 	.word	0x40014800

08007600 <TIM_OC2_SetConfig>:
 8007600:	b480      	push	{r7}
 8007602:	b087      	sub	sp, #28
 8007604:	af00      	add	r7, sp, #0
 8007606:	6078      	str	r0, [r7, #4]
 8007608:	6039      	str	r1, [r7, #0]
 800760a:	687b      	ldr	r3, [r7, #4]
 800760c:	6a1b      	ldr	r3, [r3, #32]
 800760e:	f023 0210 	bic.w	r2, r3, #16
 8007612:	687b      	ldr	r3, [r7, #4]
 8007614:	621a      	str	r2, [r3, #32]
 8007616:	687b      	ldr	r3, [r7, #4]
 8007618:	6a1b      	ldr	r3, [r3, #32]
 800761a:	617b      	str	r3, [r7, #20]
 800761c:	687b      	ldr	r3, [r7, #4]
 800761e:	685b      	ldr	r3, [r3, #4]
 8007620:	613b      	str	r3, [r7, #16]
 8007622:	687b      	ldr	r3, [r7, #4]
 8007624:	699b      	ldr	r3, [r3, #24]
 8007626:	60fb      	str	r3, [r7, #12]
 8007628:	68fb      	ldr	r3, [r7, #12]
 800762a:	f023 7380 	bic.w	r3, r3, #16777216	; 0x1000000
 800762e:	f423 43e0 	bic.w	r3, r3, #28672	; 0x7000
 8007632:	60fb      	str	r3, [r7, #12]
 8007634:	68fb      	ldr	r3, [r7, #12]
 8007636:	f423 7340 	bic.w	r3, r3, #768	; 0x300
 800763a:	60fb      	str	r3, [r7, #12]
 800763c:	683b      	ldr	r3, [r7, #0]
 800763e:	681b      	ldr	r3, [r3, #0]
 8007640:	021b      	lsls	r3, r3, #8
 8007642:	68fa      	ldr	r2, [r7, #12]
 8007644:	4313      	orrs	r3, r2
 8007646:	60fb      	str	r3, [r7, #12]
 8007648:	697b      	ldr	r3, [r7, #20]
 800764a:	f023 0320 	bic.w	r3, r3, #32
 800764e:	617b      	str	r3, [r7, #20]
 8007650:	683b      	ldr	r3, [r7, #0]
 8007652:	689b      	ldr	r3, [r3, #8]
 8007654:	011b      	lsls	r3, r3, #4
 8007656:	697a      	ldr	r2, [r7, #20]
 8007658:	4313      	orrs	r3, r2
 800765a:	617b      	str	r3, [r7, #20]
 800765c:	687b      	ldr	r3, [r7, #4]
 800765e:	4a28      	ldr	r2, [pc, #160]	; (8007700 <TIM_OC2_SetConfig+0x100>)
 8007660:	4293      	cmp	r3, r2
 8007662:	d003      	beq.n	800766c <TIM_OC2_SetConfig+0x6c>
 8007664:	687b      	ldr	r3, [r7, #4]
 8007666:	4a27      	ldr	r2, [pc, #156]	; (8007704 <TIM_OC2_SetConfig+0x104>)
 8007668:	4293      	cmp	r3, r2
 800766a:	d10d      	bne.n	8007688 <TIM_OC2_SetConfig+0x88>
 800766c:	697b      	ldr	r3, [r7, #20]
 800766e:	f023 0380 	bic.w	r3, r3, #128	; 0x80
 8007672:	617b      	str	r3, [r7, #20]
 8007674:	683b      	ldr	r3, [r7, #0]
 8007676:	68db      	ldr	r3, [r3, #12]
 8007678:	011b      	lsls	r3, r3, #4
 800767a:	697a      	ldr	r2, [r7, #20]
 800767c:	4313      	orrs	r3, r2
 800767e:	617b      	str	r3, [r7, #20]
 8007680:	697b      	ldr	r3, [r7, #20]
 8007682:	f023 0340 	bic.w	r3, r3, #64	; 0x40
 8007686:	617b      	str	r3, [r7, #20]
 8007688:	687b      	ldr	r3, [r7, #4]
 800768a:	4a1d      	ldr	r2, [pc, #116]	; (8007700 <TIM_OC2_SetConfig+0x100>)
 800768c:	4293      	cmp	r3, r2
 800768e:	d00f      	beq.n	80076b0 <TIM_OC2_SetConfig+0xb0>
 8007690:	687b      	ldr	r3, [r7, #4]
 8007692:	4a1c      	ldr	r2, [pc, #112]	; (8007704 <TIM_OC2_SetConfig+0x104>)
 8007694:	4293      	cmp	r3, r2
 8007696:	d00b      	beq.n	80076b0 <TIM_OC2_SetConfig+0xb0>
 8007698:	687b      	ldr	r3, [r7, #4]
 800769a:	4a1b      	ldr	r2, [pc, #108]	; (8007708 <TIM_OC2_SetConfig+0x108>)
 800769c:	4293      	cmp	r3, r2
 800769e:	d007      	beq.n	80076b0 <TIM_OC2_SetConfig+0xb0>
 80076a0:	687b      	ldr	r3, [r7, #4]
 80076a2:	4a1a      	ldr	r2, [pc, #104]	; (800770c <TIM_OC2_SetConfig+0x10c>)
 80076a4:	4293      	cmp	r3, r2
 80076a6:	d003      	beq.n	80076b0 <TIM_OC2_SetConfig+0xb0>
 80076a8:	687b      	ldr	r3, [r7, #4]
 80076aa:	4a19      	ldr	r2, [pc, #100]	; (8007710 <TIM_OC2_SetConfig+0x110>)
 80076ac:	4293      	cmp	r3, r2
 80076ae:	d113      	bne.n	80076d8 <TIM_OC2_SetConfig+0xd8>
 80076b0:	693b      	ldr	r3, [r7, #16]
 80076b2:	f423 6380 	bic.w	r3, r3, #1024	; 0x400
 80076b6:	613b      	str	r3, [r7, #16]
 80076b8:	693b      	ldr	r3, [r7, #16]
 80076ba:	f423 6300 	bic.w	r3, r3, #2048	; 0x800
 80076be:	613b      	str	r3, [r7, #16]
 80076c0:	683b      	ldr	r3, [r7, #0]
 80076c2:	695b      	ldr	r3, [r3, #20]
 80076c4:	009b      	lsls	r3, r3, #2
 80076c6:	693a      	ldr	r2, [r7, #16]
 80076c8:	4313      	orrs	r3, r2
 80076ca:	613b      	str	r3, [r7, #16]
 80076cc:	683b      	ldr	r3, [r7, #0]
 80076ce:	699b      	ldr	r3, [r3, #24]
 80076d0:	009b      	lsls	r3, r3, #2
 80076d2:	693a      	ldr	r2, [r7, #16]
 80076d4:	4313      	orrs	r3, r2
 80076d6:	613b      	str	r3, [r7, #16]
 80076d8:	687b      	ldr	r3, [r7, #4]
 80076da:	693a      	ldr	r2, [r7, #16]
 80076dc:	605a      	str	r2, [r3, #4]
 80076de:	687b      	ldr	r3, [r7, #4]
 80076e0:	68fa      	ldr	r2, [r7, #12]
 80076e2:	619a      	str	r2, [r3, #24]
 80076e4:	683b      	ldr	r3, [r7, #0]
 80076e6:	685a      	ldr	r2, [r3, #4]
 80076e8:	687b      	ldr	r3, [r7, #4]
 80076ea:	639a      	str	r2, [r3, #56]	; 0x38
 80076ec:	687b      	ldr	r3, [r7, #4]
 80076ee:	697a      	ldr	r2, [r7, #20]
 80076f0:	621a      	str	r2, [r3, #32]
 80076f2:	bf00      	nop
 80076f4:	371c      	adds	r7, #28
 80076f6:	46bd      	mov	sp, r7
 80076f8:	f85d 7b04 	ldr.w	r7, [sp], #4
 80076fc:	4770      	bx	lr
 80076fe:	bf00      	nop
 8007700:	40012c00 	.word	0x40012c00
 8007704:	40013400 	.word	0x40013400
 8007708:	40014000 	.word	0x40014000
 800770c:	40014400 	.word	0x40014400
 8007710:	40014800 	.word	0x40014800

08007714 <TIM_OC3_SetConfig>:
 8007714:	b480      	push	{r7}
 8007716:	b087      	sub	sp, #28
 8007718:	af00      	add	r7, sp, #0
 800771a:	6078      	str	r0, [r7, #4]
 800771c:	6039      	str	r1, [r7, #0]
 800771e:	687b      	ldr	r3, [r7, #4]
 8007720:	6a1b      	ldr	r3, [r3, #32]
 8007722:	f423 7280 	bic.w	r2, r3, #256	; 0x100
 8007726:	687b      	ldr	r3, [r7, #4]
 8007728:	621a      	str	r2, [r3, #32]
 800772a:	687b      	ldr	r3, [r7, #4]
 800772c:	6a1b      	ldr	r3, [r3, #32]
 800772e:	617b      	str	r3, [r7, #20]
 8007730:	687b      	ldr	r3, [r7, #4]
 8007732:	685b      	ldr	r3, [r3, #4]
 8007734:	613b      	str	r3, [r7, #16]
 8007736:	687b      	ldr	r3, [r7, #4]
 8007738:	69db      	ldr	r3, [r3, #28]
 800773a:	60fb      	str	r3, [r7, #12]
 800773c:	68fb      	ldr	r3, [r7, #12]
 800773e:	f423 3380 	bic.w	r3, r3, #65536	; 0x10000
 8007742:	f023 0370 	bic.w	r3, r3, #112	; 0x70
 8007746:	60fb      	str	r3, [r7, #12]
 8007748:	68fb      	ldr	r3, [r7, #12]
 800774a:	f023 0303 	bic.w	r3, r3, #3
 800774e:	60fb      	str	r3, [r7, #12]
 8007750:	683b      	ldr	r3, [r7, #0]
 8007752:	681b      	ldr	r3, [r3, #0]
 8007754:	68fa      	ldr	r2, [r7, #12]
 8007756:	4313      	orrs	r3, r2
 8007758:	60fb      	str	r3, [r7, #12]
 800775a:	697b      	ldr	r3, [r7, #20]
 800775c:	f423 7300 	bic.w	r3, r3, #512	; 0x200
 8007760:	617b      	str	r3, [r7, #20]
 8007762:	683b      	ldr	r3, [r7, #0]
 8007764:	689b      	ldr	r3, [r3, #8]
 8007766:	021b      	lsls	r3, r3, #8
 8007768:	697a      	ldr	r2, [r7, #20]
 800776a:	4313      	orrs	r3, r2
 800776c:	617b      	str	r3, [r7, #20]
 800776e:	687b      	ldr	r3, [r7, #4]
 8007770:	4a27      	ldr	r2, [pc, #156]	; (8007810 <TIM_OC3_SetConfig+0xfc>)
 8007772:	4293      	cmp	r3, r2
 8007774:	d003      	beq.n	800777e <TIM_OC3_SetConfig+0x6a>
 8007776:	687b      	ldr	r3, [r7, #4]
 8007778:	4a26      	ldr	r2, [pc, #152]	; (8007814 <TIM_OC3_SetConfig+0x100>)
 800777a:	4293      	cmp	r3, r2
 800777c:	d10d      	bne.n	800779a <TIM_OC3_SetConfig+0x86>
 800777e:	697b      	ldr	r3, [r7, #20]
 8007780:	f423 6300 	bic.w	r3, r3, #2048	; 0x800
 8007784:	617b      	str	r3, [r7, #20]
 8007786:	683b      	ldr	r3, [r7, #0]
 8007788:	68db      	ldr	r3, [r3, #12]
 800778a:	021b      	lsls	r3, r3, #8
 800778c:	697a      	ldr	r2, [r7, #20]
 800778e:	4313      	orrs	r3, r2
 8007790:	617b      	str	r3, [r7, #20]
 8007792:	697b      	ldr	r3, [r7, #20]
 8007794:	f423 6380 	bic.w	r3, r3, #1024	; 0x400
 8007798:	617b      	str	r3, [r7, #20]
 800779a:	687b      	ldr	r3, [r7, #4]
 800779c:	4a1c      	ldr	r2, [pc, #112]	; (8007810 <TIM_OC3_SetConfig+0xfc>)
 800779e:	4293      	cmp	r3, r2
 80077a0:	d00f      	beq.n	80077c2 <TIM_OC3_SetConfig+0xae>
 80077a2:	687b      	ldr	r3, [r7, #4]
 80077a4:	4a1b      	ldr	r2, [pc, #108]	; (8007814 <TIM_OC3_SetConfig+0x100>)
 80077a6:	4293      	cmp	r3, r2
 80077a8:	d00b      	beq.n	80077c2 <TIM_OC3_SetConfig+0xae>
 80077aa:	687b      	ldr	r3, [r7, #4]
 80077ac:	4a1a      	ldr	r2, [pc, #104]	; (8007818 <TIM_OC3_SetConfig+0x104>)
 80077ae:	4293      	cmp	r3, r2
 80077b0:	d007      	beq.n	80077c2 <TIM_OC3_SetConfig+0xae>
 80077b2:	687b      	ldr	r3, [r7, #4]
 80077b4:	4a19      	ldr	r2, [pc, #100]	; (800781c <TIM_OC3_SetConfig+0x108>)
 80077b6:	4293      	cmp	r3, r2
 80077b8:	d003      	beq.n	80077c2 <TIM_OC3_SetConfig+0xae>
 80077ba:	687b      	ldr	r3, [r7, #4]
 80077bc:	4a18      	ldr	r2, [pc, #96]	; (8007820 <TIM_OC3_SetConfig+0x10c>)
 80077be:	4293      	cmp	r3, r2
 80077c0:	d113      	bne.n	80077ea <TIM_OC3_SetConfig+0xd6>
 80077c2:	693b      	ldr	r3, [r7, #16]
 80077c4:	f423 5380 	bic.w	r3, r3, #4096	; 0x1000
 80077c8:	613b      	str	r3, [r7, #16]
 80077ca:	693b      	ldr	r3, [r7, #16]
 80077cc:	f423 5300 	bic.w	r3, r3, #8192	; 0x2000
 80077d0:	613b      	str	r3, [r7, #16]
 80077d2:	683b      	ldr	r3, [r7, #0]
 80077d4:	695b      	ldr	r3, [r3, #20]
 80077d6:	011b      	lsls	r3, r3, #4
 80077d8:	693a      	ldr	r2, [r7, #16]
 80077da:	4313      	orrs	r3, r2
 80077dc:	613b      	str	r3, [r7, #16]
 80077de:	683b      	ldr	r3, [r7, #0]
 80077e0:	699b      	ldr	r3, [r3, #24]
 80077e2:	011b      	lsls	r3, r3, #4
 80077e4:	693a      	ldr	r2, [r7, #16]
 80077e6:	4313      	orrs	r3, r2
 80077e8:	613b      	str	r3, [r7, #16]
 80077ea:	687b      	ldr	r3, [r7, #4]
 80077ec:	693a      	ldr	r2, [r7, #16]
 80077ee:	605a      	str	r2, [r3, #4]
 80077f0:	687b      	ldr	r3, [r7, #4]
 80077f2:	68fa      	ldr	r2, [r7, #12]
 80077f4:	61da      	str	r2, [r3, #28]
 80077f6:	683b      	ldr	r3, [r7, #0]
 80077f8:	685a      	ldr	r2, [r3, #4]
 80077fa:	687b      	ldr	r3, [r7, #4]
 80077fc:	63da      	str	r2, [r3, #60]	; 0x3c
 80077fe:	687b      	ldr	r3, [r7, #4]
 8007800:	697a      	ldr	r2, [r7, #20]
 8007802:	621a      	str	r2, [r3, #32]
 8007804:	bf00      	nop
 8007806:	371c      	adds	r7, #28
 8007808:	46bd      	mov	sp, r7
 800780a:	f85d 7b04 	ldr.w	r7, [sp], #4
 800780e:	4770      	bx	lr
 8007810:	40012c00 	.word	0x40012c00
 8007814:	40013400 	.word	0x40013400
 8007818:	40014000 	.word	0x40014000
 800781c:	40014400 	.word	0x40014400
 8007820:	40014800 	.word	0x40014800

08007824 <TIM_OC4_SetConfig>:
 8007824:	b480      	push	{r7}
 8007826:	b087      	sub	sp, #28
 8007828:	af00      	add	r7, sp, #0
 800782a:	6078      	str	r0, [r7, #4]
 800782c:	6039      	str	r1, [r7, #0]
 800782e:	687b      	ldr	r3, [r7, #4]
 8007830:	6a1b      	ldr	r3, [r3, #32]
 8007832:	f423 5280 	bic.w	r2, r3, #4096	; 0x1000
 8007836:	687b      	ldr	r3, [r7, #4]
 8007838:	621a      	str	r2, [r3, #32]
 800783a:	687b      	ldr	r3, [r7, #4]
 800783c:	6a1b      	ldr	r3, [r3, #32]
 800783e:	617b      	str	r3, [r7, #20]
 8007840:	687b      	ldr	r3, [r7, #4]
 8007842:	685b      	ldr	r3, [r3, #4]
 8007844:	613b      	str	r3, [r7, #16]
 8007846:	687b      	ldr	r3, [r7, #4]
 8007848:	69db      	ldr	r3, [r3, #28]
 800784a:	60fb      	str	r3, [r7, #12]
 800784c:	68fb      	ldr	r3, [r7, #12]
 800784e:	f023 7380 	bic.w	r3, r3, #16777216	; 0x1000000
 8007852:	f423 43e0 	bic.w	r3, r3, #28672	; 0x7000
 8007856:	60fb      	str	r3, [r7, #12]
 8007858:	68fb      	ldr	r3, [r7, #12]
 800785a:	f423 7340 	bic.w	r3, r3, #768	; 0x300
 800785e:	60fb      	str	r3, [r7, #12]
 8007860:	683b      	ldr	r3, [r7, #0]
 8007862:	681b      	ldr	r3, [r3, #0]
 8007864:	021b      	lsls	r3, r3, #8
 8007866:	68fa      	ldr	r2, [r7, #12]
 8007868:	4313      	orrs	r3, r2
 800786a:	60fb      	str	r3, [r7, #12]
 800786c:	697b      	ldr	r3, [r7, #20]
 800786e:	f423 5300 	bic.w	r3, r3, #8192	; 0x2000
 8007872:	617b      	str	r3, [r7, #20]
 8007874:	683b      	ldr	r3, [r7, #0]
 8007876:	689b      	ldr	r3, [r3, #8]
 8007878:	031b      	lsls	r3, r3, #12
 800787a:	697a      	ldr	r2, [r7, #20]
 800787c:	4313      	orrs	r3, r2
 800787e:	617b      	str	r3, [r7, #20]
 8007880:	687b      	ldr	r3, [r7, #4]
 8007882:	4a28      	ldr	r2, [pc, #160]	; (8007924 <TIM_OC4_SetConfig+0x100>)
 8007884:	4293      	cmp	r3, r2
 8007886:	d003      	beq.n	8007890 <TIM_OC4_SetConfig+0x6c>
 8007888:	687b      	ldr	r3, [r7, #4]
 800788a:	4a27      	ldr	r2, [pc, #156]	; (8007928 <TIM_OC4_SetConfig+0x104>)
 800788c:	4293      	cmp	r3, r2
 800788e:	d10d      	bne.n	80078ac <TIM_OC4_SetConfig+0x88>
 8007890:	697b      	ldr	r3, [r7, #20]
 8007892:	f423 4300 	bic.w	r3, r3, #32768	; 0x8000
 8007896:	617b      	str	r3, [r7, #20]
 8007898:	683b      	ldr	r3, [r7, #0]
 800789a:	68db      	ldr	r3, [r3, #12]
 800789c:	031b      	lsls	r3, r3, #12
 800789e:	697a      	ldr	r2, [r7, #20]
 80078a0:	4313      	orrs	r3, r2
 80078a2:	617b      	str	r3, [r7, #20]
 80078a4:	697b      	ldr	r3, [r7, #20]
 80078a6:	f423 4380 	bic.w	r3, r3, #16384	; 0x4000
 80078aa:	617b      	str	r3, [r7, #20]
 80078ac:	687b      	ldr	r3, [r7, #4]
 80078ae:	4a1d      	ldr	r2, [pc, #116]	; (8007924 <TIM_OC4_SetConfig+0x100>)
 80078b0:	4293      	cmp	r3, r2
 80078b2:	d00f      	beq.n	80078d4 <TIM_OC4_SetConfig+0xb0>
 80078b4:	687b      	ldr	r3, [r7, #4]
 80078b6:	4a1c      	ldr	r2, [pc, #112]	; (8007928 <TIM_OC4_SetConfig+0x104>)
 80078b8:	4293      	cmp	r3, r2
 80078ba:	d00b      	beq.n	80078d4 <TIM_OC4_SetConfig+0xb0>
 80078bc:	687b      	ldr	r3, [r7, #4]
 80078be:	4a1b      	ldr	r2, [pc, #108]	; (800792c <TIM_OC4_SetConfig+0x108>)
 80078c0:	4293      	cmp	r3, r2
 80078c2:	d007      	beq.n	80078d4 <TIM_OC4_SetConfig+0xb0>
 80078c4:	687b      	ldr	r3, [r7, #4]
 80078c6:	4a1a      	ldr	r2, [pc, #104]	; (8007930 <TIM_OC4_SetConfig+0x10c>)
 80078c8:	4293      	cmp	r3, r2
 80078ca:	d003      	beq.n	80078d4 <TIM_OC4_SetConfig+0xb0>
 80078cc:	687b      	ldr	r3, [r7, #4]
 80078ce:	4a19      	ldr	r2, [pc, #100]	; (8007934 <TIM_OC4_SetConfig+0x110>)
 80078d0:	4293      	cmp	r3, r2
 80078d2:	d113      	bne.n	80078fc <TIM_OC4_SetConfig+0xd8>
 80078d4:	693b      	ldr	r3, [r7, #16]
 80078d6:	f423 4380 	bic.w	r3, r3, #16384	; 0x4000
 80078da:	613b      	str	r3, [r7, #16]
 80078dc:	693b      	ldr	r3, [r7, #16]
 80078de:	f423 4300 	bic.w	r3, r3, #32768	; 0x8000
 80078e2:	613b      	str	r3, [r7, #16]
 80078e4:	683b      	ldr	r3, [r7, #0]
 80078e6:	695b      	ldr	r3, [r3, #20]
 80078e8:	019b      	lsls	r3, r3, #6
 80078ea:	693a      	ldr	r2, [r7, #16]
 80078ec:	4313      	orrs	r3, r2
 80078ee:	613b      	str	r3, [r7, #16]
 80078f0:	683b      	ldr	r3, [r7, #0]
 80078f2:	699b      	ldr	r3, [r3, #24]
 80078f4:	019b      	lsls	r3, r3, #6
 80078f6:	693a      	ldr	r2, [r7, #16]
 80078f8:	4313      	orrs	r3, r2
 80078fa:	613b      	str	r3, [r7, #16]
 80078fc:	687b      	ldr	r3, [r7, #4]
 80078fe:	693a      	ldr	r2, [r7, #16]
 8007900:	605a      	str	r2, [r3, #4]
 8007902:	687b      	ldr	r3, [r7, #4]
 8007904:	68fa      	ldr	r2, [r7, #12]
 8007906:	61da      	str	r2, [r3, #28]
 8007908:	683b      	ldr	r3, [r7, #0]
 800790a:	685a      	ldr	r2, [r3, #4]
 800790c:	687b      	ldr	r3, [r7, #4]
 800790e:	641a      	str	r2, [r3, #64]	; 0x40
 8007910:	687b      	ldr	r3, [r7, #4]
 8007912:	697a      	ldr	r2, [r7, #20]
 8007914:	621a      	str	r2, [r3, #32]
 8007916:	bf00      	nop
 8007918:	371c      	adds	r7, #28
 800791a:	46bd      	mov	sp, r7
 800791c:	f85d 7b04 	ldr.w	r7, [sp], #4
 8007920:	4770      	bx	lr
 8007922:	bf00      	nop
 8007924:	40012c00 	.word	0x40012c00
 8007928:	40013400 	.word	0x40013400
 800792c:	40014000 	.word	0x40014000
 8007930:	40014400 	.word	0x40014400
 8007934:	40014800 	.word	0x40014800

08007938 <TIM_OC5_SetConfig>:
 8007938:	b480      	push	{r7}
 800793a:	b087      	sub	sp, #28
 800793c:	af00      	add	r7, sp, #0
 800793e:	6078      	str	r0, [r7, #4]
 8007940:	6039      	str	r1, [r7, #0]
 8007942:	687b      	ldr	r3, [r7, #4]
 8007944:	6a1b      	ldr	r3, [r3, #32]
 8007946:	f423 3280 	bic.w	r2, r3, #65536	; 0x10000
 800794a:	687b      	ldr	r3, [r7, #4]
 800794c:	621a      	str	r2, [r3, #32]
 800794e:	687b      	ldr	r3, [r7, #4]
 8007950:	6a1b      	ldr	r3, [r3, #32]
 8007952:	613b      	str	r3, [r7, #16]
 8007954:	687b      	ldr	r3, [r7, #4]
 8007956:	685b      	ldr	r3, [r3, #4]
 8007958:	617b      	str	r3, [r7, #20]
 800795a:	687b      	ldr	r3, [r7, #4]
 800795c:	6d1b      	ldr	r3, [r3, #80]	; 0x50
 800795e:	60fb      	str	r3, [r7, #12]
 8007960:	68fb      	ldr	r3, [r7, #12]
 8007962:	f423 3380 	bic.w	r3, r3, #65536	; 0x10000
 8007966:	f023 0370 	bic.w	r3, r3, #112	; 0x70
 800796a:	60fb      	str	r3, [r7, #12]
 800796c:	683b      	ldr	r3, [r7, #0]
 800796e:	681b      	ldr	r3, [r3, #0]
 8007970:	68fa      	ldr	r2, [r7, #12]
 8007972:	4313      	orrs	r3, r2
 8007974:	60fb      	str	r3, [r7, #12]
 8007976:	693b      	ldr	r3, [r7, #16]
 8007978:	f423 3300 	bic.w	r3, r3, #131072	; 0x20000
 800797c:	613b      	str	r3, [r7, #16]
 800797e:	683b      	ldr	r3, [r7, #0]
 8007980:	689b      	ldr	r3, [r3, #8]
 8007982:	041b      	lsls	r3, r3, #16
 8007984:	693a      	ldr	r2, [r7, #16]
 8007986:	4313      	orrs	r3, r2
 8007988:	613b      	str	r3, [r7, #16]
 800798a:	687b      	ldr	r3, [r7, #4]
 800798c:	4a17      	ldr	r2, [pc, #92]	; (80079ec <TIM_OC5_SetConfig+0xb4>)
 800798e:	4293      	cmp	r3, r2
 8007990:	d00f      	beq.n	80079b2 <TIM_OC5_SetConfig+0x7a>
 8007992:	687b      	ldr	r3, [r7, #4]
 8007994:	4a16      	ldr	r2, [pc, #88]	; (80079f0 <TIM_OC5_SetConfig+0xb8>)
 8007996:	4293      	cmp	r3, r2
 8007998:	d00b      	beq.n	80079b2 <TIM_OC5_SetConfig+0x7a>
 800799a:	687b      	ldr	r3, [r7, #4]
 800799c:	4a15      	ldr	r2, [pc, #84]	; (80079f4 <TIM_OC5_SetConfig+0xbc>)
 800799e:	4293      	cmp	r3, r2
 80079a0:	d007      	beq.n	80079b2 <TIM_OC5_SetConfig+0x7a>
 80079a2:	687b      	ldr	r3, [r7, #4]
 80079a4:	4a14      	ldr	r2, [pc, #80]	; (80079f8 <TIM_OC5_SetConfig+0xc0>)
 80079a6:	4293      	cmp	r3, r2
 80079a8:	d003      	beq.n	80079b2 <TIM_OC5_SetConfig+0x7a>
 80079aa:	687b      	ldr	r3, [r7, #4]
 80079ac:	4a13      	ldr	r2, [pc, #76]	; (80079fc <TIM_OC5_SetConfig+0xc4>)
 80079ae:	4293      	cmp	r3, r2
 80079b0:	d109      	bne.n	80079c6 <TIM_OC5_SetConfig+0x8e>
 80079b2:	697b      	ldr	r3, [r7, #20]
 80079b4:	f423 3380 	bic.w	r3, r3, #65536	; 0x10000
 80079b8:	617b      	str	r3, [r7, #20]
 80079ba:	683b      	ldr	r3, [r7, #0]
 80079bc:	695b      	ldr	r3, [r3, #20]
 80079be:	021b      	lsls	r3, r3, #8
 80079c0:	697a      	ldr	r2, [r7, #20]
 80079c2:	4313      	orrs	r3, r2
 80079c4:	617b      	str	r3, [r7, #20]
 80079c6:	687b      	ldr	r3, [r7, #4]
 80079c8:	697a      	ldr	r2, [r7, #20]
 80079ca:	605a      	str	r2, [r3, #4]
 80079cc:	687b      	ldr	r3, [r7, #4]
 80079ce:	68fa      	ldr	r2, [r7, #12]
 80079d0:	651a      	str	r2, [r3, #80]	; 0x50
 80079d2:	683b      	ldr	r3, [r7, #0]
 80079d4:	685a      	ldr	r2, [r3, #4]
 80079d6:	687b      	ldr	r3, [r7, #4]
 80079d8:	649a      	str	r2, [r3, #72]	; 0x48
 80079da:	687b      	ldr	r3, [r7, #4]
 80079dc:	693a      	ldr	r2, [r7, #16]
 80079de:	621a      	str	r2, [r3, #32]
 80079e0:	bf00      	nop
 80079e2:	371c      	adds	r7, #28
 80079e4:	46bd      	mov	sp, r7
 80079e6:	f85d 7b04 	ldr.w	r7, [sp], #4
 80079ea:	4770      	bx	lr
 80079ec:	40012c00 	.word	0x40012c00
 80079f0:	40013400 	.word	0x40013400
 80079f4:	40014000 	.word	0x40014000
 80079f8:	40014400 	.word	0x40014400
 80079fc:	40014800 	.word	0x40014800

08007a00 <TIM_OC6_SetConfig>:
 8007a00:	b480      	push	{r7}
 8007a02:	b087      	sub	sp, #28
 8007a04:	af00      	add	r7, sp, #0
 8007a06:	6078      	str	r0, [r7, #4]
 8007a08:	6039      	str	r1, [r7, #0]
 8007a0a:	687b      	ldr	r3, [r7, #4]
 8007a0c:	6a1b      	ldr	r3, [r3, #32]
 8007a0e:	f423 1280 	bic.w	r2, r3, #1048576	; 0x100000
 8007a12:	687b      	ldr	r3, [r7, #4]
 8007a14:	621a      	str	r2, [r3, #32]
 8007a16:	687b      	ldr	r3, [r7, #4]
 8007a18:	6a1b      	ldr	r3, [r3, #32]
 8007a1a:	613b      	str	r3, [r7, #16]
 8007a1c:	687b      	ldr	r3, [r7, #4]
 8007a1e:	685b      	ldr	r3, [r3, #4]
 8007a20:	617b      	str	r3, [r7, #20]
 8007a22:	687b      	ldr	r3, [r7, #4]
 8007a24:	6d1b      	ldr	r3, [r3, #80]	; 0x50
 8007a26:	60fb      	str	r3, [r7, #12]
 8007a28:	68fb      	ldr	r3, [r7, #12]
 8007a2a:	f023 7380 	bic.w	r3, r3, #16777216	; 0x1000000
 8007a2e:	f423 43e0 	bic.w	r3, r3, #28672	; 0x7000
 8007a32:	60fb      	str	r3, [r7, #12]
 8007a34:	683b      	ldr	r3, [r7, #0]
 8007a36:	681b      	ldr	r3, [r3, #0]
 8007a38:	021b      	lsls	r3, r3, #8
 8007a3a:	68fa      	ldr	r2, [r7, #12]
 8007a3c:	4313      	orrs	r3, r2
 8007a3e:	60fb      	str	r3, [r7, #12]
 8007a40:	693b      	ldr	r3, [r7, #16]
 8007a42:	f423 1300 	bic.w	r3, r3, #2097152	; 0x200000
 8007a46:	613b      	str	r3, [r7, #16]
 8007a48:	683b      	ldr	r3, [r7, #0]
 8007a4a:	689b      	ldr	r3, [r3, #8]
 8007a4c:	051b      	lsls	r3, r3, #20
 8007a4e:	693a      	ldr	r2, [r7, #16]
 8007a50:	4313      	orrs	r3, r2
 8007a52:	613b      	str	r3, [r7, #16]
 8007a54:	687b      	ldr	r3, [r7, #4]
 8007a56:	4a18      	ldr	r2, [pc, #96]	; (8007ab8 <TIM_OC6_SetConfig+0xb8>)
 8007a58:	4293      	cmp	r3, r2
 8007a5a:	d00f      	beq.n	8007a7c <TIM_OC6_SetConfig+0x7c>
 8007a5c:	687b      	ldr	r3, [r7, #4]
 8007a5e:	4a17      	ldr	r2, [pc, #92]	; (8007abc <TIM_OC6_SetConfig+0xbc>)
 8007a60:	4293      	cmp	r3, r2
 8007a62:	d00b      	beq.n	8007a7c <TIM_OC6_SetConfig+0x7c>
 8007a64:	687b      	ldr	r3, [r7, #4]
 8007a66:	4a16      	ldr	r2, [pc, #88]	; (8007ac0 <TIM_OC6_SetConfig+0xc0>)
 8007a68:	4293      	cmp	r3, r2
 8007a6a:	d007      	beq.n	8007a7c <TIM_OC6_SetConfig+0x7c>
 8007a6c:	687b      	ldr	r3, [r7, #4]
 8007a6e:	4a15      	ldr	r2, [pc, #84]	; (8007ac4 <TIM_OC6_SetConfig+0xc4>)
 8007a70:	4293      	cmp	r3, r2
 8007a72:	d003      	beq.n	8007a7c <TIM_OC6_SetConfig+0x7c>
 8007a74:	687b      	ldr	r3, [r7, #4]
 8007a76:	4a14      	ldr	r2, [pc, #80]	; (8007ac8 <TIM_OC6_SetConfig+0xc8>)
 8007a78:	4293      	cmp	r3, r2
 8007a7a:	d109      	bne.n	8007a90 <TIM_OC6_SetConfig+0x90>
 8007a7c:	697b      	ldr	r3, [r7, #20]
 8007a7e:	f423 2380 	bic.w	r3, r3, #262144	; 0x40000
 8007a82:	617b      	str	r3, [r7, #20]
 8007a84:	683b      	ldr	r3, [r7, #0]
 8007a86:	695b      	ldr	r3, [r3, #20]
 8007a88:	029b      	lsls	r3, r3, #10
 8007a8a:	697a      	ldr	r2, [r7, #20]
 8007a8c:	4313      	orrs	r3, r2
 8007a8e:	617b      	str	r3, [r7, #20]
 8007a90:	687b      	ldr	r3, [r7, #4]
 8007a92:	697a      	ldr	r2, [r7, #20]
 8007a94:	605a      	str	r2, [r3, #4]
 8007a96:	687b      	ldr	r3, [r7, #4]
 8007a98:	68fa      	ldr	r2, [r7, #12]
 8007a9a:	651a      	str	r2, [r3, #80]	; 0x50
 8007a9c:	683b      	ldr	r3, [r7, #0]
 8007a9e:	685a      	ldr	r2, [r3, #4]
 8007aa0:	687b      	ldr	r3, [r7, #4]
 8007aa2:	64da      	str	r2, [r3, #76]	; 0x4c
 8007aa4:	687b      	ldr	r3, [r7, #4]
 8007aa6:	693a      	ldr	r2, [r7, #16]
 8007aa8:	621a      	str	r2, [r3, #32]
 8007aaa:	bf00      	nop
 8007aac:	371c      	adds	r7, #28
 8007aae:	46bd      	mov	sp, r7
 8007ab0:	f85d 7b04 	ldr.w	r7, [sp], #4
 8007ab4:	4770      	bx	lr
 8007ab6:	bf00      	nop
 8007ab8:	40012c00 	.word	0x40012c00
 8007abc:	40013400 	.word	0x40013400
 8007ac0:	40014000 	.word	0x40014000
 8007ac4:	40014400 	.word	0x40014400
 8007ac8:	40014800 	.word	0x40014800

08007acc <TIM_TI1_ConfigInputStage>:
 8007acc:	b480      	push	{r7}
 8007ace:	b087      	sub	sp, #28
 8007ad0:	af00      	add	r7, sp, #0
 8007ad2:	60f8      	str	r0, [r7, #12]
 8007ad4:	60b9      	str	r1, [r7, #8]
 8007ad6:	607a      	str	r2, [r7, #4]
 8007ad8:	68fb      	ldr	r3, [r7, #12]
 8007ada:	6a1b      	ldr	r3, [r3, #32]
 8007adc:	617b      	str	r3, [r7, #20]
 8007ade:	68fb      	ldr	r3, [r7, #12]
 8007ae0:	6a1b      	ldr	r3, [r3, #32]
 8007ae2:	f023 0201 	bic.w	r2, r3, #1
 8007ae6:	68fb      	ldr	r3, [r7, #12]
 8007ae8:	621a      	str	r2, [r3, #32]
 8007aea:	68fb      	ldr	r3, [r7, #12]
 8007aec:	699b      	ldr	r3, [r3, #24]
 8007aee:	613b      	str	r3, [r7, #16]
 8007af0:	693b      	ldr	r3, [r7, #16]
 8007af2:	f023 03f0 	bic.w	r3, r3, #240	; 0xf0
 8007af6:	613b      	str	r3, [r7, #16]
 8007af8:	687b      	ldr	r3, [r7, #4]
 8007afa:	011b      	lsls	r3, r3, #4
 8007afc:	693a      	ldr	r2, [r7, #16]
 8007afe:	4313      	orrs	r3, r2
 8007b00:	613b      	str	r3, [r7, #16]
 8007b02:	697b      	ldr	r3, [r7, #20]
 8007b04:	f023 030a 	bic.w	r3, r3, #10
 8007b08:	617b      	str	r3, [r7, #20]
 8007b0a:	697a      	ldr	r2, [r7, #20]
 8007b0c:	68bb      	ldr	r3, [r7, #8]
 8007b0e:	4313      	orrs	r3, r2
 8007b10:	617b      	str	r3, [r7, #20]
 8007b12:	68fb      	ldr	r3, [r7, #12]
 8007b14:	693a      	ldr	r2, [r7, #16]
 8007b16:	619a      	str	r2, [r3, #24]
 8007b18:	68fb      	ldr	r3, [r7, #12]
 8007b1a:	697a      	ldr	r2, [r7, #20]
 8007b1c:	621a      	str	r2, [r3, #32]
 8007b1e:	bf00      	nop
 8007b20:	371c      	adds	r7, #28
 8007b22:	46bd      	mov	sp, r7
 8007b24:	f85d 7b04 	ldr.w	r7, [sp], #4
 8007b28:	4770      	bx	lr

08007b2a <TIM_TI2_ConfigInputStage>:
 8007b2a:	b480      	push	{r7}
 8007b2c:	b087      	sub	sp, #28
 8007b2e:	af00      	add	r7, sp, #0
 8007b30:	60f8      	str	r0, [r7, #12]
 8007b32:	60b9      	str	r1, [r7, #8]
 8007b34:	607a      	str	r2, [r7, #4]
 8007b36:	68fb      	ldr	r3, [r7, #12]
 8007b38:	6a1b      	ldr	r3, [r3, #32]
 8007b3a:	f023 0210 	bic.w	r2, r3, #16
 8007b3e:	68fb      	ldr	r3, [r7, #12]
 8007b40:	621a      	str	r2, [r3, #32]
 8007b42:	68fb      	ldr	r3, [r7, #12]
 8007b44:	699b      	ldr	r3, [r3, #24]
 8007b46:	617b      	str	r3, [r7, #20]
 8007b48:	68fb      	ldr	r3, [r7, #12]
 8007b4a:	6a1b      	ldr	r3, [r3, #32]
 8007b4c:	613b      	str	r3, [r7, #16]
 8007b4e:	697b      	ldr	r3, [r7, #20]
 8007b50:	f423 4370 	bic.w	r3, r3, #61440	; 0xf000
 8007b54:	617b      	str	r3, [r7, #20]
 8007b56:	687b      	ldr	r3, [r7, #4]
 8007b58:	031b      	lsls	r3, r3, #12
 8007b5a:	697a      	ldr	r2, [r7, #20]
 8007b5c:	4313      	orrs	r3, r2
 8007b5e:	617b      	str	r3, [r7, #20]
 8007b60:	693b      	ldr	r3, [r7, #16]
 8007b62:	f023 03a0 	bic.w	r3, r3, #160	; 0xa0
 8007b66:	613b      	str	r3, [r7, #16]
 8007b68:	68bb      	ldr	r3, [r7, #8]
 8007b6a:	011b      	lsls	r3, r3, #4
 8007b6c:	693a      	ldr	r2, [r7, #16]
 8007b6e:	4313      	orrs	r3, r2
 8007b70:	613b      	str	r3, [r7, #16]
 8007b72:	68fb      	ldr	r3, [r7, #12]
 8007b74:	697a      	ldr	r2, [r7, #20]
 8007b76:	619a      	str	r2, [r3, #24]
 8007b78:	68fb      	ldr	r3, [r7, #12]
 8007b7a:	693a      	ldr	r2, [r7, #16]
 8007b7c:	621a      	str	r2, [r3, #32]
 8007b7e:	bf00      	nop
 8007b80:	371c      	adds	r7, #28
 8007b82:	46bd      	mov	sp, r7
 8007b84:	f85d 7b04 	ldr.w	r7, [sp], #4
 8007b88:	4770      	bx	lr

08007b8a <TIM_ITRx_SetConfig>:
 8007b8a:	b480      	push	{r7}
 8007b8c:	b085      	sub	sp, #20
 8007b8e:	af00      	add	r7, sp, #0
 8007b90:	6078      	str	r0, [r7, #4]
 8007b92:	6039      	str	r1, [r7, #0]
 8007b94:	687b      	ldr	r3, [r7, #4]
 8007b96:	689b      	ldr	r3, [r3, #8]
 8007b98:	60fb      	str	r3, [r7, #12]
 8007b9a:	68fb      	ldr	r3, [r7, #12]
 8007b9c:	f423 1340 	bic.w	r3, r3, #3145728	; 0x300000
 8007ba0:	f023 0370 	bic.w	r3, r3, #112	; 0x70
 8007ba4:	60fb      	str	r3, [r7, #12]
 8007ba6:	683a      	ldr	r2, [r7, #0]
 8007ba8:	68fb      	ldr	r3, [r7, #12]
 8007baa:	4313      	orrs	r3, r2
 8007bac:	f043 0307 	orr.w	r3, r3, #7
 8007bb0:	60fb      	str	r3, [r7, #12]
 8007bb2:	687b      	ldr	r3, [r7, #4]
 8007bb4:	68fa      	ldr	r2, [r7, #12]
 8007bb6:	609a      	str	r2, [r3, #8]
 8007bb8:	bf00      	nop
 8007bba:	3714      	adds	r7, #20
 8007bbc:	46bd      	mov	sp, r7
 8007bbe:	f85d 7b04 	ldr.w	r7, [sp], #4
 8007bc2:	4770      	bx	lr

08007bc4 <TIM_ETR_SetConfig>:
 8007bc4:	b480      	push	{r7}
 8007bc6:	b087      	sub	sp, #28
 8007bc8:	af00      	add	r7, sp, #0
 8007bca:	60f8      	str	r0, [r7, #12]
 8007bcc:	60b9      	str	r1, [r7, #8]
 8007bce:	607a      	str	r2, [r7, #4]
 8007bd0:	603b      	str	r3, [r7, #0]
 8007bd2:	68fb      	ldr	r3, [r7, #12]
 8007bd4:	689b      	ldr	r3, [r3, #8]
 8007bd6:	617b      	str	r3, [r7, #20]
 8007bd8:	697b      	ldr	r3, [r7, #20]
 8007bda:	f423 437f 	bic.w	r3, r3, #65280	; 0xff00
 8007bde:	617b      	str	r3, [r7, #20]
 8007be0:	683b      	ldr	r3, [r7, #0]
 8007be2:	021a      	lsls	r2, r3, #8
 8007be4:	687b      	ldr	r3, [r7, #4]
 8007be6:	431a      	orrs	r2, r3
 8007be8:	68bb      	ldr	r3, [r7, #8]
 8007bea:	4313      	orrs	r3, r2
 8007bec:	697a      	ldr	r2, [r7, #20]
 8007bee:	4313      	orrs	r3, r2
 8007bf0:	617b      	str	r3, [r7, #20]
 8007bf2:	68fb      	ldr	r3, [r7, #12]
 8007bf4:	697a      	ldr	r2, [r7, #20]
 8007bf6:	609a      	str	r2, [r3, #8]
 8007bf8:	bf00      	nop
 8007bfa:	371c      	adds	r7, #28
 8007bfc:	46bd      	mov	sp, r7
 8007bfe:	f85d 7b04 	ldr.w	r7, [sp], #4
 8007c02:	4770      	bx	lr

08007c04 <TIM_CCxChannelCmd>:
 8007c04:	b480      	push	{r7}
 8007c06:	b087      	sub	sp, #28
 8007c08:	af00      	add	r7, sp, #0
 8007c0a:	60f8      	str	r0, [r7, #12]
 8007c0c:	60b9      	str	r1, [r7, #8]
 8007c0e:	607a      	str	r2, [r7, #4]
 8007c10:	68bb      	ldr	r3, [r7, #8]
 8007c12:	f003 031f 	and.w	r3, r3, #31
 8007c16:	2201      	movs	r2, #1
 8007c18:	fa02 f303 	lsl.w	r3, r2, r3
 8007c1c:	617b      	str	r3, [r7, #20]
 8007c1e:	68fb      	ldr	r3, [r7, #12]
 8007c20:	6a1a      	ldr	r2, [r3, #32]
 8007c22:	697b      	ldr	r3, [r7, #20]
 8007c24:	43db      	mvns	r3, r3
 8007c26:	401a      	ands	r2, r3
 8007c28:	68fb      	ldr	r3, [r7, #12]
 8007c2a:	621a      	str	r2, [r3, #32]
 8007c2c:	68fb      	ldr	r3, [r7, #12]
 8007c2e:	6a1a      	ldr	r2, [r3, #32]
 8007c30:	68bb      	ldr	r3, [r7, #8]
 8007c32:	f003 031f 	and.w	r3, r3, #31
 8007c36:	6879      	ldr	r1, [r7, #4]
 8007c38:	fa01 f303 	lsl.w	r3, r1, r3
 8007c3c:	431a      	orrs	r2, r3
 8007c3e:	68fb      	ldr	r3, [r7, #12]
 8007c40:	621a      	str	r2, [r3, #32]
 8007c42:	bf00      	nop
 8007c44:	371c      	adds	r7, #28
 8007c46:	46bd      	mov	sp, r7
 8007c48:	f85d 7b04 	ldr.w	r7, [sp], #4
 8007c4c:	4770      	bx	lr
	...

08007c50 <HAL_TIMEx_PWMN_Start_IT>:
 8007c50:	b580      	push	{r7, lr}
 8007c52:	b084      	sub	sp, #16
 8007c54:	af00      	add	r7, sp, #0
 8007c56:	6078      	str	r0, [r7, #4]
 8007c58:	6039      	str	r1, [r7, #0]
 8007c5a:	2300      	movs	r3, #0
 8007c5c:	73fb      	strb	r3, [r7, #15]
 8007c5e:	683b      	ldr	r3, [r7, #0]
 8007c60:	2b00      	cmp	r3, #0
 8007c62:	d109      	bne.n	8007c78 <HAL_TIMEx_PWMN_Start_IT+0x28>
 8007c64:	687b      	ldr	r3, [r7, #4]
 8007c66:	f893 3044 	ldrb.w	r3, [r3, #68]	; 0x44
 8007c6a:	b2db      	uxtb	r3, r3
 8007c6c:	2b01      	cmp	r3, #1
 8007c6e:	bf14      	ite	ne
 8007c70:	2301      	movne	r3, #1
 8007c72:	2300      	moveq	r3, #0
 8007c74:	b2db      	uxtb	r3, r3
 8007c76:	e022      	b.n	8007cbe <HAL_TIMEx_PWMN_Start_IT+0x6e>
 8007c78:	683b      	ldr	r3, [r7, #0]
 8007c7a:	2b04      	cmp	r3, #4
 8007c7c:	d109      	bne.n	8007c92 <HAL_TIMEx_PWMN_Start_IT+0x42>
 8007c7e:	687b      	ldr	r3, [r7, #4]
 8007c80:	f893 3045 	ldrb.w	r3, [r3, #69]	; 0x45
 8007c84:	b2db      	uxtb	r3, r3
 8007c86:	2b01      	cmp	r3, #1
 8007c88:	bf14      	ite	ne
 8007c8a:	2301      	movne	r3, #1
 8007c8c:	2300      	moveq	r3, #0
 8007c8e:	b2db      	uxtb	r3, r3
 8007c90:	e015      	b.n	8007cbe <HAL_TIMEx_PWMN_Start_IT+0x6e>
 8007c92:	683b      	ldr	r3, [r7, #0]
 8007c94:	2b08      	cmp	r3, #8
 8007c96:	d109      	bne.n	8007cac <HAL_TIMEx_PWMN_Start_IT+0x5c>
 8007c98:	687b      	ldr	r3, [r7, #4]
 8007c9a:	f893 3046 	ldrb.w	r3, [r3, #70]	; 0x46
 8007c9e:	b2db      	uxtb	r3, r3
 8007ca0:	2b01      	cmp	r3, #1
 8007ca2:	bf14      	ite	ne
 8007ca4:	2301      	movne	r3, #1
 8007ca6:	2300      	moveq	r3, #0
 8007ca8:	b2db      	uxtb	r3, r3
 8007caa:	e008      	b.n	8007cbe <HAL_TIMEx_PWMN_Start_IT+0x6e>
 8007cac:	687b      	ldr	r3, [r7, #4]
 8007cae:	f893 3047 	ldrb.w	r3, [r3, #71]	; 0x47
 8007cb2:	b2db      	uxtb	r3, r3
 8007cb4:	2b01      	cmp	r3, #1
 8007cb6:	bf14      	ite	ne
 8007cb8:	2301      	movne	r3, #1
 8007cba:	2300      	moveq	r3, #0
 8007cbc:	b2db      	uxtb	r3, r3
 8007cbe:	2b00      	cmp	r3, #0
 8007cc0:	d001      	beq.n	8007cc6 <HAL_TIMEx_PWMN_Start_IT+0x76>
 8007cc2:	2301      	movs	r3, #1
 8007cc4:	e0bc      	b.n	8007e40 <HAL_TIMEx_PWMN_Start_IT+0x1f0>
 8007cc6:	683b      	ldr	r3, [r7, #0]
 8007cc8:	2b00      	cmp	r3, #0
 8007cca:	d104      	bne.n	8007cd6 <HAL_TIMEx_PWMN_Start_IT+0x86>
 8007ccc:	687b      	ldr	r3, [r7, #4]
 8007cce:	2202      	movs	r2, #2
 8007cd0:	f883 2044 	strb.w	r2, [r3, #68]	; 0x44
 8007cd4:	e013      	b.n	8007cfe <HAL_TIMEx_PWMN_Start_IT+0xae>
 8007cd6:	683b      	ldr	r3, [r7, #0]
 8007cd8:	2b04      	cmp	r3, #4
 8007cda:	d104      	bne.n	8007ce6 <HAL_TIMEx_PWMN_Start_IT+0x96>
 8007cdc:	687b      	ldr	r3, [r7, #4]
 8007cde:	2202      	movs	r2, #2
 8007ce0:	f883 2045 	strb.w	r2, [r3, #69]	; 0x45
 8007ce4:	e00b      	b.n	8007cfe <HAL_TIMEx_PWMN_Start_IT+0xae>
 8007ce6:	683b      	ldr	r3, [r7, #0]
 8007ce8:	2b08      	cmp	r3, #8
 8007cea:	d104      	bne.n	8007cf6 <HAL_TIMEx_PWMN_Start_IT+0xa6>
 8007cec:	687b      	ldr	r3, [r7, #4]
 8007cee:	2202      	movs	r2, #2
 8007cf0:	f883 2046 	strb.w	r2, [r3, #70]	; 0x46
 8007cf4:	e003      	b.n	8007cfe <HAL_TIMEx_PWMN_Start_IT+0xae>
 8007cf6:	687b      	ldr	r3, [r7, #4]
 8007cf8:	2202      	movs	r2, #2
 8007cfa:	f883 2047 	strb.w	r2, [r3, #71]	; 0x47
 8007cfe:	683b      	ldr	r3, [r7, #0]
 8007d00:	2b0c      	cmp	r3, #12
 8007d02:	d841      	bhi.n	8007d88 <HAL_TIMEx_PWMN_Start_IT+0x138>
 8007d04:	a201      	add	r2, pc, #4	; (adr r2, 8007d0c <HAL_TIMEx_PWMN_Start_IT+0xbc>)
 8007d06:	f852 f023 	ldr.w	pc, [r2, r3, lsl #2]
 8007d0a:	bf00      	nop
 8007d0c:	08007d41 	.word	0x08007d41
 8007d10:	08007d89 	.word	0x08007d89
 8007d14:	08007d89 	.word	0x08007d89
 8007d18:	08007d89 	.word	0x08007d89
 8007d1c:	08007d53 	.word	0x08007d53
 8007d20:	08007d89 	.word	0x08007d89
 8007d24:	08007d89 	.word	0x08007d89
 8007d28:	08007d89 	.word	0x08007d89
 8007d2c:	08007d65 	.word	0x08007d65
 8007d30:	08007d89 	.word	0x08007d89
 8007d34:	08007d89 	.word	0x08007d89
 8007d38:	08007d89 	.word	0x08007d89
 8007d3c:	08007d77 	.word	0x08007d77
 8007d40:	687b      	ldr	r3, [r7, #4]
 8007d42:	681b      	ldr	r3, [r3, #0]
 8007d44:	68da      	ldr	r2, [r3, #12]
 8007d46:	687b      	ldr	r3, [r7, #4]
 8007d48:	681b      	ldr	r3, [r3, #0]
 8007d4a:	f042 0202 	orr.w	r2, r2, #2
 8007d4e:	60da      	str	r2, [r3, #12]
 8007d50:	e01d      	b.n	8007d8e <HAL_TIMEx_PWMN_Start_IT+0x13e>
 8007d52:	687b      	ldr	r3, [r7, #4]
 8007d54:	681b      	ldr	r3, [r3, #0]
 8007d56:	68da      	ldr	r2, [r3, #12]
 8007d58:	687b      	ldr	r3, [r7, #4]
 8007d5a:	681b      	ldr	r3, [r3, #0]
 8007d5c:	f042 0204 	orr.w	r2, r2, #4
 8007d60:	60da      	str	r2, [r3, #12]
 8007d62:	e014      	b.n	8007d8e <HAL_TIMEx_PWMN_Start_IT+0x13e>
 8007d64:	687b      	ldr	r3, [r7, #4]
 8007d66:	681b      	ldr	r3, [r3, #0]
 8007d68:	68da      	ldr	r2, [r3, #12]
 8007d6a:	687b      	ldr	r3, [r7, #4]
 8007d6c:	681b      	ldr	r3, [r3, #0]
 8007d6e:	f042 0208 	orr.w	r2, r2, #8
 8007d72:	60da      	str	r2, [r3, #12]
 8007d74:	e00b      	b.n	8007d8e <HAL_TIMEx_PWMN_Start_IT+0x13e>
 8007d76:	687b      	ldr	r3, [r7, #4]
 8007d78:	681b      	ldr	r3, [r3, #0]
 8007d7a:	68da      	ldr	r2, [r3, #12]
 8007d7c:	687b      	ldr	r3, [r7, #4]
 8007d7e:	681b      	ldr	r3, [r3, #0]
 8007d80:	f042 0210 	orr.w	r2, r2, #16
 8007d84:	60da      	str	r2, [r3, #12]
 8007d86:	e002      	b.n	8007d8e <HAL_TIMEx_PWMN_Start_IT+0x13e>
 8007d88:	2301      	movs	r3, #1
 8007d8a:	73fb      	strb	r3, [r7, #15]
 8007d8c:	bf00      	nop
 8007d8e:	7bfb      	ldrb	r3, [r7, #15]
 8007d90:	2b00      	cmp	r3, #0
 8007d92:	d154      	bne.n	8007e3e <HAL_TIMEx_PWMN_Start_IT+0x1ee>
 8007d94:	687b      	ldr	r3, [r7, #4]
 8007d96:	681b      	ldr	r3, [r3, #0]
 8007d98:	68da      	ldr	r2, [r3, #12]
 8007d9a:	687b      	ldr	r3, [r7, #4]
 8007d9c:	681b      	ldr	r3, [r3, #0]
 8007d9e:	f042 0280 	orr.w	r2, r2, #128	; 0x80
 8007da2:	60da      	str	r2, [r3, #12]
 8007da4:	687b      	ldr	r3, [r7, #4]
 8007da6:	681b      	ldr	r3, [r3, #0]
 8007da8:	2204      	movs	r2, #4
 8007daa:	6839      	ldr	r1, [r7, #0]
 8007dac:	4618      	mov	r0, r3
 8007dae:	f000 faa0 	bl	80082f2 <TIM_CCxNChannelCmd>
 8007db2:	687b      	ldr	r3, [r7, #4]
 8007db4:	681b      	ldr	r3, [r3, #0]
 8007db6:	6c5a      	ldr	r2, [r3, #68]	; 0x44
 8007db8:	687b      	ldr	r3, [r7, #4]
 8007dba:	681b      	ldr	r3, [r3, #0]
 8007dbc:	f442 4200 	orr.w	r2, r2, #32768	; 0x8000
 8007dc0:	645a      	str	r2, [r3, #68]	; 0x44
 8007dc2:	687b      	ldr	r3, [r7, #4]
 8007dc4:	681b      	ldr	r3, [r3, #0]
 8007dc6:	4a20      	ldr	r2, [pc, #128]	; (8007e48 <HAL_TIMEx_PWMN_Start_IT+0x1f8>)
 8007dc8:	4293      	cmp	r3, r2
 8007dca:	d018      	beq.n	8007dfe <HAL_TIMEx_PWMN_Start_IT+0x1ae>
 8007dcc:	687b      	ldr	r3, [r7, #4]
 8007dce:	681b      	ldr	r3, [r3, #0]
 8007dd0:	f1b3 4f80 	cmp.w	r3, #1073741824	; 0x40000000
 8007dd4:	d013      	beq.n	8007dfe <HAL_TIMEx_PWMN_Start_IT+0x1ae>
 8007dd6:	687b      	ldr	r3, [r7, #4]
 8007dd8:	681b      	ldr	r3, [r3, #0]
 8007dda:	4a1c      	ldr	r2, [pc, #112]	; (8007e4c <HAL_TIMEx_PWMN_Start_IT+0x1fc>)
 8007ddc:	4293      	cmp	r3, r2
 8007dde:	d00e      	beq.n	8007dfe <HAL_TIMEx_PWMN_Start_IT+0x1ae>
 8007de0:	687b      	ldr	r3, [r7, #4]
 8007de2:	681b      	ldr	r3, [r3, #0]
 8007de4:	4a1a      	ldr	r2, [pc, #104]	; (8007e50 <HAL_TIMEx_PWMN_Start_IT+0x200>)
 8007de6:	4293      	cmp	r3, r2
 8007de8:	d009      	beq.n	8007dfe <HAL_TIMEx_PWMN_Start_IT+0x1ae>
 8007dea:	687b      	ldr	r3, [r7, #4]
 8007dec:	681b      	ldr	r3, [r3, #0]
 8007dee:	4a19      	ldr	r2, [pc, #100]	; (8007e54 <HAL_TIMEx_PWMN_Start_IT+0x204>)
 8007df0:	4293      	cmp	r3, r2
 8007df2:	d004      	beq.n	8007dfe <HAL_TIMEx_PWMN_Start_IT+0x1ae>
 8007df4:	687b      	ldr	r3, [r7, #4]
 8007df6:	681b      	ldr	r3, [r3, #0]
 8007df8:	4a17      	ldr	r2, [pc, #92]	; (8007e58 <HAL_TIMEx_PWMN_Start_IT+0x208>)
 8007dfa:	4293      	cmp	r3, r2
 8007dfc:	d115      	bne.n	8007e2a <HAL_TIMEx_PWMN_Start_IT+0x1da>
 8007dfe:	687b      	ldr	r3, [r7, #4]
 8007e00:	681b      	ldr	r3, [r3, #0]
 8007e02:	689a      	ldr	r2, [r3, #8]
 8007e04:	4b15      	ldr	r3, [pc, #84]	; (8007e5c <HAL_TIMEx_PWMN_Start_IT+0x20c>)
 8007e06:	4013      	ands	r3, r2
 8007e08:	60bb      	str	r3, [r7, #8]
 8007e0a:	68bb      	ldr	r3, [r7, #8]
 8007e0c:	2b06      	cmp	r3, #6
 8007e0e:	d015      	beq.n	8007e3c <HAL_TIMEx_PWMN_Start_IT+0x1ec>
 8007e10:	68bb      	ldr	r3, [r7, #8]
 8007e12:	f5b3 3f80 	cmp.w	r3, #65536	; 0x10000
 8007e16:	d011      	beq.n	8007e3c <HAL_TIMEx_PWMN_Start_IT+0x1ec>
 8007e18:	687b      	ldr	r3, [r7, #4]
 8007e1a:	681b      	ldr	r3, [r3, #0]
 8007e1c:	681a      	ldr	r2, [r3, #0]
 8007e1e:	687b      	ldr	r3, [r7, #4]
 8007e20:	681b      	ldr	r3, [r3, #0]
 8007e22:	f042 0201 	orr.w	r2, r2, #1
 8007e26:	601a      	str	r2, [r3, #0]
 8007e28:	e008      	b.n	8007e3c <HAL_TIMEx_PWMN_Start_IT+0x1ec>
 8007e2a:	687b      	ldr	r3, [r7, #4]
 8007e2c:	681b      	ldr	r3, [r3, #0]
 8007e2e:	681a      	ldr	r2, [r3, #0]
 8007e30:	687b      	ldr	r3, [r7, #4]
 8007e32:	681b      	ldr	r3, [r3, #0]
 8007e34:	f042 0201 	orr.w	r2, r2, #1
 8007e38:	601a      	str	r2, [r3, #0]
 8007e3a:	e000      	b.n	8007e3e <HAL_TIMEx_PWMN_Start_IT+0x1ee>
 8007e3c:	bf00      	nop
 8007e3e:	7bfb      	ldrb	r3, [r7, #15]
 8007e40:	4618      	mov	r0, r3
 8007e42:	3710      	adds	r7, #16
 8007e44:	46bd      	mov	sp, r7
 8007e46:	bd80      	pop	{r7, pc}
 8007e48:	40012c00 	.word	0x40012c00
 8007e4c:	40000400 	.word	0x40000400
 8007e50:	40000800 	.word	0x40000800
 8007e54:	40013400 	.word	0x40013400
 8007e58:	40014000 	.word	0x40014000
 8007e5c:	00010007 	.word	0x00010007

08007e60 <HAL_TIMEx_MasterConfigSynchronization>:
 8007e60:	b480      	push	{r7}
 8007e62:	b085      	sub	sp, #20
 8007e64:	af00      	add	r7, sp, #0
 8007e66:	6078      	str	r0, [r7, #4]
 8007e68:	6039      	str	r1, [r7, #0]
 8007e6a:	687b      	ldr	r3, [r7, #4]
 8007e6c:	f893 303c 	ldrb.w	r3, [r3, #60]	; 0x3c
 8007e70:	2b01      	cmp	r3, #1
 8007e72:	d101      	bne.n	8007e78 <HAL_TIMEx_MasterConfigSynchronization+0x18>
 8007e74:	2302      	movs	r3, #2
 8007e76:	e065      	b.n	8007f44 <HAL_TIMEx_MasterConfigSynchronization+0xe4>
 8007e78:	687b      	ldr	r3, [r7, #4]
 8007e7a:	2201      	movs	r2, #1
 8007e7c:	f883 203c 	strb.w	r2, [r3, #60]	; 0x3c
 8007e80:	687b      	ldr	r3, [r7, #4]
 8007e82:	2202      	movs	r2, #2
 8007e84:	f883 203d 	strb.w	r2, [r3, #61]	; 0x3d
 8007e88:	687b      	ldr	r3, [r7, #4]
 8007e8a:	681b      	ldr	r3, [r3, #0]
 8007e8c:	685b      	ldr	r3, [r3, #4]
 8007e8e:	60fb      	str	r3, [r7, #12]
 8007e90:	687b      	ldr	r3, [r7, #4]
 8007e92:	681b      	ldr	r3, [r3, #0]
 8007e94:	689b      	ldr	r3, [r3, #8]
 8007e96:	60bb      	str	r3, [r7, #8]
 8007e98:	687b      	ldr	r3, [r7, #4]
 8007e9a:	681b      	ldr	r3, [r3, #0]
 8007e9c:	4a2c      	ldr	r2, [pc, #176]	; (8007f50 <HAL_TIMEx_MasterConfigSynchronization+0xf0>)
 8007e9e:	4293      	cmp	r3, r2
 8007ea0:	d004      	beq.n	8007eac <HAL_TIMEx_MasterConfigSynchronization+0x4c>
 8007ea2:	687b      	ldr	r3, [r7, #4]
 8007ea4:	681b      	ldr	r3, [r3, #0]
 8007ea6:	4a2b      	ldr	r2, [pc, #172]	; (8007f54 <HAL_TIMEx_MasterConfigSynchronization+0xf4>)
 8007ea8:	4293      	cmp	r3, r2
 8007eaa:	d108      	bne.n	8007ebe <HAL_TIMEx_MasterConfigSynchronization+0x5e>
 8007eac:	68fb      	ldr	r3, [r7, #12]
 8007eae:	f423 0370 	bic.w	r3, r3, #15728640	; 0xf00000
 8007eb2:	60fb      	str	r3, [r7, #12]
 8007eb4:	683b      	ldr	r3, [r7, #0]
 8007eb6:	685b      	ldr	r3, [r3, #4]
 8007eb8:	68fa      	ldr	r2, [r7, #12]
 8007eba:	4313      	orrs	r3, r2
 8007ebc:	60fb      	str	r3, [r7, #12]
 8007ebe:	68fb      	ldr	r3, [r7, #12]
 8007ec0:	f023 7300 	bic.w	r3, r3, #33554432	; 0x2000000
 8007ec4:	f023 0370 	bic.w	r3, r3, #112	; 0x70
 8007ec8:	60fb      	str	r3, [r7, #12]
 8007eca:	683b      	ldr	r3, [r7, #0]
 8007ecc:	681b      	ldr	r3, [r3, #0]
 8007ece:	68fa      	ldr	r2, [r7, #12]
 8007ed0:	4313      	orrs	r3, r2
 8007ed2:	60fb      	str	r3, [r7, #12]
 8007ed4:	687b      	ldr	r3, [r7, #4]
 8007ed6:	681b      	ldr	r3, [r3, #0]
 8007ed8:	68fa      	ldr	r2, [r7, #12]
 8007eda:	605a      	str	r2, [r3, #4]
 8007edc:	687b      	ldr	r3, [r7, #4]
 8007ede:	681b      	ldr	r3, [r3, #0]
 8007ee0:	4a1b      	ldr	r2, [pc, #108]	; (8007f50 <HAL_TIMEx_MasterConfigSynchronization+0xf0>)
 8007ee2:	4293      	cmp	r3, r2
 8007ee4:	d018      	beq.n	8007f18 <HAL_TIMEx_MasterConfigSynchronization+0xb8>
 8007ee6:	687b      	ldr	r3, [r7, #4]
 8007ee8:	681b      	ldr	r3, [r3, #0]
 8007eea:	f1b3 4f80 	cmp.w	r3, #1073741824	; 0x40000000
 8007eee:	d013      	beq.n	8007f18 <HAL_TIMEx_MasterConfigSynchronization+0xb8>
 8007ef0:	687b      	ldr	r3, [r7, #4]
 8007ef2:	681b      	ldr	r3, [r3, #0]
 8007ef4:	4a18      	ldr	r2, [pc, #96]	; (8007f58 <HAL_TIMEx_MasterConfigSynchronization+0xf8>)
 8007ef6:	4293      	cmp	r3, r2
 8007ef8:	d00e      	beq.n	8007f18 <HAL_TIMEx_MasterConfigSynchronization+0xb8>
 8007efa:	687b      	ldr	r3, [r7, #4]
 8007efc:	681b      	ldr	r3, [r3, #0]
 8007efe:	4a17      	ldr	r2, [pc, #92]	; (8007f5c <HAL_TIMEx_MasterConfigSynchronization+0xfc>)
 8007f00:	4293      	cmp	r3, r2
 8007f02:	d009      	beq.n	8007f18 <HAL_TIMEx_MasterConfigSynchronization+0xb8>
 8007f04:	687b      	ldr	r3, [r7, #4]
 8007f06:	681b      	ldr	r3, [r3, #0]
 8007f08:	4a12      	ldr	r2, [pc, #72]	; (8007f54 <HAL_TIMEx_MasterConfigSynchronization+0xf4>)
 8007f0a:	4293      	cmp	r3, r2
 8007f0c:	d004      	beq.n	8007f18 <HAL_TIMEx_MasterConfigSynchronization+0xb8>
 8007f0e:	687b      	ldr	r3, [r7, #4]
 8007f10:	681b      	ldr	r3, [r3, #0]
 8007f12:	4a13      	ldr	r2, [pc, #76]	; (8007f60 <HAL_TIMEx_MasterConfigSynchronization+0x100>)
 8007f14:	4293      	cmp	r3, r2
 8007f16:	d10c      	bne.n	8007f32 <HAL_TIMEx_MasterConfigSynchronization+0xd2>
 8007f18:	68bb      	ldr	r3, [r7, #8]
 8007f1a:	f023 0380 	bic.w	r3, r3, #128	; 0x80
 8007f1e:	60bb      	str	r3, [r7, #8]
 8007f20:	683b      	ldr	r3, [r7, #0]
 8007f22:	689b      	ldr	r3, [r3, #8]
 8007f24:	68ba      	ldr	r2, [r7, #8]
 8007f26:	4313      	orrs	r3, r2
 8007f28:	60bb      	str	r3, [r7, #8]
 8007f2a:	687b      	ldr	r3, [r7, #4]
 8007f2c:	681b      	ldr	r3, [r3, #0]
 8007f2e:	68ba      	ldr	r2, [r7, #8]
 8007f30:	609a      	str	r2, [r3, #8]
 8007f32:	687b      	ldr	r3, [r7, #4]
 8007f34:	2201      	movs	r2, #1
 8007f36:	f883 203d 	strb.w	r2, [r3, #61]	; 0x3d
 8007f3a:	687b      	ldr	r3, [r7, #4]
 8007f3c:	2200      	movs	r2, #0
 8007f3e:	f883 203c 	strb.w	r2, [r3, #60]	; 0x3c
 8007f42:	2300      	movs	r3, #0
 8007f44:	4618      	mov	r0, r3
 8007f46:	3714      	adds	r7, #20
 8007f48:	46bd      	mov	sp, r7
 8007f4a:	f85d 7b04 	ldr.w	r7, [sp], #4
 8007f4e:	4770      	bx	lr
 8007f50:	40012c00 	.word	0x40012c00
 8007f54:	40013400 	.word	0x40013400
 8007f58:	40000400 	.word	0x40000400
 8007f5c:	40000800 	.word	0x40000800
 8007f60:	40014000 	.word	0x40014000

08007f64 <HAL_TIMEx_ConfigBreakDeadTime>:
 8007f64:	b480      	push	{r7}
 8007f66:	b085      	sub	sp, #20
 8007f68:	af00      	add	r7, sp, #0
 8007f6a:	6078      	str	r0, [r7, #4]
 8007f6c:	6039      	str	r1, [r7, #0]
 8007f6e:	2300      	movs	r3, #0
 8007f70:	60fb      	str	r3, [r7, #12]
 8007f72:	687b      	ldr	r3, [r7, #4]
 8007f74:	f893 303c 	ldrb.w	r3, [r3, #60]	; 0x3c
 8007f78:	2b01      	cmp	r3, #1
 8007f7a:	d101      	bne.n	8007f80 <HAL_TIMEx_ConfigBreakDeadTime+0x1c>
 8007f7c:	2302      	movs	r3, #2
 8007f7e:	e087      	b.n	8008090 <HAL_TIMEx_ConfigBreakDeadTime+0x12c>
 8007f80:	687b      	ldr	r3, [r7, #4]
 8007f82:	2201      	movs	r2, #1
 8007f84:	f883 203c 	strb.w	r2, [r3, #60]	; 0x3c
 8007f88:	68fb      	ldr	r3, [r7, #12]
 8007f8a:	f023 02ff 	bic.w	r2, r3, #255	; 0xff
 8007f8e:	683b      	ldr	r3, [r7, #0]
 8007f90:	68db      	ldr	r3, [r3, #12]
 8007f92:	4313      	orrs	r3, r2
 8007f94:	60fb      	str	r3, [r7, #12]
 8007f96:	68fb      	ldr	r3, [r7, #12]
 8007f98:	f423 7240 	bic.w	r2, r3, #768	; 0x300
 8007f9c:	683b      	ldr	r3, [r7, #0]
 8007f9e:	689b      	ldr	r3, [r3, #8]
 8007fa0:	4313      	orrs	r3, r2
 8007fa2:	60fb      	str	r3, [r7, #12]
 8007fa4:	68fb      	ldr	r3, [r7, #12]
 8007fa6:	f423 6280 	bic.w	r2, r3, #1024	; 0x400
 8007faa:	683b      	ldr	r3, [r7, #0]
 8007fac:	685b      	ldr	r3, [r3, #4]
 8007fae:	4313      	orrs	r3, r2
 8007fb0:	60fb      	str	r3, [r7, #12]
 8007fb2:	68fb      	ldr	r3, [r7, #12]
 8007fb4:	f423 6200 	bic.w	r2, r3, #2048	; 0x800
 8007fb8:	683b      	ldr	r3, [r7, #0]
 8007fba:	681b      	ldr	r3, [r3, #0]
 8007fbc:	4313      	orrs	r3, r2
 8007fbe:	60fb      	str	r3, [r7, #12]
 8007fc0:	68fb      	ldr	r3, [r7, #12]
 8007fc2:	f423 5280 	bic.w	r2, r3, #4096	; 0x1000
 8007fc6:	683b      	ldr	r3, [r7, #0]
 8007fc8:	691b      	ldr	r3, [r3, #16]
 8007fca:	4313      	orrs	r3, r2
 8007fcc:	60fb      	str	r3, [r7, #12]
 8007fce:	68fb      	ldr	r3, [r7, #12]
 8007fd0:	f423 5200 	bic.w	r2, r3, #8192	; 0x2000
 8007fd4:	683b      	ldr	r3, [r7, #0]
 8007fd6:	695b      	ldr	r3, [r3, #20]
 8007fd8:	4313      	orrs	r3, r2
 8007fda:	60fb      	str	r3, [r7, #12]
 8007fdc:	68fb      	ldr	r3, [r7, #12]
 8007fde:	f423 4280 	bic.w	r2, r3, #16384	; 0x4000
 8007fe2:	683b      	ldr	r3, [r7, #0]
 8007fe4:	6b1b      	ldr	r3, [r3, #48]	; 0x30
 8007fe6:	4313      	orrs	r3, r2
 8007fe8:	60fb      	str	r3, [r7, #12]
 8007fea:	68fb      	ldr	r3, [r7, #12]
 8007fec:	f423 2270 	bic.w	r2, r3, #983040	; 0xf0000
 8007ff0:	683b      	ldr	r3, [r7, #0]
 8007ff2:	699b      	ldr	r3, [r3, #24]
 8007ff4:	041b      	lsls	r3, r3, #16
 8007ff6:	4313      	orrs	r3, r2
 8007ff8:	60fb      	str	r3, [r7, #12]
 8007ffa:	687b      	ldr	r3, [r7, #4]
 8007ffc:	681b      	ldr	r3, [r3, #0]
 8007ffe:	4a27      	ldr	r2, [pc, #156]	; (800809c <HAL_TIMEx_ConfigBreakDeadTime+0x138>)
 8008000:	4293      	cmp	r3, r2
 8008002:	d004      	beq.n	800800e <HAL_TIMEx_ConfigBreakDeadTime+0xaa>
 8008004:	687b      	ldr	r3, [r7, #4]
 8008006:	681b      	ldr	r3, [r3, #0]
 8008008:	4a25      	ldr	r2, [pc, #148]	; (80080a0 <HAL_TIMEx_ConfigBreakDeadTime+0x13c>)
 800800a:	4293      	cmp	r3, r2
 800800c:	d106      	bne.n	800801c <HAL_TIMEx_ConfigBreakDeadTime+0xb8>
 800800e:	68fb      	ldr	r3, [r7, #12]
 8008010:	f023 5280 	bic.w	r2, r3, #268435456	; 0x10000000
 8008014:	683b      	ldr	r3, [r7, #0]
 8008016:	69db      	ldr	r3, [r3, #28]
 8008018:	4313      	orrs	r3, r2
 800801a:	60fb      	str	r3, [r7, #12]
 800801c:	687b      	ldr	r3, [r7, #4]
 800801e:	681b      	ldr	r3, [r3, #0]
 8008020:	4a1e      	ldr	r2, [pc, #120]	; (800809c <HAL_TIMEx_ConfigBreakDeadTime+0x138>)
 8008022:	4293      	cmp	r3, r2
 8008024:	d004      	beq.n	8008030 <HAL_TIMEx_ConfigBreakDeadTime+0xcc>
 8008026:	687b      	ldr	r3, [r7, #4]
 8008028:	681b      	ldr	r3, [r3, #0]
 800802a:	4a1d      	ldr	r2, [pc, #116]	; (80080a0 <HAL_TIMEx_ConfigBreakDeadTime+0x13c>)
 800802c:	4293      	cmp	r3, r2
 800802e:	d126      	bne.n	800807e <HAL_TIMEx_ConfigBreakDeadTime+0x11a>
 8008030:	68fb      	ldr	r3, [r7, #12]
 8008032:	f423 0270 	bic.w	r2, r3, #15728640	; 0xf00000
 8008036:	683b      	ldr	r3, [r7, #0]
 8008038:	6a9b      	ldr	r3, [r3, #40]	; 0x28
 800803a:	051b      	lsls	r3, r3, #20
 800803c:	4313      	orrs	r3, r2
 800803e:	60fb      	str	r3, [r7, #12]
 8008040:	68fb      	ldr	r3, [r7, #12]
 8008042:	f023 7280 	bic.w	r2, r3, #16777216	; 0x1000000
 8008046:	683b      	ldr	r3, [r7, #0]
 8008048:	6a1b      	ldr	r3, [r3, #32]
 800804a:	4313      	orrs	r3, r2
 800804c:	60fb      	str	r3, [r7, #12]
 800804e:	68fb      	ldr	r3, [r7, #12]
 8008050:	f023 7200 	bic.w	r2, r3, #33554432	; 0x2000000
 8008054:	683b      	ldr	r3, [r7, #0]
 8008056:	6a5b      	ldr	r3, [r3, #36]	; 0x24
 8008058:	4313      	orrs	r3, r2
 800805a:	60fb      	str	r3, [r7, #12]
 800805c:	687b      	ldr	r3, [r7, #4]
 800805e:	681b      	ldr	r3, [r3, #0]
 8008060:	4a0e      	ldr	r2, [pc, #56]	; (800809c <HAL_TIMEx_ConfigBreakDeadTime+0x138>)
 8008062:	4293      	cmp	r3, r2
 8008064:	d004      	beq.n	8008070 <HAL_TIMEx_ConfigBreakDeadTime+0x10c>
 8008066:	687b      	ldr	r3, [r7, #4]
 8008068:	681b      	ldr	r3, [r3, #0]
 800806a:	4a0d      	ldr	r2, [pc, #52]	; (80080a0 <HAL_TIMEx_ConfigBreakDeadTime+0x13c>)
 800806c:	4293      	cmp	r3, r2
 800806e:	d106      	bne.n	800807e <HAL_TIMEx_ConfigBreakDeadTime+0x11a>
 8008070:	68fb      	ldr	r3, [r7, #12]
 8008072:	f023 5200 	bic.w	r2, r3, #536870912	; 0x20000000
 8008076:	683b      	ldr	r3, [r7, #0]
 8008078:	6adb      	ldr	r3, [r3, #44]	; 0x2c
 800807a:	4313      	orrs	r3, r2
 800807c:	60fb      	str	r3, [r7, #12]
 800807e:	687b      	ldr	r3, [r7, #4]
 8008080:	681b      	ldr	r3, [r3, #0]
 8008082:	68fa      	ldr	r2, [r7, #12]
 8008084:	645a      	str	r2, [r3, #68]	; 0x44
 8008086:	687b      	ldr	r3, [r7, #4]
 8008088:	2200      	movs	r2, #0
 800808a:	f883 203c 	strb.w	r2, [r3, #60]	; 0x3c
 800808e:	2300      	movs	r3, #0
 8008090:	4618      	mov	r0, r3
 8008092:	3714      	adds	r7, #20
 8008094:	46bd      	mov	sp, r7
 8008096:	f85d 7b04 	ldr.w	r7, [sp], #4
 800809a:	4770      	bx	lr
 800809c:	40012c00 	.word	0x40012c00
 80080a0:	40013400 	.word	0x40013400

080080a4 <HAL_TIMEx_ConfigBreakInput>:
 80080a4:	b480      	push	{r7}
 80080a6:	b08b      	sub	sp, #44	; 0x2c
 80080a8:	af00      	add	r7, sp, #0
 80080aa:	60f8      	str	r0, [r7, #12]
 80080ac:	60b9      	str	r1, [r7, #8]
 80080ae:	607a      	str	r2, [r7, #4]
 80080b0:	2300      	movs	r3, #0
 80080b2:	f887 3027 	strb.w	r3, [r7, #39]	; 0x27
 80080b6:	68fb      	ldr	r3, [r7, #12]
 80080b8:	f893 303c 	ldrb.w	r3, [r3, #60]	; 0x3c
 80080bc:	2b01      	cmp	r3, #1
 80080be:	d101      	bne.n	80080c4 <HAL_TIMEx_ConfigBreakInput+0x20>
 80080c0:	2302      	movs	r3, #2
 80080c2:	e0c1      	b.n	8008248 <HAL_TIMEx_ConfigBreakInput+0x1a4>
 80080c4:	68fb      	ldr	r3, [r7, #12]
 80080c6:	2201      	movs	r2, #1
 80080c8:	f883 203c 	strb.w	r2, [r3, #60]	; 0x3c
 80080cc:	687b      	ldr	r3, [r7, #4]
 80080ce:	681b      	ldr	r3, [r3, #0]
 80080d0:	3b01      	subs	r3, #1
 80080d2:	2b0f      	cmp	r3, #15
 80080d4:	d854      	bhi.n	8008180 <HAL_TIMEx_ConfigBreakInput+0xdc>
 80080d6:	a201      	add	r2, pc, #4	; (adr r2, 80080dc <HAL_TIMEx_ConfigBreakInput+0x38>)
 80080d8:	f852 f023 	ldr.w	pc, [r2, r3, lsl #2]
 80080dc:	0800811d 	.word	0x0800811d
 80080e0:	08008131 	.word	0x08008131
 80080e4:	08008181 	.word	0x08008181
 80080e8:	08008145 	.word	0x08008145
 80080ec:	08008181 	.word	0x08008181
 80080f0:	08008181 	.word	0x08008181
 80080f4:	08008181 	.word	0x08008181
 80080f8:	08008159 	.word	0x08008159
 80080fc:	08008181 	.word	0x08008181
 8008100:	08008181 	.word	0x08008181
 8008104:	08008181 	.word	0x08008181
 8008108:	08008181 	.word	0x08008181
 800810c:	08008181 	.word	0x08008181
 8008110:	08008181 	.word	0x08008181
 8008114:	08008181 	.word	0x08008181
 8008118:	0800816d 	.word	0x0800816d
 800811c:	2301      	movs	r3, #1
 800811e:	623b      	str	r3, [r7, #32]
 8008120:	2300      	movs	r3, #0
 8008122:	61bb      	str	r3, [r7, #24]
 8008124:	f44f 7300 	mov.w	r3, #512	; 0x200
 8008128:	61fb      	str	r3, [r7, #28]
 800812a:	2309      	movs	r3, #9
 800812c:	617b      	str	r3, [r7, #20]
 800812e:	e030      	b.n	8008192 <HAL_TIMEx_ConfigBreakInput+0xee>
 8008130:	2302      	movs	r3, #2
 8008132:	623b      	str	r3, [r7, #32]
 8008134:	2301      	movs	r3, #1
 8008136:	61bb      	str	r3, [r7, #24]
 8008138:	f44f 6380 	mov.w	r3, #1024	; 0x400
 800813c:	61fb      	str	r3, [r7, #28]
 800813e:	230a      	movs	r3, #10
 8008140:	617b      	str	r3, [r7, #20]
 8008142:	e026      	b.n	8008192 <HAL_TIMEx_ConfigBreakInput+0xee>
 8008144:	2304      	movs	r3, #4
 8008146:	623b      	str	r3, [r7, #32]
 8008148:	2302      	movs	r3, #2
 800814a:	61bb      	str	r3, [r7, #24]
 800814c:	f44f 6300 	mov.w	r3, #2048	; 0x800
 8008150:	61fb      	str	r3, [r7, #28]
 8008152:	230b      	movs	r3, #11
 8008154:	617b      	str	r3, [r7, #20]
 8008156:	e01c      	b.n	8008192 <HAL_TIMEx_ConfigBreakInput+0xee>
 8008158:	2308      	movs	r3, #8
 800815a:	623b      	str	r3, [r7, #32]
 800815c:	2303      	movs	r3, #3
 800815e:	61bb      	str	r3, [r7, #24]
 8008160:	f44f 5380 	mov.w	r3, #4096	; 0x1000
 8008164:	61fb      	str	r3, [r7, #28]
 8008166:	230c      	movs	r3, #12
 8008168:	617b      	str	r3, [r7, #20]
 800816a:	e012      	b.n	8008192 <HAL_TIMEx_ConfigBreakInput+0xee>
 800816c:	2310      	movs	r3, #16
 800816e:	623b      	str	r3, [r7, #32]
 8008170:	2304      	movs	r3, #4
 8008172:	61bb      	str	r3, [r7, #24]
 8008174:	f44f 5300 	mov.w	r3, #8192	; 0x2000
 8008178:	61fb      	str	r3, [r7, #28]
 800817a:	230d      	movs	r3, #13
 800817c:	617b      	str	r3, [r7, #20]
 800817e:	e008      	b.n	8008192 <HAL_TIMEx_ConfigBreakInput+0xee>
 8008180:	2300      	movs	r3, #0
 8008182:	623b      	str	r3, [r7, #32]
 8008184:	2300      	movs	r3, #0
 8008186:	61fb      	str	r3, [r7, #28]
 8008188:	2300      	movs	r3, #0
 800818a:	61bb      	str	r3, [r7, #24]
 800818c:	2300      	movs	r3, #0
 800818e:	617b      	str	r3, [r7, #20]
 8008190:	bf00      	nop
 8008192:	68bb      	ldr	r3, [r7, #8]
 8008194:	2b01      	cmp	r3, #1
 8008196:	d003      	beq.n	80081a0 <HAL_TIMEx_ConfigBreakInput+0xfc>
 8008198:	68bb      	ldr	r3, [r7, #8]
 800819a:	2b02      	cmp	r3, #2
 800819c:	d025      	beq.n	80081ea <HAL_TIMEx_ConfigBreakInput+0x146>
 800819e:	e049      	b.n	8008234 <HAL_TIMEx_ConfigBreakInput+0x190>
 80081a0:	68fb      	ldr	r3, [r7, #12]
 80081a2:	681b      	ldr	r3, [r3, #0]
 80081a4:	6e1b      	ldr	r3, [r3, #96]	; 0x60
 80081a6:	613b      	str	r3, [r7, #16]
 80081a8:	6a3b      	ldr	r3, [r7, #32]
 80081aa:	43db      	mvns	r3, r3
 80081ac:	693a      	ldr	r2, [r7, #16]
 80081ae:	4013      	ands	r3, r2
 80081b0:	613b      	str	r3, [r7, #16]
 80081b2:	687b      	ldr	r3, [r7, #4]
 80081b4:	685a      	ldr	r2, [r3, #4]
 80081b6:	69bb      	ldr	r3, [r7, #24]
 80081b8:	409a      	lsls	r2, r3
 80081ba:	6a3b      	ldr	r3, [r7, #32]
 80081bc:	4013      	ands	r3, r2
 80081be:	693a      	ldr	r2, [r7, #16]
 80081c0:	4313      	orrs	r3, r2
 80081c2:	613b      	str	r3, [r7, #16]
 80081c4:	69fb      	ldr	r3, [r7, #28]
 80081c6:	43db      	mvns	r3, r3
 80081c8:	693a      	ldr	r2, [r7, #16]
 80081ca:	4013      	ands	r3, r2
 80081cc:	613b      	str	r3, [r7, #16]
 80081ce:	687b      	ldr	r3, [r7, #4]
 80081d0:	689a      	ldr	r2, [r3, #8]
 80081d2:	697b      	ldr	r3, [r7, #20]
 80081d4:	409a      	lsls	r2, r3
 80081d6:	69fb      	ldr	r3, [r7, #28]
 80081d8:	4013      	ands	r3, r2
 80081da:	693a      	ldr	r2, [r7, #16]
 80081dc:	4313      	orrs	r3, r2
 80081de:	613b      	str	r3, [r7, #16]
 80081e0:	68fb      	ldr	r3, [r7, #12]
 80081e2:	681b      	ldr	r3, [r3, #0]
 80081e4:	693a      	ldr	r2, [r7, #16]
 80081e6:	661a      	str	r2, [r3, #96]	; 0x60
 80081e8:	e028      	b.n	800823c <HAL_TIMEx_ConfigBreakInput+0x198>
 80081ea:	68fb      	ldr	r3, [r7, #12]
 80081ec:	681b      	ldr	r3, [r3, #0]
 80081ee:	6e5b      	ldr	r3, [r3, #100]	; 0x64
 80081f0:	613b      	str	r3, [r7, #16]
 80081f2:	6a3b      	ldr	r3, [r7, #32]
 80081f4:	43db      	mvns	r3, r3
 80081f6:	693a      	ldr	r2, [r7, #16]
 80081f8:	4013      	ands	r3, r2
 80081fa:	613b      	str	r3, [r7, #16]
 80081fc:	687b      	ldr	r3, [r7, #4]
 80081fe:	685a      	ldr	r2, [r3, #4]
 8008200:	69bb      	ldr	r3, [r7, #24]
 8008202:	409a      	lsls	r2, r3
 8008204:	6a3b      	ldr	r3, [r7, #32]
 8008206:	4013      	ands	r3, r2
 8008208:	693a      	ldr	r2, [r7, #16]
 800820a:	4313      	orrs	r3, r2
 800820c:	613b      	str	r3, [r7, #16]
 800820e:	69fb      	ldr	r3, [r7, #28]
 8008210:	43db      	mvns	r3, r3
 8008212:	693a      	ldr	r2, [r7, #16]
 8008214:	4013      	ands	r3, r2
 8008216:	613b      	str	r3, [r7, #16]
 8008218:	687b      	ldr	r3, [r7, #4]
 800821a:	689a      	ldr	r2, [r3, #8]
 800821c:	697b      	ldr	r3, [r7, #20]
 800821e:	409a      	lsls	r2, r3
 8008220:	69fb      	ldr	r3, [r7, #28]
 8008222:	4013      	ands	r3, r2
 8008224:	693a      	ldr	r2, [r7, #16]
 8008226:	4313      	orrs	r3, r2
 8008228:	613b      	str	r3, [r7, #16]
 800822a:	68fb      	ldr	r3, [r7, #12]
 800822c:	681b      	ldr	r3, [r3, #0]
 800822e:	693a      	ldr	r2, [r7, #16]
 8008230:	665a      	str	r2, [r3, #100]	; 0x64
 8008232:	e003      	b.n	800823c <HAL_TIMEx_ConfigBreakInput+0x198>
 8008234:	2301      	movs	r3, #1
 8008236:	f887 3027 	strb.w	r3, [r7, #39]	; 0x27
 800823a:	bf00      	nop
 800823c:	68fb      	ldr	r3, [r7, #12]
 800823e:	2200      	movs	r2, #0
 8008240:	f883 203c 	strb.w	r2, [r3, #60]	; 0x3c
 8008244:	f897 3027 	ldrb.w	r3, [r7, #39]	; 0x27
 8008248:	4618      	mov	r0, r3
 800824a:	372c      	adds	r7, #44	; 0x2c
 800824c:	46bd      	mov	sp, r7
 800824e:	f85d 7b04 	ldr.w	r7, [sp], #4
 8008252:	4770      	bx	lr

08008254 <HAL_TIMEx_EnableDeadTimePreload>:
 8008254:	b480      	push	{r7}
 8008256:	b083      	sub	sp, #12
 8008258:	af00      	add	r7, sp, #0
 800825a:	6078      	str	r0, [r7, #4]
 800825c:	687b      	ldr	r3, [r7, #4]
 800825e:	681b      	ldr	r3, [r3, #0]
 8008260:	6d5a      	ldr	r2, [r3, #84]	; 0x54
 8008262:	687b      	ldr	r3, [r7, #4]
 8008264:	681b      	ldr	r3, [r3, #0]
 8008266:	f442 3200 	orr.w	r2, r2, #131072	; 0x20000
 800826a:	655a      	str	r2, [r3, #84]	; 0x54
 800826c:	2300      	movs	r3, #0
 800826e:	4618      	mov	r0, r3
 8008270:	370c      	adds	r7, #12
 8008272:	46bd      	mov	sp, r7
 8008274:	f85d 7b04 	ldr.w	r7, [sp], #4
 8008278:	4770      	bx	lr

0800827a <HAL_TIMEx_CommutCallback>:
 800827a:	b480      	push	{r7}
 800827c:	b083      	sub	sp, #12
 800827e:	af00      	add	r7, sp, #0
 8008280:	6078      	str	r0, [r7, #4]
 8008282:	bf00      	nop
 8008284:	370c      	adds	r7, #12
 8008286:	46bd      	mov	sp, r7
 8008288:	f85d 7b04 	ldr.w	r7, [sp], #4
 800828c:	4770      	bx	lr

0800828e <HAL_TIMEx_Break2Callback>:
 800828e:	b480      	push	{r7}
 8008290:	b083      	sub	sp, #12
 8008292:	af00      	add	r7, sp, #0
 8008294:	6078      	str	r0, [r7, #4]
 8008296:	bf00      	nop
 8008298:	370c      	adds	r7, #12
 800829a:	46bd      	mov	sp, r7
 800829c:	f85d 7b04 	ldr.w	r7, [sp], #4
 80082a0:	4770      	bx	lr

080082a2 <HAL_TIMEx_EncoderIndexCallback>:
 80082a2:	b480      	push	{r7}
 80082a4:	b083      	sub	sp, #12
 80082a6:	af00      	add	r7, sp, #0
 80082a8:	6078      	str	r0, [r7, #4]
 80082aa:	bf00      	nop
 80082ac:	370c      	adds	r7, #12
 80082ae:	46bd      	mov	sp, r7
 80082b0:	f85d 7b04 	ldr.w	r7, [sp], #4
 80082b4:	4770      	bx	lr

080082b6 <HAL_TIMEx_DirectionChangeCallback>:
 80082b6:	b480      	push	{r7}
 80082b8:	b083      	sub	sp, #12
 80082ba:	af00      	add	r7, sp, #0
 80082bc:	6078      	str	r0, [r7, #4]
 80082be:	bf00      	nop
 80082c0:	370c      	adds	r7, #12
 80082c2:	46bd      	mov	sp, r7
 80082c4:	f85d 7b04 	ldr.w	r7, [sp], #4
 80082c8:	4770      	bx	lr

080082ca <HAL_TIMEx_IndexErrorCallback>:
 80082ca:	b480      	push	{r7}
 80082cc:	b083      	sub	sp, #12
 80082ce:	af00      	add	r7, sp, #0
 80082d0:	6078      	str	r0, [r7, #4]
 80082d2:	bf00      	nop
 80082d4:	370c      	adds	r7, #12
 80082d6:	46bd      	mov	sp, r7
 80082d8:	f85d 7b04 	ldr.w	r7, [sp], #4
 80082dc:	4770      	bx	lr

080082de <HAL_TIMEx_TransitionErrorCallback>:
 80082de:	b480      	push	{r7}
 80082e0:	b083      	sub	sp, #12
 80082e2:	af00      	add	r7, sp, #0
 80082e4:	6078      	str	r0, [r7, #4]
 80082e6:	bf00      	nop
 80082e8:	370c      	adds	r7, #12
 80082ea:	46bd      	mov	sp, r7
 80082ec:	f85d 7b04 	ldr.w	r7, [sp], #4
 80082f0:	4770      	bx	lr

080082f2 <TIM_CCxNChannelCmd>:
 80082f2:	b480      	push	{r7}
 80082f4:	b087      	sub	sp, #28
 80082f6:	af00      	add	r7, sp, #0
 80082f8:	60f8      	str	r0, [r7, #12]
 80082fa:	60b9      	str	r1, [r7, #8]
 80082fc:	607a      	str	r2, [r7, #4]
 80082fe:	68bb      	ldr	r3, [r7, #8]
 8008300:	f003 031f 	and.w	r3, r3, #31
 8008304:	2204      	movs	r2, #4
 8008306:	fa02 f303 	lsl.w	r3, r2, r3
 800830a:	617b      	str	r3, [r7, #20]
 800830c:	68fb      	ldr	r3, [r7, #12]
 800830e:	6a1a      	ldr	r2, [r3, #32]
 8008310:	697b      	ldr	r3, [r7, #20]
 8008312:	43db      	mvns	r3, r3
 8008314:	401a      	ands	r2, r3
 8008316:	68fb      	ldr	r3, [r7, #12]
 8008318:	621a      	str	r2, [r3, #32]
 800831a:	68fb      	ldr	r3, [r7, #12]
 800831c:	6a1a      	ldr	r2, [r3, #32]
 800831e:	68bb      	ldr	r3, [r7, #8]
 8008320:	f003 031f 	and.w	r3, r3, #31
 8008324:	6879      	ldr	r1, [r7, #4]
 8008326:	fa01 f303 	lsl.w	r3, r1, r3
 800832a:	431a      	orrs	r2, r3
 800832c:	68fb      	ldr	r3, [r7, #12]
 800832e:	621a      	str	r2, [r3, #32]
 8008330:	bf00      	nop
 8008332:	371c      	adds	r7, #28
 8008334:	46bd      	mov	sp, r7
 8008336:	f85d 7b04 	ldr.w	r7, [sp], #4
 800833a:	4770      	bx	lr

0800833c <LL_GPIO_SetPinMode>:
 800833c:	b480      	push	{r7}
 800833e:	b08b      	sub	sp, #44	; 0x2c
 8008340:	af00      	add	r7, sp, #0
 8008342:	60f8      	str	r0, [r7, #12]
 8008344:	60b9      	str	r1, [r7, #8]
 8008346:	607a      	str	r2, [r7, #4]
 8008348:	68fb      	ldr	r3, [r7, #12]
 800834a:	681a      	ldr	r2, [r3, #0]
 800834c:	68bb      	ldr	r3, [r7, #8]
 800834e:	617b      	str	r3, [r7, #20]
 8008350:	697b      	ldr	r3, [r7, #20]
 8008352:	fa93 f3a3 	rbit	r3, r3
 8008356:	613b      	str	r3, [r7, #16]
 8008358:	693b      	ldr	r3, [r7, #16]
 800835a:	61bb      	str	r3, [r7, #24]
 800835c:	69bb      	ldr	r3, [r7, #24]
 800835e:	2b00      	cmp	r3, #0
 8008360:	d101      	bne.n	8008366 <LL_GPIO_SetPinMode+0x2a>
 8008362:	2320      	movs	r3, #32
 8008364:	e003      	b.n	800836e <LL_GPIO_SetPinMode+0x32>
 8008366:	69bb      	ldr	r3, [r7, #24]
 8008368:	fab3 f383 	clz	r3, r3
 800836c:	b2db      	uxtb	r3, r3
 800836e:	005b      	lsls	r3, r3, #1
 8008370:	2103      	movs	r1, #3
 8008372:	fa01 f303 	lsl.w	r3, r1, r3
 8008376:	43db      	mvns	r3, r3
 8008378:	401a      	ands	r2, r3
 800837a:	68bb      	ldr	r3, [r7, #8]
 800837c:	623b      	str	r3, [r7, #32]
 800837e:	6a3b      	ldr	r3, [r7, #32]
 8008380:	fa93 f3a3 	rbit	r3, r3
 8008384:	61fb      	str	r3, [r7, #28]
 8008386:	69fb      	ldr	r3, [r7, #28]
 8008388:	627b      	str	r3, [r7, #36]	; 0x24
 800838a:	6a7b      	ldr	r3, [r7, #36]	; 0x24
 800838c:	2b00      	cmp	r3, #0
 800838e:	d101      	bne.n	8008394 <LL_GPIO_SetPinMode+0x58>
 8008390:	2320      	movs	r3, #32
 8008392:	e003      	b.n	800839c <LL_GPIO_SetPinMode+0x60>
 8008394:	6a7b      	ldr	r3, [r7, #36]	; 0x24
 8008396:	fab3 f383 	clz	r3, r3
 800839a:	b2db      	uxtb	r3, r3
 800839c:	005b      	lsls	r3, r3, #1
 800839e:	6879      	ldr	r1, [r7, #4]
 80083a0:	fa01 f303 	lsl.w	r3, r1, r3
 80083a4:	431a      	orrs	r2, r3
 80083a6:	68fb      	ldr	r3, [r7, #12]
 80083a8:	601a      	str	r2, [r3, #0]
 80083aa:	bf00      	nop
 80083ac:	372c      	adds	r7, #44	; 0x2c
 80083ae:	46bd      	mov	sp, r7
 80083b0:	f85d 7b04 	ldr.w	r7, [sp], #4
 80083b4:	4770      	bx	lr

080083b6 <LL_GPIO_SetPinOutputType>:
 80083b6:	b480      	push	{r7}
 80083b8:	b085      	sub	sp, #20
 80083ba:	af00      	add	r7, sp, #0
 80083bc:	60f8      	str	r0, [r7, #12]
 80083be:	60b9      	str	r1, [r7, #8]
 80083c0:	607a      	str	r2, [r7, #4]
 80083c2:	68fb      	ldr	r3, [r7, #12]
 80083c4:	685a      	ldr	r2, [r3, #4]
 80083c6:	68bb      	ldr	r3, [r7, #8]
 80083c8:	43db      	mvns	r3, r3
 80083ca:	401a      	ands	r2, r3
 80083cc:	68bb      	ldr	r3, [r7, #8]
 80083ce:	6879      	ldr	r1, [r7, #4]
 80083d0:	fb01 f303 	mul.w	r3, r1, r3
 80083d4:	431a      	orrs	r2, r3
 80083d6:	68fb      	ldr	r3, [r7, #12]
 80083d8:	605a      	str	r2, [r3, #4]
 80083da:	bf00      	nop
 80083dc:	3714      	adds	r7, #20
 80083de:	46bd      	mov	sp, r7
 80083e0:	f85d 7b04 	ldr.w	r7, [sp], #4
 80083e4:	4770      	bx	lr

080083e6 <LL_GPIO_SetPinSpeed>:
 80083e6:	b480      	push	{r7}
 80083e8:	b08b      	sub	sp, #44	; 0x2c
 80083ea:	af00      	add	r7, sp, #0
 80083ec:	60f8      	str	r0, [r7, #12]
 80083ee:	60b9      	str	r1, [r7, #8]
 80083f0:	607a      	str	r2, [r7, #4]
 80083f2:	68fb      	ldr	r3, [r7, #12]
 80083f4:	689a      	ldr	r2, [r3, #8]
 80083f6:	68bb      	ldr	r3, [r7, #8]
 80083f8:	617b      	str	r3, [r7, #20]
 80083fa:	697b      	ldr	r3, [r7, #20]
 80083fc:	fa93 f3a3 	rbit	r3, r3
 8008400:	613b      	str	r3, [r7, #16]
 8008402:	693b      	ldr	r3, [r7, #16]
 8008404:	61bb      	str	r3, [r7, #24]
 8008406:	69bb      	ldr	r3, [r7, #24]
 8008408:	2b00      	cmp	r3, #0
 800840a:	d101      	bne.n	8008410 <LL_GPIO_SetPinSpeed+0x2a>
 800840c:	2320      	movs	r3, #32
 800840e:	e003      	b.n	8008418 <LL_GPIO_SetPinSpeed+0x32>
 8008410:	69bb      	ldr	r3, [r7, #24]
 8008412:	fab3 f383 	clz	r3, r3
 8008416:	b2db      	uxtb	r3, r3
 8008418:	005b      	lsls	r3, r3, #1
 800841a:	2103      	movs	r1, #3
 800841c:	fa01 f303 	lsl.w	r3, r1, r3
 8008420:	43db      	mvns	r3, r3
 8008422:	401a      	ands	r2, r3
 8008424:	68bb      	ldr	r3, [r7, #8]
 8008426:	623b      	str	r3, [r7, #32]
 8008428:	6a3b      	ldr	r3, [r7, #32]
 800842a:	fa93 f3a3 	rbit	r3, r3
 800842e:	61fb      	str	r3, [r7, #28]
 8008430:	69fb      	ldr	r3, [r7, #28]
 8008432:	627b      	str	r3, [r7, #36]	; 0x24
 8008434:	6a7b      	ldr	r3, [r7, #36]	; 0x24
 8008436:	2b00      	cmp	r3, #0
 8008438:	d101      	bne.n	800843e <LL_GPIO_SetPinSpeed+0x58>
 800843a:	2320      	movs	r3, #32
 800843c:	e003      	b.n	8008446 <LL_GPIO_SetPinSpeed+0x60>
 800843e:	6a7b      	ldr	r3, [r7, #36]	; 0x24
 8008440:	fab3 f383 	clz	r3, r3
 8008444:	b2db      	uxtb	r3, r3
 8008446:	005b      	lsls	r3, r3, #1
 8008448:	6879      	ldr	r1, [r7, #4]
 800844a:	fa01 f303 	lsl.w	r3, r1, r3
 800844e:	431a      	orrs	r2, r3
 8008450:	68fb      	ldr	r3, [r7, #12]
 8008452:	609a      	str	r2, [r3, #8]
 8008454:	bf00      	nop
 8008456:	372c      	adds	r7, #44	; 0x2c
 8008458:	46bd      	mov	sp, r7
 800845a:	f85d 7b04 	ldr.w	r7, [sp], #4
 800845e:	4770      	bx	lr

08008460 <LL_GPIO_SetPinPull>:
 8008460:	b480      	push	{r7}
 8008462:	b08b      	sub	sp, #44	; 0x2c
 8008464:	af00      	add	r7, sp, #0
 8008466:	60f8      	str	r0, [r7, #12]
 8008468:	60b9      	str	r1, [r7, #8]
 800846a:	607a      	str	r2, [r7, #4]
 800846c:	68fb      	ldr	r3, [r7, #12]
 800846e:	68da      	ldr	r2, [r3, #12]
 8008470:	68bb      	ldr	r3, [r7, #8]
 8008472:	617b      	str	r3, [r7, #20]
 8008474:	697b      	ldr	r3, [r7, #20]
 8008476:	fa93 f3a3 	rbit	r3, r3
 800847a:	613b      	str	r3, [r7, #16]
 800847c:	693b      	ldr	r3, [r7, #16]
 800847e:	61bb      	str	r3, [r7, #24]
 8008480:	69bb      	ldr	r3, [r7, #24]
 8008482:	2b00      	cmp	r3, #0
 8008484:	d101      	bne.n	800848a <LL_GPIO_SetPinPull+0x2a>
 8008486:	2320      	movs	r3, #32
 8008488:	e003      	b.n	8008492 <LL_GPIO_SetPinPull+0x32>
 800848a:	69bb      	ldr	r3, [r7, #24]
 800848c:	fab3 f383 	clz	r3, r3
 8008490:	b2db      	uxtb	r3, r3
 8008492:	005b      	lsls	r3, r3, #1
 8008494:	2103      	movs	r1, #3
 8008496:	fa01 f303 	lsl.w	r3, r1, r3
 800849a:	43db      	mvns	r3, r3
 800849c:	401a      	ands	r2, r3
 800849e:	68bb      	ldr	r3, [r7, #8]
 80084a0:	623b      	str	r3, [r7, #32]
 80084a2:	6a3b      	ldr	r3, [r7, #32]
 80084a4:	fa93 f3a3 	rbit	r3, r3
 80084a8:	61fb      	str	r3, [r7, #28]
 80084aa:	69fb      	ldr	r3, [r7, #28]
 80084ac:	627b      	str	r3, [r7, #36]	; 0x24
 80084ae:	6a7b      	ldr	r3, [r7, #36]	; 0x24
 80084b0:	2b00      	cmp	r3, #0
 80084b2:	d101      	bne.n	80084b8 <LL_GPIO_SetPinPull+0x58>
 80084b4:	2320      	movs	r3, #32
 80084b6:	e003      	b.n	80084c0 <LL_GPIO_SetPinPull+0x60>
 80084b8:	6a7b      	ldr	r3, [r7, #36]	; 0x24
 80084ba:	fab3 f383 	clz	r3, r3
 80084be:	b2db      	uxtb	r3, r3
 80084c0:	005b      	lsls	r3, r3, #1
 80084c2:	6879      	ldr	r1, [r7, #4]
 80084c4:	fa01 f303 	lsl.w	r3, r1, r3
 80084c8:	431a      	orrs	r2, r3
 80084ca:	68fb      	ldr	r3, [r7, #12]
 80084cc:	60da      	str	r2, [r3, #12]
 80084ce:	bf00      	nop
 80084d0:	372c      	adds	r7, #44	; 0x2c
 80084d2:	46bd      	mov	sp, r7
 80084d4:	f85d 7b04 	ldr.w	r7, [sp], #4
 80084d8:	4770      	bx	lr

080084da <LL_GPIO_SetAFPin_0_7>:
 80084da:	b480      	push	{r7}
 80084dc:	b08b      	sub	sp, #44	; 0x2c
 80084de:	af00      	add	r7, sp, #0
 80084e0:	60f8      	str	r0, [r7, #12]
 80084e2:	60b9      	str	r1, [r7, #8]
 80084e4:	607a      	str	r2, [r7, #4]
 80084e6:	68fb      	ldr	r3, [r7, #12]
 80084e8:	6a1a      	ldr	r2, [r3, #32]
 80084ea:	68bb      	ldr	r3, [r7, #8]
 80084ec:	617b      	str	r3, [r7, #20]
 80084ee:	697b      	ldr	r3, [r7, #20]
 80084f0:	fa93 f3a3 	rbit	r3, r3
 80084f4:	613b      	str	r3, [r7, #16]
 80084f6:	693b      	ldr	r3, [r7, #16]
 80084f8:	61bb      	str	r3, [r7, #24]
 80084fa:	69bb      	ldr	r3, [r7, #24]
 80084fc:	2b00      	cmp	r3, #0
 80084fe:	d101      	bne.n	8008504 <LL_GPIO_SetAFPin_0_7+0x2a>
 8008500:	2320      	movs	r3, #32
 8008502:	e003      	b.n	800850c <LL_GPIO_SetAFPin_0_7+0x32>
 8008504:	69bb      	ldr	r3, [r7, #24]
 8008506:	fab3 f383 	clz	r3, r3
 800850a:	b2db      	uxtb	r3, r3
 800850c:	009b      	lsls	r3, r3, #2
 800850e:	210f      	movs	r1, #15
 8008510:	fa01 f303 	lsl.w	r3, r1, r3
 8008514:	43db      	mvns	r3, r3
 8008516:	401a      	ands	r2, r3
 8008518:	68bb      	ldr	r3, [r7, #8]
 800851a:	623b      	str	r3, [r7, #32]
 800851c:	6a3b      	ldr	r3, [r7, #32]
 800851e:	fa93 f3a3 	rbit	r3, r3
 8008522:	61fb      	str	r3, [r7, #28]
 8008524:	69fb      	ldr	r3, [r7, #28]
 8008526:	627b      	str	r3, [r7, #36]	; 0x24
 8008528:	6a7b      	ldr	r3, [r7, #36]	; 0x24
 800852a:	2b00      	cmp	r3, #0
 800852c:	d101      	bne.n	8008532 <LL_GPIO_SetAFPin_0_7+0x58>
 800852e:	2320      	movs	r3, #32
 8008530:	e003      	b.n	800853a <LL_GPIO_SetAFPin_0_7+0x60>
 8008532:	6a7b      	ldr	r3, [r7, #36]	; 0x24
 8008534:	fab3 f383 	clz	r3, r3
 8008538:	b2db      	uxtb	r3, r3
 800853a:	009b      	lsls	r3, r3, #2
 800853c:	6879      	ldr	r1, [r7, #4]
 800853e:	fa01 f303 	lsl.w	r3, r1, r3
 8008542:	431a      	orrs	r2, r3
 8008544:	68fb      	ldr	r3, [r7, #12]
 8008546:	621a      	str	r2, [r3, #32]
 8008548:	bf00      	nop
 800854a:	372c      	adds	r7, #44	; 0x2c
 800854c:	46bd      	mov	sp, r7
 800854e:	f85d 7b04 	ldr.w	r7, [sp], #4
 8008552:	4770      	bx	lr

08008554 <LL_GPIO_SetAFPin_8_15>:
 8008554:	b480      	push	{r7}
 8008556:	b08b      	sub	sp, #44	; 0x2c
 8008558:	af00      	add	r7, sp, #0
 800855a:	60f8      	str	r0, [r7, #12]
 800855c:	60b9      	str	r1, [r7, #8]
 800855e:	607a      	str	r2, [r7, #4]
 8008560:	68fb      	ldr	r3, [r7, #12]
 8008562:	6a5a      	ldr	r2, [r3, #36]	; 0x24
 8008564:	68bb      	ldr	r3, [r7, #8]
 8008566:	0a1b      	lsrs	r3, r3, #8
 8008568:	617b      	str	r3, [r7, #20]
 800856a:	697b      	ldr	r3, [r7, #20]
 800856c:	fa93 f3a3 	rbit	r3, r3
 8008570:	613b      	str	r3, [r7, #16]
 8008572:	693b      	ldr	r3, [r7, #16]
 8008574:	61bb      	str	r3, [r7, #24]
 8008576:	69bb      	ldr	r3, [r7, #24]
 8008578:	2b00      	cmp	r3, #0
 800857a:	d101      	bne.n	8008580 <LL_GPIO_SetAFPin_8_15+0x2c>
 800857c:	2320      	movs	r3, #32
 800857e:	e003      	b.n	8008588 <LL_GPIO_SetAFPin_8_15+0x34>
 8008580:	69bb      	ldr	r3, [r7, #24]
 8008582:	fab3 f383 	clz	r3, r3
 8008586:	b2db      	uxtb	r3, r3
 8008588:	009b      	lsls	r3, r3, #2
 800858a:	210f      	movs	r1, #15
 800858c:	fa01 f303 	lsl.w	r3, r1, r3
 8008590:	43db      	mvns	r3, r3
 8008592:	401a      	ands	r2, r3
 8008594:	68bb      	ldr	r3, [r7, #8]
 8008596:	0a1b      	lsrs	r3, r3, #8
 8008598:	623b      	str	r3, [r7, #32]
 800859a:	6a3b      	ldr	r3, [r7, #32]
 800859c:	fa93 f3a3 	rbit	r3, r3
 80085a0:	61fb      	str	r3, [r7, #28]
 80085a2:	69fb      	ldr	r3, [r7, #28]
 80085a4:	627b      	str	r3, [r7, #36]	; 0x24
 80085a6:	6a7b      	ldr	r3, [r7, #36]	; 0x24
 80085a8:	2b00      	cmp	r3, #0
 80085aa:	d101      	bne.n	80085b0 <LL_GPIO_SetAFPin_8_15+0x5c>
 80085ac:	2320      	movs	r3, #32
 80085ae:	e003      	b.n	80085b8 <LL_GPIO_SetAFPin_8_15+0x64>
 80085b0:	6a7b      	ldr	r3, [r7, #36]	; 0x24
 80085b2:	fab3 f383 	clz	r3, r3
 80085b6:	b2db      	uxtb	r3, r3
 80085b8:	009b      	lsls	r3, r3, #2
 80085ba:	6879      	ldr	r1, [r7, #4]
 80085bc:	fa01 f303 	lsl.w	r3, r1, r3
 80085c0:	431a      	orrs	r2, r3
 80085c2:	68fb      	ldr	r3, [r7, #12]
 80085c4:	625a      	str	r2, [r3, #36]	; 0x24
 80085c6:	bf00      	nop
 80085c8:	372c      	adds	r7, #44	; 0x2c
 80085ca:	46bd      	mov	sp, r7
 80085cc:	f85d 7b04 	ldr.w	r7, [sp], #4
 80085d0:	4770      	bx	lr

080085d2 <LL_GPIO_Init>:
 80085d2:	b580      	push	{r7, lr}
 80085d4:	b088      	sub	sp, #32
 80085d6:	af00      	add	r7, sp, #0
 80085d8:	6078      	str	r0, [r7, #4]
 80085da:	6039      	str	r1, [r7, #0]
 80085dc:	683b      	ldr	r3, [r7, #0]
 80085de:	681b      	ldr	r3, [r3, #0]
 80085e0:	613b      	str	r3, [r7, #16]
 80085e2:	693b      	ldr	r3, [r7, #16]
 80085e4:	fa93 f3a3 	rbit	r3, r3
 80085e8:	60fb      	str	r3, [r7, #12]
 80085ea:	68fb      	ldr	r3, [r7, #12]
 80085ec:	617b      	str	r3, [r7, #20]
 80085ee:	697b      	ldr	r3, [r7, #20]
 80085f0:	2b00      	cmp	r3, #0
 80085f2:	d101      	bne.n	80085f8 <LL_GPIO_Init+0x26>
 80085f4:	2320      	movs	r3, #32
 80085f6:	e003      	b.n	8008600 <LL_GPIO_Init+0x2e>
 80085f8:	697b      	ldr	r3, [r7, #20]
 80085fa:	fab3 f383 	clz	r3, r3
 80085fe:	b2db      	uxtb	r3, r3
 8008600:	61fb      	str	r3, [r7, #28]
 8008602:	e048      	b.n	8008696 <LL_GPIO_Init+0xc4>
 8008604:	683b      	ldr	r3, [r7, #0]
 8008606:	681a      	ldr	r2, [r3, #0]
 8008608:	2101      	movs	r1, #1
 800860a:	69fb      	ldr	r3, [r7, #28]
 800860c:	fa01 f303 	lsl.w	r3, r1, r3
 8008610:	4013      	ands	r3, r2
 8008612:	61bb      	str	r3, [r7, #24]
 8008614:	69bb      	ldr	r3, [r7, #24]
 8008616:	2b00      	cmp	r3, #0
 8008618:	d03a      	beq.n	8008690 <LL_GPIO_Init+0xbe>
 800861a:	683b      	ldr	r3, [r7, #0]
 800861c:	685b      	ldr	r3, [r3, #4]
 800861e:	2b01      	cmp	r3, #1
 8008620:	d003      	beq.n	800862a <LL_GPIO_Init+0x58>
 8008622:	683b      	ldr	r3, [r7, #0]
 8008624:	685b      	ldr	r3, [r3, #4]
 8008626:	2b02      	cmp	r3, #2
 8008628:	d10e      	bne.n	8008648 <LL_GPIO_Init+0x76>
 800862a:	683b      	ldr	r3, [r7, #0]
 800862c:	689b      	ldr	r3, [r3, #8]
 800862e:	461a      	mov	r2, r3
 8008630:	69b9      	ldr	r1, [r7, #24]
 8008632:	6878      	ldr	r0, [r7, #4]
 8008634:	f7ff fed7 	bl	80083e6 <LL_GPIO_SetPinSpeed>
 8008638:	683b      	ldr	r3, [r7, #0]
 800863a:	6819      	ldr	r1, [r3, #0]
 800863c:	683b      	ldr	r3, [r7, #0]
 800863e:	68db      	ldr	r3, [r3, #12]
 8008640:	461a      	mov	r2, r3
 8008642:	6878      	ldr	r0, [r7, #4]
 8008644:	f7ff feb7 	bl	80083b6 <LL_GPIO_SetPinOutputType>
 8008648:	683b      	ldr	r3, [r7, #0]
 800864a:	691b      	ldr	r3, [r3, #16]
 800864c:	461a      	mov	r2, r3
 800864e:	69b9      	ldr	r1, [r7, #24]
 8008650:	6878      	ldr	r0, [r7, #4]
 8008652:	f7ff ff05 	bl	8008460 <LL_GPIO_SetPinPull>
 8008656:	683b      	ldr	r3, [r7, #0]
 8008658:	685b      	ldr	r3, [r3, #4]
 800865a:	2b02      	cmp	r3, #2
 800865c:	d111      	bne.n	8008682 <LL_GPIO_Init+0xb0>
 800865e:	69bb      	ldr	r3, [r7, #24]
 8008660:	2bff      	cmp	r3, #255	; 0xff
 8008662:	d807      	bhi.n	8008674 <LL_GPIO_Init+0xa2>
 8008664:	683b      	ldr	r3, [r7, #0]
 8008666:	695b      	ldr	r3, [r3, #20]
 8008668:	461a      	mov	r2, r3
 800866a:	69b9      	ldr	r1, [r7, #24]
 800866c:	6878      	ldr	r0, [r7, #4]
 800866e:	f7ff ff34 	bl	80084da <LL_GPIO_SetAFPin_0_7>
 8008672:	e006      	b.n	8008682 <LL_GPIO_Init+0xb0>
 8008674:	683b      	ldr	r3, [r7, #0]
 8008676:	695b      	ldr	r3, [r3, #20]
 8008678:	461a      	mov	r2, r3
 800867a:	69b9      	ldr	r1, [r7, #24]
 800867c:	6878      	ldr	r0, [r7, #4]
 800867e:	f7ff ff69 	bl	8008554 <LL_GPIO_SetAFPin_8_15>
 8008682:	683b      	ldr	r3, [r7, #0]
 8008684:	685b      	ldr	r3, [r3, #4]
 8008686:	461a      	mov	r2, r3
 8008688:	69b9      	ldr	r1, [r7, #24]
 800868a:	6878      	ldr	r0, [r7, #4]
 800868c:	f7ff fe56 	bl	800833c <LL_GPIO_SetPinMode>
 8008690:	69fb      	ldr	r3, [r7, #28]
 8008692:	3301      	adds	r3, #1
 8008694:	61fb      	str	r3, [r7, #28]
 8008696:	683b      	ldr	r3, [r7, #0]
 8008698:	681a      	ldr	r2, [r3, #0]
 800869a:	69fb      	ldr	r3, [r7, #28]
 800869c:	fa22 f303 	lsr.w	r3, r2, r3
 80086a0:	2b00      	cmp	r3, #0
 80086a2:	d1af      	bne.n	8008604 <LL_GPIO_Init+0x32>
 80086a4:	2300      	movs	r3, #0
 80086a6:	4618      	mov	r0, r3
 80086a8:	3720      	adds	r7, #32
 80086aa:	46bd      	mov	sp, r7
 80086ac:	bd80      	pop	{r7, pc}

080086ae <LL_SPI_IsEnabled>:
 80086ae:	b480      	push	{r7}
 80086b0:	b083      	sub	sp, #12
 80086b2:	af00      	add	r7, sp, #0
 80086b4:	6078      	str	r0, [r7, #4]
 80086b6:	687b      	ldr	r3, [r7, #4]
 80086b8:	681b      	ldr	r3, [r3, #0]
 80086ba:	f003 0340 	and.w	r3, r3, #64	; 0x40
 80086be:	2b40      	cmp	r3, #64	; 0x40
 80086c0:	d101      	bne.n	80086c6 <LL_SPI_IsEnabled+0x18>
 80086c2:	2301      	movs	r3, #1
 80086c4:	e000      	b.n	80086c8 <LL_SPI_IsEnabled+0x1a>
 80086c6:	2300      	movs	r3, #0
 80086c8:	4618      	mov	r0, r3
 80086ca:	370c      	adds	r7, #12
 80086cc:	46bd      	mov	sp, r7
 80086ce:	f85d 7b04 	ldr.w	r7, [sp], #4
 80086d2:	4770      	bx	lr

080086d4 <LL_SPI_SetRxFIFOThreshold>:
 80086d4:	b480      	push	{r7}
 80086d6:	b083      	sub	sp, #12
 80086d8:	af00      	add	r7, sp, #0
 80086da:	6078      	str	r0, [r7, #4]
 80086dc:	6039      	str	r1, [r7, #0]
 80086de:	687b      	ldr	r3, [r7, #4]
 80086e0:	685b      	ldr	r3, [r3, #4]
 80086e2:	f423 5280 	bic.w	r2, r3, #4096	; 0x1000
 80086e6:	683b      	ldr	r3, [r7, #0]
 80086e8:	431a      	orrs	r2, r3
 80086ea:	687b      	ldr	r3, [r7, #4]
 80086ec:	605a      	str	r2, [r3, #4]
 80086ee:	bf00      	nop
 80086f0:	370c      	adds	r7, #12
 80086f2:	46bd      	mov	sp, r7
 80086f4:	f85d 7b04 	ldr.w	r7, [sp], #4
 80086f8:	4770      	bx	lr

080086fa <LL_SPI_SetCRCPolynomial>:
 80086fa:	b480      	push	{r7}
 80086fc:	b083      	sub	sp, #12
 80086fe:	af00      	add	r7, sp, #0
 8008700:	6078      	str	r0, [r7, #4]
 8008702:	6039      	str	r1, [r7, #0]
 8008704:	683b      	ldr	r3, [r7, #0]
 8008706:	b29b      	uxth	r3, r3
 8008708:	461a      	mov	r2, r3
 800870a:	687b      	ldr	r3, [r7, #4]
 800870c:	611a      	str	r2, [r3, #16]
 800870e:	bf00      	nop
 8008710:	370c      	adds	r7, #12
 8008712:	46bd      	mov	sp, r7
 8008714:	f85d 7b04 	ldr.w	r7, [sp], #4
 8008718:	4770      	bx	lr

0800871a <LL_SPI_Init>:
 800871a:	b580      	push	{r7, lr}
 800871c:	b084      	sub	sp, #16
 800871e:	af00      	add	r7, sp, #0
 8008720:	6078      	str	r0, [r7, #4]
 8008722:	6039      	str	r1, [r7, #0]
 8008724:	2301      	movs	r3, #1
 8008726:	73fb      	strb	r3, [r7, #15]
 8008728:	6878      	ldr	r0, [r7, #4]
 800872a:	f7ff ffc0 	bl	80086ae <LL_SPI_IsEnabled>
 800872e:	4603      	mov	r3, r0
 8008730:	2b00      	cmp	r3, #0
 8008732:	d145      	bne.n	80087c0 <LL_SPI_Init+0xa6>
 8008734:	687b      	ldr	r3, [r7, #4]
 8008736:	681b      	ldr	r3, [r3, #0]
 8008738:	f423 437f 	bic.w	r3, r3, #65280	; 0xff00
 800873c:	f023 03bf 	bic.w	r3, r3, #191	; 0xbf
 8008740:	683a      	ldr	r2, [r7, #0]
 8008742:	6811      	ldr	r1, [r2, #0]
 8008744:	683a      	ldr	r2, [r7, #0]
 8008746:	6852      	ldr	r2, [r2, #4]
 8008748:	4311      	orrs	r1, r2
 800874a:	683a      	ldr	r2, [r7, #0]
 800874c:	68d2      	ldr	r2, [r2, #12]
 800874e:	4311      	orrs	r1, r2
 8008750:	683a      	ldr	r2, [r7, #0]
 8008752:	6912      	ldr	r2, [r2, #16]
 8008754:	4311      	orrs	r1, r2
 8008756:	683a      	ldr	r2, [r7, #0]
 8008758:	6952      	ldr	r2, [r2, #20]
 800875a:	4311      	orrs	r1, r2
 800875c:	683a      	ldr	r2, [r7, #0]
 800875e:	6992      	ldr	r2, [r2, #24]
 8008760:	4311      	orrs	r1, r2
 8008762:	683a      	ldr	r2, [r7, #0]
 8008764:	69d2      	ldr	r2, [r2, #28]
 8008766:	4311      	orrs	r1, r2
 8008768:	683a      	ldr	r2, [r7, #0]
 800876a:	6a12      	ldr	r2, [r2, #32]
 800876c:	430a      	orrs	r2, r1
 800876e:	431a      	orrs	r2, r3
 8008770:	687b      	ldr	r3, [r7, #4]
 8008772:	601a      	str	r2, [r3, #0]
 8008774:	687b      	ldr	r3, [r7, #4]
 8008776:	685b      	ldr	r3, [r3, #4]
 8008778:	f423 6370 	bic.w	r3, r3, #3840	; 0xf00
 800877c:	f023 0304 	bic.w	r3, r3, #4
 8008780:	683a      	ldr	r2, [r7, #0]
 8008782:	6891      	ldr	r1, [r2, #8]
 8008784:	683a      	ldr	r2, [r7, #0]
 8008786:	6952      	ldr	r2, [r2, #20]
 8008788:	0c12      	lsrs	r2, r2, #16
 800878a:	430a      	orrs	r2, r1
 800878c:	431a      	orrs	r2, r3
 800878e:	687b      	ldr	r3, [r7, #4]
 8008790:	605a      	str	r2, [r3, #4]
 8008792:	683b      	ldr	r3, [r7, #0]
 8008794:	689b      	ldr	r3, [r3, #8]
 8008796:	f5b3 6f00 	cmp.w	r3, #2048	; 0x800
 800879a:	d204      	bcs.n	80087a6 <LL_SPI_Init+0x8c>
 800879c:	f44f 5180 	mov.w	r1, #4096	; 0x1000
 80087a0:	6878      	ldr	r0, [r7, #4]
 80087a2:	f7ff ff97 	bl	80086d4 <LL_SPI_SetRxFIFOThreshold>
 80087a6:	683b      	ldr	r3, [r7, #0]
 80087a8:	6a1b      	ldr	r3, [r3, #32]
 80087aa:	f5b3 5f00 	cmp.w	r3, #8192	; 0x2000
 80087ae:	d105      	bne.n	80087bc <LL_SPI_Init+0xa2>
 80087b0:	683b      	ldr	r3, [r7, #0]
 80087b2:	6a5b      	ldr	r3, [r3, #36]	; 0x24
 80087b4:	4619      	mov	r1, r3
 80087b6:	6878      	ldr	r0, [r7, #4]
 80087b8:	f7ff ff9f 	bl	80086fa <LL_SPI_SetCRCPolynomial>
 80087bc:	2300      	movs	r3, #0
 80087be:	73fb      	strb	r3, [r7, #15]
 80087c0:	687b      	ldr	r3, [r7, #4]
 80087c2:	69db      	ldr	r3, [r3, #28]
 80087c4:	f423 6200 	bic.w	r2, r3, #2048	; 0x800
 80087c8:	687b      	ldr	r3, [r7, #4]
 80087ca:	61da      	str	r2, [r3, #28]
 80087cc:	7bfb      	ldrb	r3, [r7, #15]
 80087ce:	4618      	mov	r0, r3
 80087d0:	3710      	adds	r7, #16
 80087d2:	46bd      	mov	sp, r7
 80087d4:	bd80      	pop	{r7, pc}
	...

080087d8 <__libc_init_array>:
 80087d8:	b570      	push	{r4, r5, r6, lr}
 80087da:	4d0d      	ldr	r5, [pc, #52]	; (8008810 <__libc_init_array+0x38>)
 80087dc:	4c0d      	ldr	r4, [pc, #52]	; (8008814 <__libc_init_array+0x3c>)
 80087de:	1b64      	subs	r4, r4, r5
 80087e0:	10a4      	asrs	r4, r4, #2
 80087e2:	2600      	movs	r6, #0
 80087e4:	42a6      	cmp	r6, r4
 80087e6:	d109      	bne.n	80087fc <__libc_init_array+0x24>
 80087e8:	4d0b      	ldr	r5, [pc, #44]	; (8008818 <__libc_init_array+0x40>)
 80087ea:	4c0c      	ldr	r4, [pc, #48]	; (800881c <__libc_init_array+0x44>)
 80087ec:	f000 f820 	bl	8008830 <_init>
 80087f0:	1b64      	subs	r4, r4, r5
 80087f2:	10a4      	asrs	r4, r4, #2
 80087f4:	2600      	movs	r6, #0
 80087f6:	42a6      	cmp	r6, r4
 80087f8:	d105      	bne.n	8008806 <__libc_init_array+0x2e>
 80087fa:	bd70      	pop	{r4, r5, r6, pc}
 80087fc:	f855 3b04 	ldr.w	r3, [r5], #4
 8008800:	4798      	blx	r3
 8008802:	3601      	adds	r6, #1
 8008804:	e7ee      	b.n	80087e4 <__libc_init_array+0xc>
 8008806:	f855 3b04 	ldr.w	r3, [r5], #4
 800880a:	4798      	blx	r3
 800880c:	3601      	adds	r6, #1
 800880e:	e7f2      	b.n	80087f6 <__libc_init_array+0x1e>
 8008810:	08008858 	.word	0x08008858
 8008814:	08008858 	.word	0x08008858
 8008818:	08008858 	.word	0x08008858
 800881c:	0800885c 	.word	0x0800885c

08008820 <memset>:
 8008820:	4402      	add	r2, r0
 8008822:	4603      	mov	r3, r0
 8008824:	4293      	cmp	r3, r2
 8008826:	d100      	bne.n	800882a <memset+0xa>
 8008828:	4770      	bx	lr
 800882a:	f803 1b01 	strb.w	r1, [r3], #1
 800882e:	e7f9      	b.n	8008824 <memset+0x4>

08008830 <_init>:
 8008830:	b5f8      	push	{r3, r4, r5, r6, r7, lr}
 8008832:	bf00      	nop
 8008834:	bcf8      	pop	{r3, r4, r5, r6, r7}
 8008836:	bc08      	pop	{r3}
 8008838:	469e      	mov	lr, r3
 800883a:	4770      	bx	lr

0800883c <_fini>:
 800883c:	b5f8      	push	{r3, r4, r5, r6, r7, lr}
 800883e:	bf00      	nop
 8008840:	bcf8      	pop	{r3, r4, r5, r6, r7}
 8008842:	bc08      	pop	{r3}
 8008844:	469e      	mov	lr, r3
 8008846:	4770      	bx	lr
